Microsoft (R) COFF/PE Dumper Version 14.38.33145.0
Copyright (C) Microsoft Corporation.  All rights reserved.


Dump of file C:\Program Files (x86)\Steam\steamapps\common\Battlezone 98 Redux\OgreMain.dll

File Type: DLL

  Section contains the following exports for OgreMain.dll

    00000000 characteristics
    5865FB1D time date stamp Fri Dec 30 00:13:49 2016
        0.00 version
           1 ordinal base
        9194 number of functions
        9194 number of names

    ordinal hint RVA      name

          1    0 00016E00 ??0?$AllocatedObject@V?$CategorisedAllocPolicy@$00@Ogre@@@Ogre@@QAE@XZ
          2    1 0001728D ??0?$AllocatedObject@V?$CategorisedAllocPolicy@$01@Ogre@@@Ogre@@QAE@XZ
          3    2 0003652F ??0?$AllocatedObject@V?$CategorisedAllocPolicy@$02@Ogre@@@Ogre@@QAE@XZ
          4    3 000400FC ??0?$AllocatedObject@V?$CategorisedAllocPolicy@$03@Ogre@@@Ogre@@QAE@XZ
          5    4 00015721 ??0?$AllocatedObject@V?$CategorisedAllocPolicy@$04@Ogre@@@Ogre@@QAE@XZ
          6    5 0002E816 ??0?$AllocatedObject@V?$CategorisedAllocPolicy@$05@Ogre@@@Ogre@@QAE@XZ
          7    6 00037295 ??0?$AllocatedObject@V?$CategorisedAllocPolicy@$06@Ogre@@@Ogre@@QAE@XZ
          8    7 00030D5F ??0?$AllocatedObject@V?$CategorisedAllocPolicy@$0A@@Ogre@@@Ogre@@QAE@XZ
          9    8 00022DEF ??0?$ControllerFunction@M@Ogre@@QAE@ABV01@@Z
         10    9 0001A591 ??0?$ControllerFunction@M@Ogre@@QAE@_N@Z
         11    A 0002D907 ??0?$ControllerValue@M@Ogre@@QAE@ABV01@@Z
         12    B 00038D66 ??0?$ControllerValue@M@Ogre@@QAE@XZ
         13    C 00001F78 ??0?$FactoryObj@VArchive@Ogre@@@Ogre@@QAE@ABV01@@Z
         14    D 00015307 ??0?$FactoryObj@VArchive@Ogre@@@Ogre@@QAE@XZ
         15    E 00011E41 ??0?$FactoryObj@VParticleSystemRenderer@Ogre@@@Ogre@@QAE@ABV01@@Z
         16    F 000131F6 ??0?$FactoryObj@VParticleSystemRenderer@Ogre@@@Ogre@@QAE@XZ
         17   10 0001E2E5 ??0?$Pool@V?$SharedPtr@VResource@Ogre@@@Ogre@@@Ogre@@QAE@XZ
         18   11 000053A3 ??0?$SharedPtr@VHardwareCounterBuffer@Ogre@@@Ogre@@IAE@PAVHardwareCounterBuffer@1@PAUSharedPtrInfo@1@@Z
         19   12 00034D9C ??0?$SharedPtr@VHardwareCounterBuffer@Ogre@@@Ogre@@QAE@ABV01@@Z
         20   13 0001274C ??0?$SharedPtr@VHardwareCounterBuffer@Ogre@@@Ogre@@QAE@XZ
         21   14 00011C57 ??0?$SharedPtr@VHardwareIndexBuffer@Ogre@@@Ogre@@IAE@PAVHardwareIndexBuffer@1@PAUSharedPtrInfo@1@@Z
         22   15 000242F8 ??0?$SharedPtr@VHardwareIndexBuffer@Ogre@@@Ogre@@QAE@ABV01@@Z
         23   16 00022A75 ??0?$SharedPtr@VHardwareIndexBuffer@Ogre@@@Ogre@@QAE@XZ
         24   17 00006D75 ??0?$SharedPtr@VHardwarePixelBuffer@Ogre@@@Ogre@@IAE@PAVHardwarePixelBuffer@1@PAUSharedPtrInfo@1@@Z
         25   18 00011E0F ??0?$SharedPtr@VHardwarePixelBuffer@Ogre@@@Ogre@@QAE@ABV01@@Z
         26   19 00034E37 ??0?$SharedPtr@VHardwarePixelBuffer@Ogre@@@Ogre@@QAE@XZ
         27   1A 0003FE8B ??0?$SharedPtr@VHardwareUniformBuffer@Ogre@@@Ogre@@IAE@PAVHardwareUniformBuffer@1@PAUSharedPtrInfo@1@@Z
         28   1B 0003C083 ??0?$SharedPtr@VHardwareUniformBuffer@Ogre@@@Ogre@@QAE@ABV01@@Z
         29   1C 0001CC8D ??0?$SharedPtr@VHardwareUniformBuffer@Ogre@@@Ogre@@QAE@XZ
         30   1D 0000BA5A ??0?$SharedPtr@VHardwareVertexBuffer@Ogre@@@Ogre@@IAE@PAVHardwareVertexBuffer@1@PAUSharedPtrInfo@1@@Z
         31   1E 000148B2 ??0?$SharedPtr@VHardwareVertexBuffer@Ogre@@@Ogre@@QAE@ABV01@@Z
         32   1F 00002E87 ??0?$SharedPtr@VHardwareVertexBuffer@Ogre@@@Ogre@@QAE@XZ
         33   20 0000CAF4 ??0?$Singleton@VAbsolutePixelCountLodStrategy@Ogre@@@Ogre@@QAE@XZ
         34   21 0000C25C ??0?$Singleton@VArchiveManager@Ogre@@@Ogre@@QAE@XZ
         35   22 0001EF74 ??0?$Singleton@VCompositorManager@Ogre@@@Ogre@@QAE@XZ
         36   23 000331B3 ??0?$Singleton@VControllerManager@Ogre@@@Ogre@@QAE@XZ
         37   24 00020AD6 ??0?$Singleton@VDistanceLodBoxStrategy@Ogre@@@Ogre@@QAE@XZ
         38   25 0001397B ??0?$Singleton@VDistanceLodSphereStrategy@Ogre@@@Ogre@@QAE@XZ
         39   26 0001713E ??0?$Singleton@VDynLibManager@Ogre@@@Ogre@@QAE@XZ
         40   27 0003B944 ??0?$Singleton@VExternalTextureSourceManager@Ogre@@@Ogre@@QAE@XZ
         41   28 0000C18A ??0?$Singleton@VGpuProgramManager@Ogre@@@Ogre@@QAE@XZ
         42   29 00016B9E ??0?$Singleton@VHardwareBufferManager@Ogre@@@Ogre@@QAE@XZ
         43   2A 000245AA ??0?$Singleton@VHighLevelGpuProgramManager@Ogre@@@Ogre@@QAE@XZ
         44   2B 00034EC3 ??0?$Singleton@VLodStrategyManager@Ogre@@@Ogre@@QAE@XZ
         45   2C 00015CF8 ??0?$Singleton@VLogManager@Ogre@@@Ogre@@QAE@XZ
         46   2D 00009480 ??0?$Singleton@VMaterialManager@Ogre@@@Ogre@@QAE@XZ
         47   2E 0000525E ??0?$Singleton@VMeshManager@Ogre@@@Ogre@@QAE@XZ
         48   2F 0002B0C6 ??0?$Singleton@VParticleSystemManager@Ogre@@@Ogre@@QAE@XZ
         49   30 0000AD0D ??0?$Singleton@VProfiler@Ogre@@@Ogre@@QAE@XZ
         50   31 0002D72C ??0?$Singleton@VRenderSystemCapabilitiesManager@Ogre@@@Ogre@@QAE@XZ
         51   32 0001CC6F ??0?$Singleton@VResourceBackgroundQueue@Ogre@@@Ogre@@QAE@XZ
         52   33 0001F857 ??0?$Singleton@VResourceGroupManager@Ogre@@@Ogre@@QAE@XZ
         53   34 00012F5D ??0?$Singleton@VRoot@Ogre@@@Ogre@@QAE@XZ
         54   35 00009B3D ??0?$Singleton@VSceneManagerEnumerator@Ogre@@@Ogre@@QAE@XZ
         55   36 0001B009 ??0?$Singleton@VScreenRatioPixelCountLodStrategy@Ogre@@@Ogre@@QAE@XZ
         56   37 0000CC43 ??0?$Singleton@VScriptCompilerManager@Ogre@@@Ogre@@QAE@XZ
         57   38 000056D2 ??0?$Singleton@VShadowTextureManager@Ogre@@@Ogre@@QAE@XZ
         58   39 000073A6 ??0?$Singleton@VSkeletonManager@Ogre@@@Ogre@@QAE@XZ
         59   3A 00016612 ??0?$Singleton@VTextureManager@Ogre@@@Ogre@@QAE@XZ
         60   3B 00038CE4 ??0AbsolutePixelCountLodStrategy@Ogre@@QAE@XZ
         61   3C 0000978C ??0AbstractNode@Ogre@@QAE@ABV01@@Z
         62   3D 0003DC12 ??0AbstractNode@Ogre@@QAE@PAV01@@Z
         63   3E 00027949 ??0AnimableObject@Ogre@@QAE@ABV01@@Z
         64   3F 00005C68 ??0AnimableObject@Ogre@@QAE@XZ
         65   40 00037C4A ??0AnimableValue@Ogre@@QAE@ABV01@@Z
         66   41 000300C6 ??0AnimableValue@Ogre@@QAE@W4ValueType@01@@Z
         67   42 0000A01F ??0Animation@Ogre@@QAE@ABV01@@Z
         68   43 00036B33 ??0Animation@Ogre@@QAE@ABV?$basic_string@DU?$char_traits@D@std@@V?$allocator@D@2@@std@@M@Z
         69   44 0002BE63 ??0AnimationContainer@Ogre@@QAE@ABV01@@Z
         70   45 00033348 ??0AnimationContainer@Ogre@@QAE@XZ
         71   46 0001FC49 ??0AnimationControllerFunction@Ogre@@QAE@ABV01@@Z
         72   47 000223B3 ??0AnimationControllerFunction@Ogre@@QAE@MM@Z
         73   48 00006677 ??0AnimationState@Ogre@@QAE@ABV01@@Z
         74   49 00017AA3 ??0AnimationState@Ogre@@QAE@ABV?$basic_string@DU?$char_traits@D@std@@V?$allocator@D@2@@std@@PAVAnimationStateSet@1@MMM_N@Z
         75   4A 0003EE3C ??0AnimationState@Ogre@@QAE@PAVAnimationStateSet@1@ABV01@@Z
         76   4B 0001D3FE ??0AnimationStateControllerValue@Ogre@@QAE@ABV01@@Z
         77   4C 00035729 ??0AnimationStateControllerValue@Ogre@@QAE@PAVAnimationState@1@@Z
         78   4D 000363E5 ??0AnimationStateSet@Ogre@@QAE@ABV01@@Z
         79   4E 00007C7F ??0AnimationStateSet@Ogre@@QAE@XZ
         80   4F 0001186A ??0AnimationTrack@Ogre@@QAE@ABV01@@Z
         81   50 00011B94 ??0AnimationTrack@Ogre@@QAE@PAVAnimation@1@G@Z
         82   51 0000364D ??0Archive@Ogre@@QAE@ABV01@@Z
         83   52 00010C49 ??0Archive@Ogre@@QAE@ABV?$basic_string@DU?$char_traits@D@std@@V?$allocator@D@2@@std@@0@Z
         84   53 00003094 ??0ArchiveFactory@Ogre@@QAE@ABV01@@Z
         85   54 0001AD48 ??0ArchiveFactory@Ogre@@QAE@XZ
         86   55 00034FA9 ??0ArchiveManager@Ogre@@QAE@XZ
         87   56 00016E28 ??0AtomAbstractNode@Ogre@@QAE@ABV01@@Z
         88   57 0001BBF3 ??0AtomAbstractNode@Ogre@@QAE@PAVAbstractNode@1@@Z
         89   58 00008D37 ??0AutoParamDataSource@Ogre@@QAE@ABV01@@Z
         90   59 00018DB8 ??0AutoParamDataSource@Ogre@@QAE@XZ
         91   5A 0001F780 ??0AxisAlignedBox@Ogre@@QAE@ABV01@@Z
         92   5B 000340E5 ??0AxisAlignedBox@Ogre@@QAE@ABVVector3@1@0@Z
         93   5C 0003717D ??0AxisAlignedBox@Ogre@@QAE@MMMMMM@Z
         94   5D 000164B9 ??0AxisAlignedBox@Ogre@@QAE@W4Extent@01@@Z
         95   5E 0003B8AE ??0AxisAlignedBox@Ogre@@QAE@XZ
         96   5F 0001E7AE ??0AxisAlignedBoxSceneQuery@Ogre@@QAE@ABV01@@Z
         97   60 000013D4 ??0AxisAlignedBoxSceneQuery@Ogre@@QAE@PAVSceneManager@1@@Z
         98   61 0002B7DD ??0Barrier@Ogre@@QAE@I@Z
         99   62 0001B5E5 ??0BaseInstanceBatchVTF@Ogre@@QAE@ABV01@@Z
        100   63 0000CF18 ??0BaseInstanceBatchVTF@Ogre@@QAE@PAVInstanceManager@1@AAV?$SharedPtr@VMesh@Ogre@@@1@ABV?$SharedPtr@VMaterial@Ogre@@@1@IPBV?$vector@GV?$STLAllocator@GV?$CategorisedAllocPolicy@$0A@@Ogre@@@Ogre@@@std@@ABV?$basic_string@DU?$char_traits@D@std@@V?$allocator@D@2@@6@@Z
        101   64 00038D84 ??0BatchInstance@InstancedGeometry@Ogre@@QAE@ABV012@@Z
        102   65 0000C4FA ??0BatchInstance@InstancedGeometry@Ogre@@QAE@PAV12@ABV?$basic_string@DU?$char_traits@D@std@@V?$allocator@D@2@@std@@PAVSceneManager@2@I@Z
        103   66 00003B75 ??0Billboard@Ogre@@QAE@ABV01@@Z
        104   67 0001BD83 ??0Billboard@Ogre@@QAE@ABVVector3@1@PAVBillboardSet@1@ABVColourValue@1@@Z
        105   68 00034FFE ??0Billboard@Ogre@@QAE@XZ
        106   69 00033929 ??0BillboardChain@Ogre@@QAE@ABV01@@Z
        107   6A 0003FA5D ??0BillboardChain@Ogre@@QAE@ABV?$basic_string@DU?$char_traits@D@std@@V?$allocator@D@2@@std@@II_N11@Z
        108   6B 0000CA95 ??0BillboardChainFactory@Ogre@@QAE@ABV01@@Z
        109   6C 00014CFE ??0BillboardChainFactory@Ogre@@QAE@XZ
        110   6D 0002134B ??0BillboardParticleRenderer@Ogre@@QAE@ABV01@@Z
        111   6E 00034879 ??0BillboardParticleRenderer@Ogre@@QAE@XZ
        112   6F 0000CB7B ??0BillboardParticleRendererFactory@Ogre@@QAE@ABV01@@Z
        113   70 00029645 ??0BillboardParticleRendererFactory@Ogre@@QAE@XZ
        114   71 0003FD0A ??0BillboardSet@Ogre@@IAE@XZ
        115   72 0000B4E7 ??0BillboardSet@Ogre@@QAE@ABV01@@Z
        116   73 0002500E ??0BillboardSet@Ogre@@QAE@ABV?$basic_string@DU?$char_traits@D@std@@V?$allocator@D@2@@std@@I_N@Z
        117   74 00012350 ??0BillboardSetFactory@Ogre@@QAE@ABV01@@Z
        118   75 0003D4FB ??0BillboardSetFactory@Ogre@@QAE@XZ
        119   76 0002D560 ??0Bone@Ogre@@QAE@ABV01@@Z
        120   77 000131D8 ??0Bone@Ogre@@QAE@ABV?$basic_string@DU?$char_traits@D@std@@V?$allocator@D@2@@std@@GPAVSkeleton@1@@Z
        121   78 0000BC85 ??0Bone@Ogre@@QAE@GPAVSkeleton@1@@Z
        122   79 00009674 ??0BuiltinScriptTranslatorManager@Ogre@@QAE@ABV01@@Z
        123   7A 0000E700 ??0BuiltinScriptTranslatorManager@Ogre@@QAE@XZ
        124   7B 0003FCFB ??0Camera@Ogre@@QAE@ABV?$basic_string@DU?$char_traits@D@std@@V?$allocator@D@2@@std@@PAVSceneManager@1@@Z
        125   7C 00024CE9 ??0CmdAdjacency@GpuProgram@Ogre@@QAE@ABV012@@Z
        126   7D 0003BAE8 ??0CmdAdjacency@GpuProgram@Ogre@@QAE@XZ
        127   7E 0000D4F9 ??0CmdAngle@EmitterCommands@Ogre@@QAE@ABV012@@Z
        128   7F 0000C73E ??0CmdAngle@EmitterCommands@Ogre@@QAE@XZ
        129   80 00037C45 ??0CmdColour@EmitterCommands@Ogre@@QAE@ABV012@@Z
        130   81 0001F474 ??0CmdColour@EmitterCommands@Ogre@@QAE@XZ
        131   82 0001C7E7 ??0CmdColourRangeEnd@EmitterCommands@Ogre@@QAE@ABV012@@Z
        132   83 0002BD69 ??0CmdColourRangeEnd@EmitterCommands@Ogre@@QAE@XZ
        133   84 0000B078 ??0CmdColourRangeStart@EmitterCommands@Ogre@@QAE@ABV012@@Z
        134   85 0003353C ??0CmdColourRangeStart@EmitterCommands@Ogre@@QAE@XZ
        135   86 00026648 ??0CmdComputeGroupDims@GpuProgram@Ogre@@QAE@ABV012@@Z
        136   87 0001E434 ??0CmdComputeGroupDims@GpuProgram@Ogre@@QAE@XZ
        137   88 000056FF ??0CmdDirPositionRef@EmitterCommands@Ogre@@QAE@ABV012@@Z
        138   89 00004FED ??0CmdDirPositionRef@EmitterCommands@Ogre@@QAE@XZ
        139   8A 00013769 ??0CmdDirection@EmitterCommands@Ogre@@QAE@ABV012@@Z
        140   8B 00024753 ??0CmdDirection@EmitterCommands@Ogre@@QAE@XZ
        141   8C 0001FAF0 ??0CmdDuration@EmitterCommands@Ogre@@QAE@ABV012@@Z
        142   8D 000353FA ??0CmdDuration@EmitterCommands@Ogre@@QAE@XZ
        143   8E 00013B47 ??0CmdEmissionRate@EmitterCommands@Ogre@@QAE@ABV012@@Z
        144   8F 000257A7 ??0CmdEmissionRate@EmitterCommands@Ogre@@QAE@XZ
        145   90 0001E722 ??0CmdEmittedEmitter@EmitterCommands@Ogre@@QAE@ABV012@@Z
        146   91 00001799 ??0CmdEmittedEmitter@EmitterCommands@Ogre@@QAE@XZ
        147   92 000161BC ??0CmdManualNamedConstsFile@GpuProgram@Ogre@@QAE@ABV012@@Z
        148   93 0003BFC5 ??0CmdManualNamedConstsFile@GpuProgram@Ogre@@QAE@XZ
        149   94 00031ADE ??0CmdMaxDuration@EmitterCommands@Ogre@@QAE@ABV012@@Z
        150   95 0002E578 ??0CmdMaxDuration@EmitterCommands@Ogre@@QAE@XZ
        151   96 0003F4AE ??0CmdMaxRepeatDelay@EmitterCommands@Ogre@@QAE@ABV012@@Z
        152   97 00007D7E ??0CmdMaxRepeatDelay@EmitterCommands@Ogre@@QAE@XZ
        153   98 0000E78C ??0CmdMaxTTL@EmitterCommands@Ogre@@QAE@ABV012@@Z
        154   99 0003F62A ??0CmdMaxTTL@EmitterCommands@Ogre@@QAE@XZ
        155   9A 0000F9A2 ??0CmdMaxVelocity@EmitterCommands@Ogre@@QAE@ABV012@@Z
        156   9B 0001F875 ??0CmdMaxVelocity@EmitterCommands@Ogre@@QAE@XZ
        157   9C 0003E667 ??0CmdMinDuration@EmitterCommands@Ogre@@QAE@ABV012@@Z
        158   9D 0002A167 ??0CmdMinDuration@EmitterCommands@Ogre@@QAE@XZ
        159   9E 00024BC2 ??0CmdMinRepeatDelay@EmitterCommands@Ogre@@QAE@ABV012@@Z
        160   9F 0003A7CE ??0CmdMinRepeatDelay@EmitterCommands@Ogre@@QAE@XZ
        161   A0 00034419 ??0CmdMinTTL@EmitterCommands@Ogre@@QAE@ABV012@@Z
        162   A1 00018E6C ??0CmdMinTTL@EmitterCommands@Ogre@@QAE@XZ
        163   A2 0000A66E ??0CmdMinVelocity@EmitterCommands@Ogre@@QAE@ABV012@@Z
        164   A3 0000E95D ??0CmdMinVelocity@EmitterCommands@Ogre@@QAE@XZ
        165   A4 00016DA1 ??0CmdMorph@GpuProgram@Ogre@@QAE@ABV012@@Z
        166   A5 0001FDE8 ??0CmdMorph@GpuProgram@Ogre@@QAE@XZ
        167   A6 00006A87 ??0CmdName@EmitterCommands@Ogre@@QAE@ABV012@@Z
        168   A7 00013165 ??0CmdName@EmitterCommands@Ogre@@QAE@XZ
        169   A8 000014E2 ??0CmdPose@GpuProgram@Ogre@@QAE@ABV012@@Z
        170   A9 00001762 ??0CmdPose@GpuProgram@Ogre@@QAE@XZ
        171   AA 0001F1EF ??0CmdPosition@EmitterCommands@Ogre@@QAE@ABV012@@Z
        172   AB 00027732 ??0CmdPosition@EmitterCommands@Ogre@@QAE@XZ
        173   AC 00012EA9 ??0CmdRepeatDelay@EmitterCommands@Ogre@@QAE@ABV012@@Z
        174   AD 000259CD ??0CmdRepeatDelay@EmitterCommands@Ogre@@QAE@XZ
        175   AE 0001A2DA ??0CmdSkeletal@GpuProgram@Ogre@@QAE@ABV012@@Z
        176   AF 00013FBB ??0CmdSkeletal@GpuProgram@Ogre@@QAE@XZ
        177   B0 00003F26 ??0CmdSyntax@GpuProgram@Ogre@@QAE@ABV012@@Z
        178   B1 00017B52 ??0CmdSyntax@GpuProgram@Ogre@@QAE@XZ
        179   B2 00012D87 ??0CmdTTL@EmitterCommands@Ogre@@QAE@ABV012@@Z
        180   B3 00005ED4 ??0CmdTTL@EmitterCommands@Ogre@@QAE@XZ
        181   B4 00030CA1 ??0CmdType@GpuProgram@Ogre@@QAE@ABV012@@Z
        182   B5 00022BF1 ??0CmdType@GpuProgram@Ogre@@QAE@XZ
        183   B6 0002F3CE ??0CmdUp@EmitterCommands@Ogre@@QAE@ABV012@@Z
        184   B7 0003A977 ??0CmdUp@EmitterCommands@Ogre@@QAE@XZ
        185   B8 000216C5 ??0CmdVTF@GpuProgram@Ogre@@QAE@ABV012@@Z
        186   B9 000062F8 ??0CmdVTF@GpuProgram@Ogre@@QAE@XZ
        187   BA 00031881 ??0CmdVelocity@EmitterCommands@Ogre@@QAE@ABV012@@Z
        188   BB 0001A1F9 ??0CmdVelocity@EmitterCommands@Ogre@@QAE@XZ
        189   BC 0003EEF5 ??0Codec@Ogre@@QAE@ABV01@@Z
        190   BD 00024B18 ??0Codec@Ogre@@QAE@XZ
        191   BE 0000DC60 ??0ColourValue@Ogre@@QAE@MMMM@Z
        192   BF 0001C1CF ??0CompositionPass@Ogre@@QAE@ABV01@@Z
        193   C0 00023871 ??0CompositionPass@Ogre@@QAE@PAVCompositionTargetPass@1@@Z
        194   C1 00009016 ??0CompositionPassTranslator@Ogre@@QAE@ABV01@@Z
        195   C2 0000E444 ??0CompositionPassTranslator@Ogre@@QAE@XZ
        196   C3 0000A18C ??0CompositionTargetPass@Ogre@@QAE@ABV01@@Z
        197   C4 00001B86 ??0CompositionTargetPass@Ogre@@QAE@PAVCompositionTechnique@1@@Z
        198   C5 000298C5 ??0CompositionTargetPassTranslator@Ogre@@QAE@ABV01@@Z
        199   C6 00024091 ??0CompositionTargetPassTranslator@Ogre@@QAE@XZ
        200   C7 00025BC1 ??0CompositionTechnique@Ogre@@QAE@ABV01@@Z
        201   C8 00014E02 ??0CompositionTechnique@Ogre@@QAE@PAVCompositor@1@@Z
        202   C9 0000C94B ??0CompositionTechniqueTranslator@Ogre@@QAE@ABV01@@Z
        203   CA 00034E23 ??0CompositionTechniqueTranslator@Ogre@@QAE@XZ
        204   CB 00029FDC ??0Compositor@Ogre@@QAE@PAVResourceManager@1@ABV?$basic_string@DU?$char_traits@D@std@@V?$allocator@D@2@@std@@_K1_NPAVManualResourceLoader@1@@Z
        205   CC 000033F0 ??0CompositorChain@Ogre@@QAE@ABV01@@Z
        206   CD 0000D6D4 ??0CompositorChain@Ogre@@QAE@PAVViewport@1@@Z
        207   CE 00039C2A ??0CompositorInstance@Ogre@@QAE@ABV01@@Z
        208   CF 0000F34E ??0CompositorInstance@Ogre@@QAE@PAVCompositionTechnique@1@PAVCompositorChain@1@@Z
        209   D0 0003F5C1 ??0CompositorLogic@Ogre@@QAE@ABV01@@Z
        210   D1 00025CBB ??0CompositorLogic@Ogre@@QAE@XZ
        211   D2 00032A42 ??0CompositorManager@Ogre@@QAE@XZ
        212   D3 00038587 ??0CompositorTranslator@Ogre@@QAE@ABV01@@Z
        213   D4 000118C4 ??0CompositorTranslator@Ogre@@QAE@XZ
        214   D5 000306AC ??0ConfigDialog@Ogre@@QAE@XZ
        215   D6 00005E6B ??0ConfigFile@Ogre@@QAE@ABV01@@Z
        216   D7 000028BF ??0ConfigFile@Ogre@@QAE@XZ
        217   D8 00018A07 ??0ControllerManager@Ogre@@QAE@XZ
        218   D9 00021B39 ??0ConvexBody@Ogre@@QAE@ABV01@@Z
        219   DA 00012751 ??0ConvexBody@Ogre@@QAE@XZ
        220   DB 00032FFB ??0CreateCompositorScriptCompilerEvent@Ogre@@QAE@ABV?$basic_string@DU?$char_traits@D@std@@V?$allocator@D@2@@std@@00@Z
        221   DC 0002D0A1 ??0CreateGpuProgramScriptCompilerEvent@Ogre@@QAE@ABV?$basic_string@DU?$char_traits@D@std@@V?$allocator@D@2@@std@@0000W4GpuProgramType@1@@Z
        222   DD 0002A8A1 ??0CreateGpuSharedParametersScriptCompilerEvent@Ogre@@QAE@ABV?$basic_string@DU?$char_traits@D@std@@V?$allocator@D@2@@std@@00@Z
        223   DE 00008CEC ??0CreateHighLevelGpuProgramScriptCompilerEvent@Ogre@@QAE@ABV?$basic_string@DU?$char_traits@D@std@@V?$allocator@D@2@@std@@0000W4GpuProgramType@1@@Z
        224   DF 00034D47 ??0CreateMaterialScriptCompilerEvent@Ogre@@QAE@ABV?$basic_string@DU?$char_traits@D@std@@V?$allocator@D@2@@std@@00@Z
        225   E0 00025167 ??0CreateParticleSystemScriptCompilerEvent@Ogre@@QAE@ABV?$basic_string@DU?$char_traits@D@std@@V?$allocator@D@2@@std@@00@Z
        226   E1 00007EC3 ??0CustomCompositionPass@Ogre@@QAE@ABV01@@Z
        227   E2 0000D724 ??0CustomCompositionPass@Ogre@@QAE@XZ
        228   E3 00011ED7 ??0DDSCodec@Ogre@@QAE@ABV01@@Z
        229   E4 00023CEF ??0DDSCodec@Ogre@@QAE@XZ
        230   E5 00007C89 ??0DataStream@Ogre@@QAE@ABV01@@Z
        231   E6 00006537 ??0DataStream@Ogre@@QAE@ABV?$basic_string@DU?$char_traits@D@std@@V?$allocator@D@2@@std@@G@Z
        232   E7 0003C55B ??0DataStream@Ogre@@QAE@G@Z
        233   E8 00037731 ??0DefaultAxisAlignedBoxSceneQuery@Ogre@@QAE@ABV01@@Z
        234   E9 00004E17 ??0DefaultAxisAlignedBoxSceneQuery@Ogre@@QAE@PAVSceneManager@1@@Z
        235   EA 00003797 ??0DefaultHardwareBufferManager@Ogre@@QAE@XZ
        236   EB 00001AFA ??0DefaultHardwareBufferManagerBase@Ogre@@QAE@XZ
        237   EC 00013AF7 ??0DefaultHardwareCounterBuffer@Ogre@@QAE@ABV01@@Z
        238   ED 00012B9D ??0DefaultHardwareCounterBuffer@Ogre@@QAE@PAVHardwareBufferManagerBase@1@IW4Usage@HardwareBuffer@1@_NABV?$basic_string@DU?$char_traits@D@std@@V?$allocator@D@2@@std@@@Z
        239   EE 0000B041 ??0DefaultHardwareIndexBuffer@Ogre@@QAE@ABV01@@Z
        240   EF 0001A2C6 ??0DefaultHardwareIndexBuffer@Ogre@@QAE@W4IndexType@HardwareIndexBuffer@1@IW4Usage@HardwareBuffer@1@@Z
        241   F0 0002D420 ??0DefaultHardwareUniformBuffer@Ogre@@QAE@ABV01@@Z
        242   F1 0001D070 ??0DefaultHardwareUniformBuffer@Ogre@@QAE@PAVHardwareBufferManagerBase@1@IW4Usage@HardwareBuffer@1@_NABV?$basic_string@DU?$char_traits@D@std@@V?$allocator@D@2@@std@@@Z
        243   F2 00028E0C ??0DefaultHardwareVertexBuffer@Ogre@@QAE@ABV01@@Z
        244   F3 00038EBA ??0DefaultHardwareVertexBuffer@Ogre@@QAE@IIW4Usage@HardwareBuffer@1@@Z
        245   F4 0002B800 ??0DefaultHardwareVertexBuffer@Ogre@@QAE@PAVHardwareBufferManagerBase@1@IIW4Usage@HardwareBuffer@1@@Z
        246   F5 00007617 ??0DefaultIntersectionSceneQuery@Ogre@@QAE@ABV01@@Z
        247   F6 00033000 ??0DefaultIntersectionSceneQuery@Ogre@@QAE@PAVSceneManager@1@@Z
        248   F7 0001E501 ??0DefaultPlaneBoundedVolumeListSceneQuery@Ogre@@QAE@ABV01@@Z
        249   F8 0003B2D7 ??0DefaultPlaneBoundedVolumeListSceneQuery@Ogre@@QAE@PAVSceneManager@1@@Z
        250   F9 0002A32E ??0DefaultRaySceneQuery@Ogre@@QAE@ABV01@@Z
        251   FA 00002860 ??0DefaultRaySceneQuery@Ogre@@QAE@PAVSceneManager@1@@Z
        252   FB 00033DCF ??0DefaultSceneManager@Ogre@@QAE@ABV?$basic_string@DU?$char_traits@D@std@@V?$allocator@D@2@@std@@@Z
        253   FC 0000196A ??0DefaultSceneManagerFactory@Ogre@@QAE@ABV01@@Z
        254   FD 0002717E ??0DefaultSceneManagerFactory@Ogre@@QAE@XZ
        255   FE 0000C185 ??0DefaultShadowCameraSetup@Ogre@@QAE@ABV01@@Z
        256   FF 00038091 ??0DefaultShadowCameraSetup@Ogre@@QAE@XZ
        257  100 00012418 ??0DefaultSphereSceneQuery@Ogre@@QAE@ABV01@@Z
        258  101 00018282 ??0DefaultSphereSceneQuery@Ogre@@QAE@PAVSceneManager@1@@Z
        259  102 00038FA5 ??0DefaultWorkQueue@Ogre@@QAE@ABV?$basic_string@DU?$char_traits@D@std@@V?$allocator@D@2@@std@@@Z
        260  103 000018AC ??0DefaultWorkQueueBase@Ogre@@QAE@ABV?$basic_string@DU?$char_traits@D@std@@V?$allocator@D@2@@std@@@Z
        261  104 0000C36F ??0DeflateStream@Ogre@@QAE@ABV01@@Z
        262  105 0000FD35 ??0DeflateStream@Ogre@@QAE@ABV?$SharedPtr@VDataStream@Ogre@@@1@ABV?$basic_string@DU?$char_traits@D@std@@V?$allocator@D@2@@std@@I@Z
        263  106 0003D177 ??0DeflateStream@Ogre@@QAE@ABV?$basic_string@DU?$char_traits@D@std@@V?$allocator@D@2@@std@@ABV?$SharedPtr@VDataStream@Ogre@@@1@0I@Z
        264  107 0000C324 ??0DepthBuffer@Ogre@@QAE@ABV01@@Z
        265  108 0002D650 ??0DepthBuffer@Ogre@@QAE@GGIIIABV?$basic_string@DU?$char_traits@D@std@@V?$allocator@D@2@@std@@_N@Z
        266  109 00012AAD ??0DistanceLodBoxStrategy@Ogre@@QAE@XZ
        267  10A 0001ACDF ??0DistanceLodSphereStrategy@Ogre@@QAE@XZ
        268  10B 00029244 ??0DistanceLodStrategyBase@Ogre@@QAE@ABV01@@Z
        269  10C 0003638B ??0DistanceLodStrategyBase@Ogre@@QAE@ABV?$basic_string@DU?$char_traits@D@std@@V?$allocator@D@2@@std@@@Z
        270  10D 0001CDDC ??0DriverVersion@Ogre@@QAE@XZ
        271  10E 0002015D ??0DualQuaternion@Ogre@@QAE@ABVMatrix4@1@@Z
        272  10F 000302BF ??0DualQuaternion@Ogre@@QAE@ABVQuaternion@1@ABVVector3@1@@Z
        273  110 00012198 ??0DualQuaternion@Ogre@@QAE@MMMMMMMM@Z
        274  111 00036A4D ??0DualQuaternion@Ogre@@QAE@PAM@Z
        275  112 00014BF0 ??0DualQuaternion@Ogre@@QAE@XZ
        276  113 0003FAFD ??0DynLib@Ogre@@QAE@ABV01@@Z
        277  114 00030346 ??0DynLib@Ogre@@QAE@ABV?$basic_string@DU?$char_traits@D@std@@V?$allocator@D@2@@std@@@Z
        278  115 0001E236 ??0DynLibManager@Ogre@@QAE@XZ
        279  116 00009278 ??0EdgeData@Ogre@@QAE@ABV01@@Z
        280  117 0000713F ??0EdgeData@Ogre@@QAE@XZ
        281  118 00016B1C ??0EdgeListBuilder@Ogre@@QAE@ABV01@@Z
        282  119 0002E6AE ??0EdgeListBuilder@Ogre@@QAE@XZ
        283  11A 0000D116 ??0Element@BillboardChain@Ogre@@QAE@ABVVector3@2@MMABVColourValue@2@ABVQuaternion@2@@Z
        284  11B 0000DFC6 ??0Element@BillboardChain@Ogre@@QAE@XZ
        285  11C 0000F0C9 ??0EmbeddedZipArchiveFactory@Ogre@@QAE@ABV01@@Z
        286  11D 00008FDF ??0EmbeddedZipArchiveFactory@Ogre@@QAE@XZ
        287  11E 00033E1F ??0Entity@Ogre@@IAE@ABV?$basic_string@DU?$char_traits@D@std@@V?$allocator@D@2@@std@@ABV?$SharedPtr@VMesh@Ogre@@@1@@Z
        288  11F 0002BE4A ??0Entity@Ogre@@IAE@XZ
        289  120 0003A3FA ??0Entity@Ogre@@QAE@ABV01@@Z
        290  121 0003E905 ??0EntityFactory@Ogre@@QAE@ABV01@@Z
        291  122 000029CD ??0EntityFactory@Ogre@@QAE@XZ
        292  123 0003A323 ??0EntityShadowRenderable@Entity@Ogre@@QAE@ABV012@@Z
        293  124 0002E005 ??0EntityShadowRenderable@Entity@Ogre@@QAE@PAV12@PAVHardwareIndexBufferSharedPtr@2@PBVVertexData@2@_NPAVSubEntity@2@3@Z
        294  125 00001262 ??0ErrorDialog@Ogre@@QAE@ABV01@@Z
        295  126 0003307D ??0ErrorDialog@Ogre@@QAE@XZ
        296  127 00039E19 ??0Exception@Ogre@@QAE@ABV01@@Z
        297  128 000335E6 ??0Exception@Ogre@@QAE@HABV?$basic_string@DU?$char_traits@D@std@@V?$allocator@D@2@@std@@0@Z
        298  129 0002B00D ??0Exception@Ogre@@QAE@HABV?$basic_string@DU?$char_traits@D@std@@V?$allocator@D@2@@std@@0PBD1J@Z
        299  12A 0002DFA1 ??0ExternalTextureSource@Ogre@@QAE@ABV01@@Z
        300  12B 0002F8C9 ??0ExternalTextureSource@Ogre@@QAE@XZ
        301  12C 000375D3 ??0ExternalTextureSourceManager@Ogre@@QAE@XZ
        302  12D 000201C1 ??0FileHandleDataStream@Ogre@@QAE@ABV01@@Z
        303  12E 0002B409 ??0FileHandleDataStream@Ogre@@QAE@ABV?$basic_string@DU?$char_traits@D@std@@V?$allocator@D@2@@std@@PAU_iobuf@@G@Z
        304  12F 00029546 ??0FileHandleDataStream@Ogre@@QAE@PAU_iobuf@@G@Z
        305  130 0001C571 ??0FileNotFoundException@Ogre@@QAE@ABV01@@Z
        306  131 0003099F ??0FileNotFoundException@Ogre@@QAE@HABV?$basic_string@DU?$char_traits@D@std@@V?$allocator@D@2@@std@@0PBDJ@Z
        307  132 000148DF ??0FileStreamDataStream@Ogre@@QAE@ABV01@@Z
        308  133 0001F933 ??0FileStreamDataStream@Ogre@@QAE@ABV?$basic_string@DU?$char_traits@D@std@@V?$allocator@D@2@@std@@PAV?$basic_fstream@DU?$char_traits@D@std@@@3@I_N@Z
        309  134 000365B1 ??0FileStreamDataStream@Ogre@@QAE@ABV?$basic_string@DU?$char_traits@D@std@@V?$allocator@D@2@@std@@PAV?$basic_fstream@DU?$char_traits@D@std@@@3@_N@Z
        310  135 0002968B ??0FileStreamDataStream@Ogre@@QAE@ABV?$basic_string@DU?$char_traits@D@std@@V?$allocator@D@2@@std@@PAV?$basic_ifstream@DU?$char_traits@D@std@@@3@I_N@Z
        311  136 000174F4 ??0FileStreamDataStream@Ogre@@QAE@ABV?$basic_string@DU?$char_traits@D@std@@V?$allocator@D@2@@std@@PAV?$basic_ifstream@DU?$char_traits@D@std@@@3@_N@Z
        312  137 0000DC0B ??0FileStreamDataStream@Ogre@@QAE@PAV?$basic_fstream@DU?$char_traits@D@std@@@std@@_N@Z
        313  138 00018C4B ??0FileStreamDataStream@Ogre@@QAE@PAV?$basic_ifstream@DU?$char_traits@D@std@@@std@@_N@Z
        314  139 00007FDB ??0FileSystemArchive@Ogre@@QAE@ABV?$basic_string@DU?$char_traits@D@std@@V?$allocator@D@2@@std@@0_N@Z
        315  13A 0003471B ??0FileSystemArchiveFactory@Ogre@@QAE@ABV01@@Z
        316  13B 0001C7B5 ??0FileSystemArchiveFactory@Ogre@@QAE@XZ
        317  13C 0002477B ??0FileSystemLayer@Ogre@@QAE@ABV01@@Z
        318  13D 000058EE ??0FileSystemLayer@Ogre@@QAE@ABV?$basic_string@DU?$char_traits@D@std@@V?$allocator@D@2@@std@@@Z
        319  13E 00013025 ??0FloatGpuParameterControllerValue@Ogre@@QAE@ABV01@@Z
        320  13F 000318B8 ??0FloatGpuParameterControllerValue@Ogre@@QAE@V?$SharedPtr@VGpuProgramParameters@Ogre@@@1@I@Z
        321  140 00024DDE ??0FocusedShadowCameraSetup@Ogre@@QAE@ABV01@@Z
        322  141 00027791 ??0FocusedShadowCameraSetup@Ogre@@QAE@XZ
        323  142 000153B6 ??0FrameListener@Ogre@@QAE@ABV01@@Z
        324  143 0001E641 ??0FrameListener@Ogre@@QAE@XZ
        325  144 0002AF40 ??0FrameTimeControllerValue@Ogre@@QAE@ABV01@@Z
        326  145 00005150 ??0FrameTimeControllerValue@Ogre@@QAE@XZ
        327  146 0002B959 ??0FreeImageCodec@Ogre@@QAE@ABV01@@Z
        328  147 00017E13 ??0FreeImageCodec@Ogre@@QAE@ABV?$basic_string@DU?$char_traits@D@std@@V?$allocator@D@2@@std@@I@Z
        329  148 0001D183 ??0Frustum@Ogre@@QAE@ABV?$basic_string@DU?$char_traits@D@std@@V?$allocator@D@2@@std@@@Z
        330  149 00014623 ??0GeometryBucket@InstancedGeometry@Ogre@@QAE@ABV012@@Z
        331  14A 0003FC24 ??0GeometryBucket@InstancedGeometry@Ogre@@QAE@ABV?$basic_string@DU?$char_traits@D@std@@V?$allocator@D@2@@std@@PAVMaterialBucket@12@0PAV012@@Z
        332  14B 00019BCD ??0GeometryBucket@InstancedGeometry@Ogre@@QAE@ABV?$basic_string@DU?$char_traits@D@std@@V?$allocator@D@2@@std@@PAVMaterialBucket@12@0PBVVertexData@2@PBVIndexData@2@@Z
        333  14C 0001E2BD ??0GeometryBucket@InstancedGeometry@Ogre@@QAE@PAVMaterialBucket@12@ABV?$basic_string@DU?$char_traits@D@std@@V?$allocator@D@2@@std@@PAV012@@Z
        334  14D 0003FDDC ??0GeometryBucket@InstancedGeometry@Ogre@@QAE@PAVMaterialBucket@12@ABV?$basic_string@DU?$char_traits@D@std@@V?$allocator@D@2@@std@@PBVVertexData@2@PBVIndexData@2@@Z
        335  14E 000132C8 ??0GeometryBucket@StaticGeometry@Ogre@@QAE@ABV012@@Z
        336  14F 0003C08D ??0GeometryBucket@StaticGeometry@Ogre@@QAE@PAVMaterialBucket@12@ABV?$basic_string@DU?$char_traits@D@std@@V?$allocator@D@2@@std@@PBVVertexData@2@PBVIndexData@2@@Z
        337  150 00037330 ??0GpuConstantDefinition@Ogre@@QAE@XZ
        338  151 0003BA7F ??0GpuLogicalBufferStruct@Ogre@@QAE@XZ
        339  152 0002F842 ??0GpuLogicalIndexUse@Ogre@@QAE@IIG@Z
        340  153 00018CB9 ??0GpuLogicalIndexUse@Ogre@@QAE@XZ
        341  154 00003111 ??0GpuNamedConstants@Ogre@@QAE@ABU01@@Z
        342  155 0003EF22 ??0GpuNamedConstants@Ogre@@QAE@XZ
        343  156 0003AB52 ??0GpuNamedConstantsSerializer@Ogre@@QAE@ABV01@@Z
        344  157 0000B47E ??0GpuNamedConstantsSerializer@Ogre@@QAE@XZ
        345  158 0000727A ??0GpuProgram@Ogre@@QAE@PAVResourceManager@1@ABV?$basic_string@DU?$char_traits@D@std@@V?$allocator@D@2@@std@@_K1_NPAVManualResourceLoader@1@@Z
        346  159 00010802 ??0GpuProgramManager@Ogre@@QAE@XZ
        347  15A 000136C4 ??0GpuProgramParameters@Ogre@@QAE@ABV01@@Z
        348  15B 000105A0 ??0GpuProgramParameters@Ogre@@QAE@XZ
        349  15C 0001E7CC ??0GpuProgramTranslator@Ogre@@QAE@ABV01@@Z
        350  15D 000036B6 ??0GpuProgramTranslator@Ogre@@QAE@XZ
        351  15E 0000BB31 ??0GpuProgramUsage@Ogre@@QAE@ABV01@@Z
        352  15F 00023038 ??0GpuProgramUsage@Ogre@@QAE@ABV01@PAVPass@1@@Z
        353  160 00038050 ??0GpuProgramUsage@Ogre@@QAE@W4GpuProgramType@1@PAVPass@1@@Z
        354  161 0002DD26 ??0GpuSharedParameters@Ogre@@QAE@ABV01@@Z
        355  162 0001F2BC ??0GpuSharedParameters@Ogre@@QAE@ABV?$basic_string@DU?$char_traits@D@std@@V?$allocator@D@2@@std@@@Z
        356  163 0002B62A ??0GpuSharedParametersUsage@Ogre@@QAE@ABV01@@Z
        357  164 0000F2F4 ??0GpuSharedParametersUsage@Ogre@@QAE@V?$SharedPtr@VGpuSharedParameters@Ogre@@@1@PAVGpuProgramParameters@1@@Z
        358  165 00016FC7 ??0HardwareBuffer@Ogre@@QAE@ABV01@@Z
        359  166 000284C5 ??0HardwareBuffer@Ogre@@QAE@W4Usage@01@_N1@Z
        360  167 00025BE4 ??0HardwareBufferLicensee@Ogre@@QAE@ABV01@@Z
        361  168 00008D82 ??0HardwareBufferLicensee@Ogre@@QAE@XZ
        362  169 0002B57B ??0HardwareBufferManager@Ogre@@QAE@PAVHardwareBufferManagerBase@1@@Z
        363  16A 0001CD14 ??0HardwareBufferManagerBase@Ogre@@QAE@XZ
        364  16B 00003873 ??0HardwareCounterBuffer@Ogre@@QAE@ABV01@@Z
        365  16C 00027B9C ??0HardwareCounterBuffer@Ogre@@QAE@PAVHardwareBufferManagerBase@1@IW4Usage@HardwareBuffer@1@_NABV?$basic_string@DU?$char_traits@D@std@@V?$allocator@D@2@@std@@@Z
        366  16D 00021292 ??0HardwareCounterBufferSharedPtr@Ogre@@QAE@ABV01@@Z
        367  16E 000059AC ??0HardwareCounterBufferSharedPtr@Ogre@@QAE@PAVHardwareCounterBuffer@1@@Z
        368  16F 00015488 ??0HardwareCounterBufferSharedPtr@Ogre@@QAE@XZ
        369  170 00003440 ??0HardwareIndexBuffer@Ogre@@QAE@ABV01@@Z
        370  171 0001C030 ??0HardwareIndexBuffer@Ogre@@QAE@PAVHardwareBufferManagerBase@1@W4IndexType@01@IW4Usage@HardwareBuffer@1@_N3@Z
        371  172 00029D70 ??0HardwareIndexBufferSharedPtr@Ogre@@QAE@ABV01@@Z
        372  173 0002CE85 ??0HardwareIndexBufferSharedPtr@Ogre@@QAE@PAVHardwareIndexBuffer@1@@Z
        373  174 000332E9 ??0HardwareIndexBufferSharedPtr@Ogre@@QAE@XZ
        374  175 0002DE2F ??0HardwareOcclusionQuery@Ogre@@QAE@ABV01@@Z
        375  176 00014335 ??0HardwareOcclusionQuery@Ogre@@QAE@XZ
        376  177 00010D57 ??0HardwarePixelBuffer@Ogre@@QAE@ABV01@@Z
        377  178 000270FC ??0HardwarePixelBuffer@Ogre@@QAE@IIIW4PixelFormat@1@W4Usage@HardwareBuffer@1@_N2@Z
        378  179 00032B41 ??0HardwarePixelBufferSharedPtr@Ogre@@QAE@ABV01@@Z
        379  17A 00022A7F ??0HardwarePixelBufferSharedPtr@Ogre@@QAE@PAVHardwarePixelBuffer@1@@Z
        380  17B 00037B69 ??0HardwarePixelBufferSharedPtr@Ogre@@QAE@XZ
        381  17C 00024D02 ??0HardwareUniformBuffer@Ogre@@QAE@ABV01@@Z
        382  17D 0003FA4E ??0HardwareUniformBuffer@Ogre@@QAE@PAVHardwareBufferManagerBase@1@IW4Usage@HardwareBuffer@1@_NABV?$basic_string@DU?$char_traits@D@std@@V?$allocator@D@2@@std@@@Z
        383  17E 00007C3E ??0HardwareUniformBufferSharedPtr@Ogre@@QAE@ABV01@@Z
        384  17F 00002D88 ??0HardwareUniformBufferSharedPtr@Ogre@@QAE@PAVHardwareUniformBuffer@1@@Z
        385  180 0003A166 ??0HardwareUniformBufferSharedPtr@Ogre@@QAE@XZ
        386  181 0001B423 ??0HardwareVertexBuffer@Ogre@@QAE@ABV01@@Z
        387  182 0000696F ??0HardwareVertexBuffer@Ogre@@QAE@PAVHardwareBufferManagerBase@1@IIW4Usage@HardwareBuffer@1@_N2@Z
        388  183 00024578 ??0HardwareVertexBufferSharedPtr@Ogre@@QAE@ABV01@@Z
        389  184 000084B3 ??0HardwareVertexBufferSharedPtr@Ogre@@QAE@PAVHardwareVertexBuffer@1@@Z
        390  185 00016C34 ??0HardwareVertexBufferSharedPtr@Ogre@@QAE@XZ
        391  186 00034D83 ??0HighLevelGpuProgram@Ogre@@QAE@PAVResourceManager@1@ABV?$basic_string@DU?$char_traits@D@std@@V?$allocator@D@2@@std@@_K1_NPAVManualResourceLoader@1@@Z
        392  187 00037C77 ??0HighLevelGpuProgramFactory@Ogre@@QAE@ABV01@@Z
        393  188 0000760D ??0HighLevelGpuProgramFactory@Ogre@@QAE@XZ
        394  189 0002092D ??0HighLevelGpuProgramManager@Ogre@@QAE@XZ
        395  18A 0002E613 ??0IOException@Ogre@@QAE@ABV01@@Z
        396  18B 00005F2E ??0IOException@Ogre@@QAE@HABV?$basic_string@DU?$char_traits@D@std@@V?$allocator@D@2@@std@@0PBDJ@Z
        397  18C 0000D94A ??0Image@Ogre@@QAE@ABV01@@Z
        398  18D 00029A78 ??0Image@Ogre@@QAE@XZ
        399  18E 0001386D ??0ImageCodec@Ogre@@QAE@ABV01@@Z
        400  18F 0000787E ??0ImageCodec@Ogre@@QAE@XZ
        401  190 00034829 ??0ImportAbstractNode@Ogre@@QAE@ABV01@@Z
        402  191 0003470C ??0ImportAbstractNode@Ogre@@QAE@XZ
        403  192 000074C3 ??0IndexData@Ogre@@QAE@XZ
        404  193 00013B1F ??0InstanceBatch@Ogre@@QAE@ABV01@@Z
        405  194 000050DD ??0InstanceBatch@Ogre@@QAE@PAVInstanceManager@1@AAV?$SharedPtr@VMesh@Ogre@@@1@ABV?$SharedPtr@VMaterial@Ogre@@@1@IPBV?$vector@GV?$STLAllocator@GV?$CategorisedAllocPolicy@$0A@@Ogre@@@Ogre@@@std@@ABV?$basic_string@DU?$char_traits@D@std@@V?$allocator@D@2@@6@@Z
        406  195 0003C173 ??0InstanceBatchHW@Ogre@@QAE@ABV01@@Z
        407  196 00037D03 ??0InstanceBatchHW@Ogre@@QAE@PAVInstanceManager@1@AAV?$SharedPtr@VMesh@Ogre@@@1@ABV?$SharedPtr@VMaterial@Ogre@@@1@IPBV?$vector@GV?$STLAllocator@GV?$CategorisedAllocPolicy@$0A@@Ogre@@@Ogre@@@std@@ABV?$basic_string@DU?$char_traits@D@std@@V?$allocator@D@2@@6@@Z
        408  197 0003951D ??0InstanceBatchHW_VTF@Ogre@@QAE@ABV01@@Z
        409  198 0001F9B0 ??0InstanceBatchHW_VTF@Ogre@@QAE@PAVInstanceManager@1@AAV?$SharedPtr@VMesh@Ogre@@@1@ABV?$SharedPtr@VMaterial@Ogre@@@1@IPBV?$vector@GV?$STLAllocator@GV?$CategorisedAllocPolicy@$0A@@Ogre@@@Ogre@@@std@@ABV?$basic_string@DU?$char_traits@D@std@@V?$allocator@D@2@@6@@Z
        410  199 00032AE2 ??0InstanceBatchShader@Ogre@@QAE@ABV01@@Z
        411  19A 00006122 ??0InstanceBatchShader@Ogre@@QAE@PAVInstanceManager@1@AAV?$SharedPtr@VMesh@Ogre@@@1@ABV?$SharedPtr@VMaterial@Ogre@@@1@IPBV?$vector@GV?$STLAllocator@GV?$CategorisedAllocPolicy@$0A@@Ogre@@@Ogre@@@std@@ABV?$basic_string@DU?$char_traits@D@std@@V?$allocator@D@2@@6@@Z
        412  19B 0001F8CA ??0InstanceBatchVTF@Ogre@@QAE@ABV01@@Z
        413  19C 00001D61 ??0InstanceBatchVTF@Ogre@@QAE@PAVInstanceManager@1@AAV?$SharedPtr@VMesh@Ogre@@@1@ABV?$SharedPtr@VMaterial@Ogre@@@1@IPBV?$vector@GV?$STLAllocator@GV?$CategorisedAllocPolicy@$0A@@Ogre@@@Ogre@@@std@@ABV?$basic_string@DU?$char_traits@D@std@@V?$allocator@D@2@@6@@Z
        414  19D 0003E5D1 ??0InstanceManager@Ogre@@QAE@ABV01@@Z
        415  19E 0003EAB3 ??0InstanceManager@Ogre@@QAE@ABV?$basic_string@DU?$char_traits@D@std@@V?$allocator@D@2@@std@@PAVSceneManager@1@00W4InstancingTechnique@01@GIG_N@Z
        416  19F 00031B60 ??0InstancedEntity@Ogre@@QAE@ABV01@@Z
        417  1A0 0000B9BF ??0InstancedEntity@Ogre@@QAE@PAVInstanceBatch@1@IPAV01@@Z
        418  1A1 00036228 ??0InstancedGeometry@Ogre@@QAE@ABV01@@Z
        419  1A2 00023803 ??0InstancedGeometry@Ogre@@QAE@PAVSceneManager@1@ABV?$basic_string@DU?$char_traits@D@std@@V?$allocator@D@2@@std@@@Z
        420  1A3 00012DC8 ??0InstancedObject@InstancedGeometry@Ogre@@QAE@ABV012@@Z
        421  1A4 000042B9 ??0InstancedObject@InstancedGeometry@Ogre@@QAE@G@Z
        422  1A5 0002C0C5 ??0InstancedObject@InstancedGeometry@Ogre@@QAE@GPAVSkeletonInstance@2@PAVAnimationStateSet@2@@Z
        423  1A6 0002B03A ??0InterlockedCompareExchange64Wrapper@Ogre@@QAE@XZ
        424  1A7 00007A04 ??0InternalErrorException@Ogre@@QAE@ABV01@@Z
        425  1A8 00020DD3 ??0InternalErrorException@Ogre@@QAE@HABV?$basic_string@DU?$char_traits@D@std@@V?$allocator@D@2@@std@@0PBDJ@Z
        426  1A9 00006979 ??0IntersectionSceneQuery@Ogre@@QAE@ABV01@@Z
        427  1AA 0001F4C9 ??0IntersectionSceneQuery@Ogre@@QAE@PAVSceneManager@1@@Z
        428  1AB 0000981D ??0IntersectionSceneQueryListener@Ogre@@QAE@ABV01@@Z
        429  1AC 00036ECB ??0IntersectionSceneQueryListener@Ogre@@QAE@XZ
        430  1AD 0001C03F ??0IntersectionSceneQueryResult@Ogre@@QAE@ABU01@@Z
        431  1AE 00004129 ??0IntersectionSceneQueryResult@Ogre@@QAE@XZ
        432  1AF 0003B3A9 ??0InvalidCallException@Ogre@@QAE@ABV01@@Z
        433  1B0 0002C043 ??0InvalidCallException@Ogre@@QAE@HABV?$basic_string@DU?$char_traits@D@std@@V?$allocator@D@2@@std@@0PBDJ@Z
        434  1B1 0003FB5C ??0InvalidParametersException@Ogre@@QAE@ABV01@@Z
        435  1B2 00012DE6 ??0InvalidParametersException@Ogre@@QAE@HABV?$basic_string@DU?$char_traits@D@std@@V?$allocator@D@2@@std@@0PBDJ@Z
        436  1B3 00002F3B ??0InvalidStateException@Ogre@@QAE@ABV01@@Z
        437  1B4 00036CA0 ??0InvalidStateException@Ogre@@QAE@HABV?$basic_string@DU?$char_traits@D@std@@V?$allocator@D@2@@std@@0PBDJ@Z
        438  1B5 00036BDD ??0ItemIdentityException@Ogre@@QAE@ABV01@@Z
        439  1B6 00026896 ??0ItemIdentityException@Ogre@@QAE@HABV?$basic_string@DU?$char_traits@D@std@@V?$allocator@D@2@@std@@0PBDJ@Z
        440  1B7 00033EA1 ??0KeyFrame@Ogre@@QAE@ABV01@@Z
        441  1B8 0001E7E5 ??0KeyFrame@Ogre@@QAE@PBVAnimationTrack@1@M@Z
        442  1B9 000146BE ??0LODBucket@InstancedGeometry@Ogre@@QAE@ABV012@@Z
        443  1BA 0000272F ??0LODBucket@InstancedGeometry@Ogre@@QAE@PAVBatchInstance@12@GM@Z
        444  1BB 00033F87 ??0LODBucket@StaticGeometry@Ogre@@QAE@ABV012@@Z
        445  1BC 00008413 ??0LODBucket@StaticGeometry@Ogre@@QAE@PAVRegion@12@GM@Z
        446  1BD 0003A87D ??0LODShadowRenderable@LODBucket@StaticGeometry@Ogre@@QAE@ABV0123@@Z
        447  1BE 0003A080 ??0LODShadowRenderable@LODBucket@StaticGeometry@Ogre@@QAE@PAV123@PAVHardwareIndexBufferSharedPtr@3@PBVVertexData@3@_N3@Z
        448  1BF 00022E12 ??0LayerBlendModeEx@Ogre@@QAE@XZ
        449  1C0 0003D5C8 ??0LiSPSMShadowCameraSetup@Ogre@@QAE@ABV01@@Z
        450  1C1 0000D7EC ??0LiSPSMShadowCameraSetup@Ogre@@QAE@XZ
        451  1C2 0000F56F ??0Light@Ogre@@QAE@ABV01@@Z
        452  1C3 00038F87 ??0Light@Ogre@@QAE@ABV?$basic_string@DU?$char_traits@D@std@@V?$allocator@D@2@@std@@@Z
        453  1C4 0003ADA5 ??0Light@Ogre@@QAE@XZ
        454  1C5 00025F40 ??0LightFactory@Ogre@@QAE@ABV01@@Z
        455  1C6 0002A0EF ??0LightFactory@Ogre@@QAE@XZ
        456  1C7 00012D00 ??0LightInfo@SceneManager@Ogre@@QAE@XZ
        457  1C8 00008332 ??0LightweightMutex@Ogre@@QAE@XZ
        458  1C9 0001E925 ??0LinearControllerFunction@Ogre@@QAE@ABV01@@Z
        459  1CA 00034644 ??0LinearControllerFunction@Ogre@@QAE@ABV?$vector@MV?$allocator@M@std@@@std@@0M_N@Z
        460  1CB 00002CED ??0Listener@AnimationTrack@Ogre@@QAE@ABV012@@Z
        461  1CC 00038F1E ??0Listener@AnimationTrack@Ogre@@QAE@XZ
        462  1CD 000067A8 ??0Listener@Camera@Ogre@@QAE@ABV012@@Z
        463  1CE 00007284 ??0Listener@Camera@Ogre@@QAE@XZ
        464  1CF 0000556F ??0Listener@CompositorInstance@Ogre@@QAE@ABV012@@Z
        465  1D0 00008166 ??0Listener@CompositorInstance@Ogre@@QAE@XZ
        466  1D1 00001FF5 ??0Listener@MovableObject@Ogre@@QAE@ABV012@@Z
        467  1D2 00012E1D ??0Listener@MovableObject@Ogre@@QAE@XZ
        468  1D3 0001D787 ??0Listener@Node@Ogre@@QAE@ABV012@@Z
        469  1D4 000299AB ??0Listener@Node@Ogre@@QAE@XZ
        470  1D5 0002243A ??0Listener@RenderSystem@Ogre@@QAE@ABV012@@Z
        471  1D6 00035F62 ??0Listener@RenderSystem@Ogre@@QAE@XZ
        472  1D7 00031BAB ??0Listener@ResourceBackgroundQueue@Ogre@@QAE@ABV012@@Z
        473  1D8 0003E793 ??0Listener@ResourceBackgroundQueue@Ogre@@QAE@XZ
        474  1D9 0003D7B7 ??0Listener@Viewport@Ogre@@QAE@ABV012@@Z
        475  1DA 00013809 ??0Listener@Viewport@Ogre@@QAE@XZ
        476  1DB 00004BD3 ??0LodListener@Ogre@@QAE@ABV01@@Z
        477  1DC 0000FF56 ??0LodListener@Ogre@@QAE@XZ
        478  1DD 00019B14 ??0LodStrategy@Ogre@@QAE@ABV01@@Z
        479  1DE 00013804 ??0LodStrategy@Ogre@@QAE@ABV?$basic_string@DU?$char_traits@D@std@@V?$allocator@D@2@@std@@@Z
        480  1DF 0003527E ??0LodStrategyManager@Ogre@@QAE@XZ
        481  1E0 0001764D ??0Log@Ogre@@QAE@ABV?$basic_string@DU?$char_traits@D@std@@V?$allocator@D@2@@std@@_N1@Z
        482  1E1 00011491 ??0LogManager@Ogre@@QAE@XZ
        483  1E2 0003F602 ??0ManualObject@Ogre@@QAE@ABV01@@Z
        484  1E3 0000E48A ??0ManualObject@Ogre@@QAE@ABV?$basic_string@DU?$char_traits@D@std@@V?$allocator@D@2@@std@@@Z
        485  1E4 00013610 ??0ManualObjectFactory@Ogre@@QAE@ABV01@@Z
        486  1E5 00028E7A ??0ManualObjectFactory@Ogre@@QAE@XZ
        487  1E6 00019D58 ??0ManualObjectSection@ManualObject@Ogre@@QAE@ABV012@@Z
        488  1E7 00018011 ??0ManualObjectSection@ManualObject@Ogre@@QAE@PAV12@ABV?$basic_string@DU?$char_traits@D@std@@V?$allocator@D@2@@std@@W4OperationType@RenderOperation@2@1@Z
        489  1E8 00009DC7 ??0ManualObjectSectionShadowRenderable@ManualObject@Ogre@@QAE@ABV012@@Z
        490  1E9 00023849 ??0ManualObjectSectionShadowRenderable@ManualObject@Ogre@@QAE@PAV12@PAVHardwareIndexBufferSharedPtr@2@PBVVertexData@2@_N3@Z
        491  1EA 00035076 ??0ManualResourceLoader@Ogre@@QAE@ABV01@@Z
        492  1EB 0002C476 ??0ManualResourceLoader@Ogre@@QAE@XZ
        493  1EC 00015456 ??0Material@Ogre@@QAE@PAVResourceManager@1@ABV?$basic_string@DU?$char_traits@D@std@@V?$allocator@D@2@@std@@_K1_NPAVManualResourceLoader@1@@Z
        494  1ED 00022CF0 ??0MaterialBucket@InstancedGeometry@Ogre@@QAE@ABV012@@Z
        495  1EE 00033118 ??0MaterialBucket@InstancedGeometry@Ogre@@QAE@PAVLODBucket@12@ABV?$basic_string@DU?$char_traits@D@std@@V?$allocator@D@2@@std@@@Z
        496  1EF 0003FE2C ??0MaterialBucket@StaticGeometry@Ogre@@QAE@ABV012@@Z
        497  1F0 0000DFCB ??0MaterialBucket@StaticGeometry@Ogre@@QAE@PAVLODBucket@12@ABV?$basic_string@DU?$char_traits@D@std@@V?$allocator@D@2@@std@@@Z
        498  1F1 00024767 ??0MaterialManager@Ogre@@QAE@XZ
        499  1F2 0000611D ??0MaterialSerializer@Ogre@@QAE@ABV01@@Z
        500  1F3 0000B9C9 ??0MaterialSerializer@Ogre@@QAE@XZ
        501  1F4 0001DD45 ??0MaterialTranslator@Ogre@@QAE@ABV01@@Z
        502  1F5 0002345C ??0MaterialTranslator@Ogre@@QAE@XZ
        503  1F6 00012756 ??0Math@Ogre@@QAE@I@Z
        504  1F7 000040E8 ??0Matrix3@Ogre@@QAE@ABV01@@Z
        505  1F8 000217BA ??0Matrix3@Ogre@@QAE@MMMMMMMMM@Z
        506  1F9 0000D4D6 ??0Matrix3@Ogre@@QAE@QAY02$$CBM@Z
        507  1FA 0000B62C ??0Matrix3@Ogre@@QAE@XZ
        508  1FB 0000433B ??0Matrix4@Ogre@@QAE@ABVMatrix3@1@@Z
        509  1FC 000219EF ??0Matrix4@Ogre@@QAE@ABVQuaternion@1@@Z
        510  1FD 0000D341 ??0Matrix4@Ogre@@QAE@MMMMMMMMMMMMMMMM@Z
        511  1FE 0000BFAF ??0Matrix4@Ogre@@QAE@XZ
        512  1FF 000176BB ??0MemoryDataStream@Ogre@@QAE@AAV?$SharedPtr@VDataStream@Ogre@@@1@_N1@Z
        513  200 00006857 ??0MemoryDataStream@Ogre@@QAE@AAVDataStream@1@_N1@Z
        514  201 000232CC ??0MemoryDataStream@Ogre@@QAE@ABV01@@Z
        515  202 000097E1 ??0MemoryDataStream@Ogre@@QAE@ABV?$basic_string@DU?$char_traits@D@std@@V?$allocator@D@2@@std@@AAVDataStream@1@_N2@Z
        516  203 00023D7B ??0MemoryDataStream@Ogre@@QAE@ABV?$basic_string@DU?$char_traits@D@std@@V?$allocator@D@2@@std@@ABV?$SharedPtr@VDataStream@Ogre@@@1@_N2@Z
        517  204 0003B8E0 ??0MemoryDataStream@Ogre@@QAE@ABV?$basic_string@DU?$char_traits@D@std@@V?$allocator@D@2@@std@@I_N1@Z
        518  205 0000E1FB ??0MemoryDataStream@Ogre@@QAE@ABV?$basic_string@DU?$char_traits@D@std@@V?$allocator@D@2@@std@@PAXI_N2@Z
        519  206 00010A37 ??0MemoryDataStream@Ogre@@QAE@I_N0@Z
        520  207 00030850 ??0MemoryDataStream@Ogre@@QAE@PAXI_N1@Z
        521  208 0001AB40 ??0Mesh@Ogre@@QAE@PAVResourceManager@1@ABV?$basic_string@DU?$char_traits@D@std@@V?$allocator@D@2@@std@@_K1_NPAVManualResourceLoader@1@@Z
        522  209 0001C3FA ??0MeshManager@Ogre@@QAE@XZ
        523  20A 00015578 ??0MeshSerializer@Ogre@@QAE@ABV01@@Z
        524  20B 00021DE1 ??0MeshSerializer@Ogre@@QAE@XZ
        525  20C 000187E1 ??0MovableObject@Ogre@@QAE@ABV01@@Z
        526  20D 0000F1DC ??0MovableObject@Ogre@@QAE@ABV?$basic_string@DU?$char_traits@D@std@@V?$allocator@D@2@@std@@@Z
        527  20E 000110F4 ??0MovableObject@Ogre@@QAE@XZ
        528  20F 0000902F ??0MovableObjectFactory@Ogre@@QAE@ABV01@@Z
        529  210 000180FC ??0MovableObjectFactory@Ogre@@QAE@XZ
        530  211 0003C830 ??0MovablePlane@Ogre@@QAE@ABV01@@Z
        531  212 00023254 ??0MovablePlane@Ogre@@QAE@ABV?$basic_string@DU?$char_traits@D@std@@V?$allocator@D@2@@std@@@Z
        532  213 000097E6 ??0MovablePlane@Ogre@@QAE@ABVPlane@1@@Z
        533  214 000112C0 ??0MovablePlane@Ogre@@QAE@ABVVector3@1@00@Z
        534  215 00004CB4 ??0MovablePlane@Ogre@@QAE@ABVVector3@1@0@Z
        535  216 00004B92 ??0MovablePlane@Ogre@@QAE@ABVVector3@1@M@Z
        536  217 000308A0 ??0MultiRenderTarget@Ogre@@QAE@ABV01@@Z
        537  218 00029F28 ??0MultiRenderTarget@Ogre@@QAE@ABV?$basic_string@DU?$char_traits@D@std@@V?$allocator@D@2@@std@@@Z
        538  219 00008F7B ??0NameGenerator@Ogre@@QAE@ABV01@@Z
        539  21A 0001E060 ??0NameGenerator@Ogre@@QAE@ABV?$basic_string@DU?$char_traits@D@std@@V?$allocator@D@2@@std@@@Z
        540  21B 0002F540 ??0Node@Ogre@@QAE@ABV01@@Z
        541  21C 00006DFC ??0Node@Ogre@@QAE@ABV?$basic_string@DU?$char_traits@D@std@@V?$allocator@D@2@@std@@@Z
        542  21D 000185B1 ??0Node@Ogre@@QAE@XZ
        543  21E 000032FB ??0NodeAnimationTrack@Ogre@@QAE@ABV01@@Z
        544  21F 00032C90 ??0NodeAnimationTrack@Ogre@@QAE@PAVAnimation@1@G@Z
        545  220 000231C8 ??0NodeAnimationTrack@Ogre@@QAE@PAVAnimation@1@GPAVNode@1@@Z
        546  221 00003EBD ??0NumericAnimationTrack@Ogre@@QAE@ABV01@@Z
        547  222 0003DA41 ??0NumericAnimationTrack@Ogre@@QAE@PAVAnimation@1@G@Z
        548  223 0001061D ??0NumericAnimationTrack@Ogre@@QAE@PAVAnimation@1@GAAV?$SharedPtr@VAnimableValue@Ogre@@@1@@Z
        549  224 0002BC29 ??0NumericKeyFrame@Ogre@@QAE@ABV01@@Z
        550  225 0003F206 ??0NumericKeyFrame@Ogre@@QAE@PBVAnimationTrack@1@M@Z
        551  226 00002AD6 ??0ObjectAbstractNode@Ogre@@QAE@ABV01@@Z
        552  227 00007FD6 ??0ObjectAbstractNode@Ogre@@QAE@PAVAbstractNode@1@@Z
        553  228 0000AF0B ??0OptimisedUtil@Ogre@@QAE@XZ
        554  229 0003DE06 ??0PSSMShadowCameraSetup@Ogre@@QAE@ABV01@@Z
        555  22A 00033E5B ??0PSSMShadowCameraSetup@Ogre@@QAE@XZ
        556  22B 00019AD8 ??0ParamCommand@Ogre@@QAE@ABV01@@Z
        557  22C 0002D029 ??0ParamCommand@Ogre@@QAE@XZ
        558  22D 00007F40 ??0ParamDictionary@Ogre@@QAE@ABV01@@Z
        559  22E 0001F532 ??0ParamDictionary@Ogre@@QAE@XZ
        560  22F 0001B75C ??0ParameterDef@Ogre@@QAE@ABV01@@Z
        561  230 000217AB ??0ParameterDef@Ogre@@QAE@ABV?$basic_string@DU?$char_traits@D@std@@V?$allocator@D@2@@std@@0W4ParameterType@1@@Z
        562  231 00037E39 ??0Particle@Ogre@@QAE@XZ
        563  232 0003F882 ??0ParticleAffector@Ogre@@QAE@ABV01@@Z
        564  233 0003A6D9 ??0ParticleAffector@Ogre@@QAE@PAVParticleSystem@1@@Z
        565  234 00024235 ??0ParticleAffectorFactory@Ogre@@QAE@ABV01@@Z
        566  235 0000F50B ??0ParticleAffectorFactory@Ogre@@QAE@XZ
        567  236 00038EBF ??0ParticleAffectorTranslator@Ogre@@QAE@ABV01@@Z
        568  237 00019B6E ??0ParticleAffectorTranslator@Ogre@@QAE@XZ
        569  238 0002B85A ??0ParticleEmitter@Ogre@@QAE@ABV01@@Z
        570  239 000349F5 ??0ParticleEmitter@Ogre@@QAE@PAVParticleSystem@1@@Z
        571  23A 0000D846 ??0ParticleEmitterFactory@Ogre@@QAE@ABV01@@Z
        572  23B 00002388 ??0ParticleEmitterFactory@Ogre@@QAE@XZ
        573  23C 0001F6FE ??0ParticleEmitterTranslator@Ogre@@QAE@ABV01@@Z
        574  23D 00005579 ??0ParticleEmitterTranslator@Ogre@@QAE@XZ
        575  23E 0000B6A4 ??0ParticleIterator@Ogre@@IAE@V?$_List_iterator@V?$_List_val@U?$_List_simple_types@PAVParticle@Ogre@@@std@@@std@@@std@@0@Z
        576  23F 00010226 ??0ParticleSystem@Ogre@@QAE@ABV01@@Z
        577  240 00035DBE ??0ParticleSystem@Ogre@@QAE@ABV?$basic_string@DU?$char_traits@D@std@@V?$allocator@D@2@@std@@0@Z
        578  241 00004E2B ??0ParticleSystem@Ogre@@QAE@XZ
        579  242 000199CA ??0ParticleSystemFactory@Ogre@@QAE@ABV01@@Z
        580  243 00034586 ??0ParticleSystemFactory@Ogre@@QAE@XZ
        581  244 00023033 ??0ParticleSystemManager@Ogre@@QAE@XZ
        582  245 00023EC0 ??0ParticleSystemRenderer@Ogre@@QAE@ABV01@@Z
        583  246 00038906 ??0ParticleSystemRenderer@Ogre@@QAE@XZ
        584  247 00014D94 ??0ParticleSystemRendererFactory@Ogre@@QAE@ABV01@@Z
        585  248 0003A233 ??0ParticleSystemRendererFactory@Ogre@@QAE@XZ
        586  249 00024BE0 ??0ParticleSystemTranslator@Ogre@@QAE@ABV01@@Z
        587  24A 0001BF18 ??0ParticleSystemTranslator@Ogre@@QAE@XZ
        588  24B 0000D08F ??0ParticleVisualData@Ogre@@QAE@ABV01@@Z
        589  24C 0000FD99 ??0ParticleVisualData@Ogre@@QAE@XZ
        590  24D 0002B77E ??0Pass@Ogre@@QAE@PAVTechnique@1@G@Z
        591  24E 0000B69F ??0Pass@Ogre@@QAE@PAVTechnique@1@GABV01@@Z
        592  24F 0001A316 ??0PassTranslator@Ogre@@QAE@ABV01@@Z
        593  250 00006244 ??0PassTranslator@Ogre@@QAE@XZ
        594  251 0000560F ??0PassthroughControllerFunction@Ogre@@QAE@ABV01@@Z
        595  252 00020608 ??0PassthroughControllerFunction@Ogre@@QAE@_N@Z
        596  253 0001C09E ??0PatchMesh@Ogre@@QAE@PAVResourceManager@1@ABV?$basic_string@DU?$char_traits@D@std@@V?$allocator@D@2@@std@@_K1@Z
        597  254 00031985 ??0PatchSurface@Ogre@@QAE@ABV01@@Z
        598  255 0002EFF5 ??0PatchSurface@Ogre@@QAE@XZ
        599  256 00023A3D ??0PixelBox@Ogre@@QAE@ABUBox@1@W4PixelFormat@1@PAX@Z
        600  257 0002A7ED ??0PixelBox@Ogre@@QAE@IIIW4PixelFormat@1@PAX@Z
        601  258 00008102 ??0PixelBox@Ogre@@QAE@XZ
        602  259 000039E0 ??0PixelCountLodStrategyBase@Ogre@@QAE@ABV01@@Z
        603  25A 0003731C ??0PixelCountLodStrategyBase@Ogre@@QAE@ABV?$basic_string@DU?$char_traits@D@std@@V?$allocator@D@2@@std@@@Z
        604  25B 00021170 ??0Plane@Ogre@@QAE@ABV01@@Z
        605  25C 00035FB2 ??0Plane@Ogre@@QAE@ABVVector3@1@00@Z
        606  25D 00013917 ??0Plane@Ogre@@QAE@ABVVector3@1@0@Z
        607  25E 000136BF ??0Plane@Ogre@@QAE@ABVVector3@1@M@Z
        608  25F 00038C08 ??0Plane@Ogre@@QAE@MMMM@Z
        609  260 000118BA ??0Plane@Ogre@@QAE@XZ
        610  261 0000F98E ??0PlaneBoundedVolume@Ogre@@QAE@ABV01@@Z
        611  262 0002D902 ??0PlaneBoundedVolume@Ogre@@QAE@W4Side@Plane@1@@Z
        612  263 0002FCED ??0PlaneBoundedVolume@Ogre@@QAE@XZ
        613  264 0002101C ??0PlaneBoundedVolumeListSceneQuery@Ogre@@QAE@ABV01@@Z
        614  265 0000A849 ??0PlaneBoundedVolumeListSceneQuery@Ogre@@QAE@PAVSceneManager@1@@Z
        615  266 0003C759 ??0PlaneOptimalShadowCameraSetup@Ogre@@AAE@XZ
        616  267 00016C98 ??0PlaneOptimalShadowCameraSetup@Ogre@@QAE@ABV01@@Z
        617  268 0002D36C ??0PlaneOptimalShadowCameraSetup@Ogre@@QAE@PAVMovablePlane@1@@Z
        618  269 00018F39 ??0Plugin@Ogre@@QAE@ABV01@@Z
        619  26A 00011F31 ??0Plugin@Ogre@@QAE@XZ
        620  26B 0001DA52 ??0PointListBody@FocusedShadowCameraSetup@Ogre@@QAE@ABV012@@Z
        621  26C 0003333E ??0PointListBody@FocusedShadowCameraSetup@Ogre@@QAE@ABVConvexBody@2@@Z
        622  26D 0000D468 ??0PointListBody@FocusedShadowCameraSetup@Ogre@@QAE@XZ
        623  26E 0001FB68 ??0Polygon@Ogre@@QAE@ABV01@@Z
        624  26F 0002B83C ??0Polygon@Ogre@@QAE@XZ
        625  270 00024FA0 ??0Pose@Ogre@@QAE@ABV01@@Z
        626  271 0001A7EE ??0Pose@Ogre@@QAE@GABV?$basic_string@DU?$char_traits@D@std@@V?$allocator@D@2@@std@@@Z
        627  272 00018EA8 ??0PreApplyTextureAliasesScriptCompilerEvent@Ogre@@QAE@PAVMaterial@1@PAV?$map@V?$basic_string@DU?$char_traits@D@std@@V?$allocator@D@2@@std@@V12@U?$less@V?$basic_string@DU?$char_traits@D@std@@V?$allocator@D@2@@std@@@2@V?$STLAllocator@U?$pair@$$CBV?$basic_string@DU?$char_traits@D@std@@V?$allocator@D@2@@std@@V12@@std@@V?$CategorisedAllocPolicy@$0A@@Ogre@@@Ogre@@@std@@@Z
        628  273 0001CADF ??0ProcessNameExclusionScriptCompilerEvent@Ogre@@QAE@ABV?$basic_string@DU?$char_traits@D@std@@V?$allocator@D@2@@std@@PAVAbstractNode@1@@Z
        629  274 00038A9B ??0ProcessResourceNameScriptCompilerEvent@Ogre@@QAE@W4ResourceType@01@ABV?$basic_string@DU?$char_traits@D@std@@V?$allocator@D@2@@std@@@Z
        630  275 00009DEF ??0Profile@Ogre@@QAE@ABV01@@Z
        631  276 0003E4DC ??0Profile@Ogre@@QAE@ABV?$basic_string@DU?$char_traits@D@std@@V?$allocator@D@2@@std@@I@Z
        632  277 0001FCDF ??0ProfileInstance@Ogre@@QAE@ABV01@@Z
        633  278 0002BD00 ??0ProfileInstance@Ogre@@QAE@XZ
        634  279 00024988 ??0ProfileSessionListener@Ogre@@QAE@ABV01@@Z
        635  27A 0002B323 ??0ProfileSessionListener@Ogre@@QAE@XZ
        636  27B 000167B6 ??0Profiler@Ogre@@QAE@XZ
        637  27C 00007810 ??0PropertyAbstractNode@Ogre@@QAE@ABV01@@Z
        638  27D 00016176 ??0PropertyAbstractNode@Ogre@@QAE@PAVAbstractNode@1@@Z
        639  27E 0002BFC1 ??0Quaternion@Ogre@@QAE@ABVMatrix3@1@@Z
        640  27F 0002B6CA ??0Quaternion@Ogre@@QAE@ABVRadian@1@ABVVector3@1@@Z
        641  280 0002171F ??0Quaternion@Ogre@@QAE@ABVVector3@1@00@Z
        642  281 0002F8BA ??0Quaternion@Ogre@@QAE@MMMM@Z
        643  282 00032B82 ??0Quaternion@Ogre@@QAE@PAM@Z
        644  283 00022011 ??0Quaternion@Ogre@@QAE@PBVVector3@1@@Z
        645  284 000350DF ??0Quaternion@Ogre@@QAE@XZ
        646  285 000268D2 ??0QueuedRenderableCollection@Ogre@@QAE@ABV01@@Z
        647  286 00030E7C ??0QueuedRenderableCollection@Ogre@@QAE@XZ
        648  287 00006C44 ??0QueuedRenderableVisitor@Ogre@@QAE@ABV01@@Z
        649  288 0002D830 ??0QueuedRenderableVisitor@Ogre@@QAE@XZ
        650  289 0001B6F8 ??0RQListener@CompositorChain@Ogre@@QAE@ABV012@@Z
        651  28A 00035710 ??0RQListener@CompositorChain@Ogre@@QAE@XZ
        652  28B 000091AB ??0Ray@Ogre@@QAE@ABVVector3@1@0@Z
        653  28C 00019CAE ??0Ray@Ogre@@QAE@XZ
        654  28D 00012E4A ??0RaySceneQuery@Ogre@@QAE@ABV01@@Z
        655  28E 000107F3 ??0RaySceneQuery@Ogre@@QAE@PAVSceneManager@1@@Z
        656  28F 00033C49 ??0RaySceneQueryListener@Ogre@@QAE@ABV01@@Z
        657  290 0002F4B4 ??0RaySceneQueryListener@Ogre@@QAE@XZ
        658  291 0002E1AE ??0Rectangle2D@Ogre@@QAE@ABV01@@Z
        659  292 00039013 ??0Rectangle2D@Ogre@@QAE@ABV?$basic_string@DU?$char_traits@D@std@@V?$allocator@D@2@@std@@_NW4Usage@HardwareBuffer@1@@Z
        660  293 00014E7F ??0Rectangle2D@Ogre@@QAE@_NW4Usage@HardwareBuffer@1@@Z
        661  294 00028B55 ??0Region@StaticGeometry@Ogre@@QAE@ABV012@@Z
        662  295 0002766A ??0Region@StaticGeometry@Ogre@@QAE@PAV12@ABV?$basic_string@DU?$char_traits@D@std@@V?$allocator@D@2@@std@@PAVSceneManager@2@IABVVector3@2@@Z
        663  296 0001C9CC ??0RegionSceneQuery@Ogre@@QAE@ABV01@@Z
        664  297 000231A5 ??0RegionSceneQuery@Ogre@@QAE@PAVSceneManager@1@@Z
        665  298 000062B7 ??0RenderObjectListener@Ogre@@QAE@ABV01@@Z
        666  299 000044A8 ??0RenderObjectListener@Ogre@@QAE@XZ
        667  29A 0000A30D ??0RenderPriorityGroup@Ogre@@QAE@ABV01@@Z
        668  29B 0000FEC5 ??0RenderPriorityGroup@Ogre@@QAE@PAVRenderQueueGroup@1@_N11@Z
        669  29C 00030DA5 ??0RenderQueue@Ogre@@QAE@ABV01@@Z
        670  29D 0003288F ??0RenderQueue@Ogre@@QAE@XZ
        671  29E 0002797B ??0RenderQueueGroup@Ogre@@QAE@ABV01@@Z
        672  29F 00034B94 ??0RenderQueueGroup@Ogre@@QAE@PAVRenderQueue@1@_N11@Z
        673  2A0 00026643 ??0RenderQueueInvocation@Ogre@@QAE@ABV01@@Z
        674  2A1 0000ECB4 ??0RenderQueueInvocation@Ogre@@QAE@EABV?$basic_string@DU?$char_traits@D@std@@V?$allocator@D@2@@std@@@Z
        675  2A2 00006FB9 ??0RenderQueueInvocationSequence@Ogre@@QAE@ABV01@@Z
        676  2A3 0002568A ??0RenderQueueInvocationSequence@Ogre@@QAE@ABV?$basic_string@DU?$char_traits@D@std@@V?$allocator@D@2@@std@@@Z
        677  2A4 00014DEE ??0RenderQueueListener@Ogre@@QAE@ABV01@@Z
        678  2A5 0000F6B9 ??0RenderQueueListener@Ogre@@QAE@XZ
        679  2A6 0003CA8D ??0RenderSystem@Ogre@@QAE@ABV01@@Z
        680  2A7 00002559 ??0RenderSystem@Ogre@@QAE@XZ
        681  2A8 000367BE ??0RenderSystemCapabilities@Ogre@@QAE@ABV01@@Z
        682  2A9 0001BC11 ??0RenderSystemCapabilities@Ogre@@QAE@XZ
        683  2AA 00037D7B ??0RenderSystemCapabilitiesManager@Ogre@@QAE@XZ
        684  2AB 0002899D ??0RenderSystemCapabilitiesSerializer@Ogre@@QAE@ABV01@@Z
        685  2AC 00005E2A ??0RenderSystemCapabilitiesSerializer@Ogre@@QAE@XZ
        686  2AD 0001D282 ??0RenderSystemOperation@CompositorInstance@Ogre@@QAE@ABV012@@Z
        687  2AE 00036D90 ??0RenderSystemOperation@CompositorInstance@Ogre@@QAE@XZ
        688  2AF 00014DAD ??0RenderTarget@Ogre@@QAE@ABV01@@Z
        689  2B0 0000C58B ??0RenderTarget@Ogre@@QAE@XZ
        690  2B1 0000B3B6 ??0RenderTargetListener@Ogre@@QAE@ABV01@@Z
        691  2B2 0001F5DC ??0RenderTargetListener@Ogre@@QAE@XZ
        692  2B3 00035E77 ??0RenderTexture@Ogre@@QAE@ABV01@@Z
        693  2B4 0002FEAA ??0RenderTexture@Ogre@@QAE@PAVHardwarePixelBuffer@1@I@Z
        694  2B5 00030517 ??0RenderToVertexBuffer@Ogre@@QAE@ABV01@@Z
        695  2B6 00031052 ??0RenderToVertexBuffer@Ogre@@QAE@XZ
        696  2B7 000175DA ??0RenderWindow@Ogre@@QAE@ABV01@@Z
        697  2B8 00022E9E ??0RenderWindow@Ogre@@QAE@XZ
        698  2B9 000231F5 ??0Renderable@Ogre@@QAE@ABV01@@Z
        699  2BA 0001DD54 ??0Renderable@Ogre@@QAE@XZ
        700  2BB 0003A25B ??0RenderableListener@RenderQueue@Ogre@@QAE@ABV012@@Z
        701  2BC 0000CA04 ??0RenderableListener@RenderQueue@Ogre@@QAE@XZ
        702  2BD 0002D59C ??0RenderingAPIException@Ogre@@QAE@ABV01@@Z
        703  2BE 0002097D ??0RenderingAPIException@Ogre@@QAE@HABV?$basic_string@DU?$char_traits@D@std@@V?$allocator@D@2@@std@@0PBDJ@Z
        704  2BF 00033D8E ??0Request@WorkQueue@Ogre@@QAE@ABV012@@Z
        705  2C0 0003F8D2 ??0Request@WorkQueue@Ogre@@QAE@GGABVAny@2@E_K@Z
        706  2C1 00021D5A ??0RequestHandler@WorkQueue@Ogre@@QAE@ABV012@@Z
        707  2C2 000087DD ??0RequestHandler@WorkQueue@Ogre@@QAE@XZ
        708  2C3 0001412D ??0RequestHandlerHolder@DefaultWorkQueueBase@Ogre@@QAE@PAVRequestHandler@WorkQueue@2@@Z
        709  2C4 00006BD6 ??0Resource@Ogre@@IAE@XZ
        710  2C5 0003C443 ??0Resource@Ogre@@QAE@PAVResourceManager@1@ABV?$basic_string@DU?$char_traits@D@std@@V?$allocator@D@2@@std@@_K1_NPAVManualResourceLoader@1@@Z
        711  2C6 0002A9EB ??0ResourceBackgroundQueue@Ogre@@QAE@XZ
        712  2C7 0001FAD7 ??0ResourceGroupListener@Ogre@@QAE@ABV01@@Z
        713  2C8 00010299 ??0ResourceGroupListener@Ogre@@QAE@XZ
        714  2C9 00030EEF ??0ResourceGroupManager@Ogre@@QAE@XZ
        715  2CA 00031F20 ??0ResourceManager@Ogre@@QAE@XZ
        716  2CB 00024785 ??0ResourcePool@ResourceManager@Ogre@@QAE@ABV?$basic_string@DU?$char_traits@D@std@@V?$allocator@D@2@@std@@@Z
        717  2CC 0002A216 ??0Response@WorkQueue@Ogre@@QAE@ABU012@@Z
        718  2CD 0001C625 ??0Response@WorkQueue@Ogre@@QAE@PBVRequest@12@_NABVAny@2@ABV?$basic_string@DU?$char_traits@D@std@@V?$allocator@D@2@@std@@@Z
        719  2CE 000273F9 ??0ResponseHandler@WorkQueue@Ogre@@QAE@ABV012@@Z
        720  2CF 0003BEE4 ??0ResponseHandler@WorkQueue@Ogre@@QAE@XZ
        721  2D0 00015776 ??0RibbonTrail@Ogre@@QAE@ABV01@@Z
        722  2D1 0002531A ??0RibbonTrail@Ogre@@QAE@ABV?$basic_string@DU?$char_traits@D@std@@V?$allocator@D@2@@std@@II_N1@Z
        723  2D2 0003C7E0 ??0RibbonTrailFactory@Ogre@@QAE@ABV01@@Z
        724  2D3 0001BBFD ??0RibbonTrailFactory@Ogre@@QAE@XZ
        725  2D4 0000BB95 ??0Root@Ogre@@QAE@ABV?$basic_string@DU?$char_traits@D@std@@V?$allocator@D@2@@std@@00@Z
        726  2D5 0001071C ??0RotationalSpline@Ogre@@QAE@ABV01@@Z
        727  2D6 00034112 ??0RotationalSpline@Ogre@@QAE@XZ
        728  2D7 000256C6 ??0RuntimeAssertionException@Ogre@@QAE@ABV01@@Z
        729  2D8 000351AC ??0RuntimeAssertionException@Ogre@@QAE@HABV?$basic_string@DU?$char_traits@D@std@@V?$allocator@D@2@@std@@0PBDJ@Z
        730  2D9 000173D7 ??0ScaleControllerFunction@Ogre@@QAE@ABV01@@Z
        731  2DA 000248D9 ??0ScaleControllerFunction@Ogre@@QAE@M_N@Z
        732  2DB 0001E50B ??0SceneManager@Ogre@@QAE@ABV?$basic_string@DU?$char_traits@D@std@@V?$allocator@D@2@@std@@@Z
        733  2DC 0000773E ??0SceneManagerEnumerator@Ogre@@QAE@XZ
        734  2DD 00025941 ??0SceneManagerFactory@Ogre@@QAE@ABV01@@Z
        735  2DE 0003B255 ??0SceneManagerFactory@Ogre@@QAE@XZ
        736  2DF 00015E7E ??0SceneMgrQueuedRenderableVisitor@SceneManager@Ogre@@QAE@ABV012@@Z
        737  2E0 0002E730 ??0SceneMgrQueuedRenderableVisitor@SceneManager@Ogre@@QAE@XZ
        738  2E1 00008E0E ??0SceneNode@Ogre@@QAE@ABV01@@Z
        739  2E2 0003BC46 ??0SceneNode@Ogre@@QAE@PAVSceneManager@1@@Z
        740  2E3 000143BC ??0SceneNode@Ogre@@QAE@PAVSceneManager@1@ABV?$basic_string@DU?$char_traits@D@std@@V?$allocator@D@2@@std@@@Z
        741  2E4 00018AB1 ??0SceneQuery@Ogre@@QAE@ABV01@@Z
        742  2E5 0003FF03 ??0SceneQuery@Ogre@@QAE@PAVSceneManager@1@@Z
        743  2E6 0002FDE2 ??0SceneQueryListener@Ogre@@QAE@ABV01@@Z
        744  2E7 000203A6 ??0SceneQueryListener@Ogre@@QAE@XZ
        745  2E8 0002AF81 ??0SceneQueryResult@Ogre@@QAE@ABU01@@Z
        746  2E9 0000ED04 ??0SceneQueryResult@Ogre@@QAE@XZ
        747  2EA 0003B520 ??0ScreenRatioPixelCountLodStrategy@Ogre@@QAE@XZ
        748  2EB 00006492 ??0ScriptCompiler@Ogre@@QAE@ABV01@@Z
        749  2EC 000261DE ??0ScriptCompiler@Ogre@@QAE@XZ
        750  2ED 0000CF09 ??0ScriptCompilerListener@Ogre@@QAE@ABV01@@Z
        751  2EE 00012F49 ??0ScriptCompilerListener@Ogre@@QAE@XZ
        752  2EF 00023F10 ??0ScriptCompilerManager@Ogre@@QAE@XZ
        753  2F0 0001FAEB ??0ScriptLexer@Ogre@@QAE@ABV01@@Z
        754  2F1 000172D3 ??0ScriptLexer@Ogre@@QAE@XZ
        755  2F2 00008481 ??0ScriptLoader@Ogre@@QAE@ABV01@@Z
        756  2F3 000154E7 ??0ScriptLoader@Ogre@@QAE@XZ
        757  2F4 0001302A ??0ScriptParser@Ogre@@QAE@ABV01@@Z
        758  2F5 0002C81D ??0ScriptParser@Ogre@@QAE@XZ
        759  2F6 000273A9 ??0ScriptTranslator@Ogre@@QAE@ABV01@@Z
        760  2F7 00002E6E ??0ScriptTranslator@Ogre@@QAE@XZ
        761  2F8 0003ACFB ??0Serializer@Ogre@@QAE@ABV01@@Z
        762  2F9 000119C3 ??0Serializer@Ogre@@QAE@XZ
        763  2FA 00027F9D ??0ShadowCameraSetup@Ogre@@QAE@ABV01@@Z
        764  2FB 00032D85 ??0ShadowCameraSetup@Ogre@@QAE@XZ
        765  2FC 0001971D ??0ShadowCaster@Ogre@@QAE@ABV01@@Z
        766  2FD 0001B9A5 ??0ShadowCaster@Ogre@@QAE@XZ
        767  2FE 00009D86 ??0ShadowCasterSceneQueryListener@SceneManager@Ogre@@QAE@ABV012@@Z
        768  2FF 0003F67F ??0ShadowCasterSceneQueryListener@SceneManager@Ogre@@QAE@PAV12@@Z
        769  300 00025DEC ??0ShadowRenderable@Ogre@@QAE@ABV01@@Z
        770  301 000115E5 ??0ShadowRenderable@Ogre@@QAE@XZ
        771  302 00011883 ??0ShadowTextureManager@Ogre@@QAE@XZ
        772  303 00036750 ??0ShadowVolumeExtrudeProgram@Ogre@@QAE@XZ
        773  304 00004610 ??0SharedParamsTranslator@Ogre@@QAE@ABV01@@Z
        774  305 0002E98D ??0SharedParamsTranslator@Ogre@@QAE@XZ
        775  306 0001A1E0 ??0SimpleRenderable@Ogre@@QAE@ABV01@@Z
        776  307 00007973 ??0SimpleRenderable@Ogre@@QAE@ABV?$basic_string@DU?$char_traits@D@std@@V?$allocator@D@2@@std@@@Z
        777  308 00027976 ??0SimpleRenderable@Ogre@@QAE@XZ
        778  309 00027322 ??0SimpleSpline@Ogre@@QAE@ABV01@@Z
        779  30A 000033F5 ??0SimpleSpline@Ogre@@QAE@XZ
        780  30B 00017297 ??0Skeleton@Ogre@@IAE@XZ
        781  30C 0003F16B ??0Skeleton@Ogre@@QAE@PAVResourceManager@1@ABV?$basic_string@DU?$char_traits@D@std@@V?$allocator@D@2@@std@@_K1_NPAVManualResourceLoader@1@@Z
        782  30D 0000A7AE ??0SkeletonInstance@Ogre@@QAE@ABV?$SharedPtr@VSkeleton@Ogre@@@1@@Z
        783  30E 0000A0BF ??0SkeletonManager@Ogre@@QAE@XZ
        784  30F 0003EE28 ??0SkeletonSerializer@Ogre@@QAE@ABV01@@Z
        785  310 0003454A ??0SkeletonSerializer@Ogre@@QAE@XZ
        786  311 0003D230 ??0Sphere@Ogre@@QAE@ABVVector3@1@M@Z
        787  312 0003A3A5 ??0Sphere@Ogre@@QAE@XZ
        788  313 0002CF70 ??0SphereSceneQuery@Ogre@@QAE@ABV01@@Z
        789  314 00022935 ??0SphereSceneQuery@Ogre@@QAE@PAVSceneManager@1@@Z
        790  315 0001108B ??0StaticGeometry@Ogre@@QAE@ABV01@@Z
        791  316 000260E4 ??0StaticGeometry@Ogre@@QAE@PAVSceneManager@1@ABV?$basic_string@DU?$char_traits@D@std@@V?$allocator@D@2@@std@@@Z
        792  317 0003F6C0 ??0StdAllocPolicy@Ogre@@AAE@XZ
        793  318 00019C27 ??0StreamSerialiser@Ogre@@QAE@ABV01@@Z
        794  319 000114E1 ??0StreamSerialiser@Ogre@@QAE@ABV?$SharedPtr@VDataStream@Ogre@@@1@W4Endian@01@_NW4RealStorageFormat@01@@Z
        795  31A 0003E969 ??0StringInterface@Ogre@@QAE@ABV01@@Z
        796  31B 00025658 ??0StringInterface@Ogre@@QAE@XZ
        797  31C 00010078 ??0SubEntity@Ogre@@IAE@PAVEntity@1@PAVSubMesh@1@@Z
        798  31D 0001BF72 ??0SubEntity@Ogre@@QAE@ABV01@@Z
        799  31E 0002E9F1 ??0SubMesh@Ogre@@QAE@ABV01@@Z
        800  31F 0002F4F0 ??0SubMesh@Ogre@@QAE@XZ
        801  320 00006726 ??0TagPoint@Ogre@@QAE@ABV01@@Z
        802  321 00017B5C ??0TagPoint@Ogre@@QAE@GPAVSkeleton@1@@Z
        803  322 00031ED0 ??0TangentSpaceCalc@Ogre@@QAE@ABV01@@Z
        804  323 0002D32B ??0TangentSpaceCalc@Ogre@@QAE@XZ
        805  324 00022C64 ??0Technique@Ogre@@QAE@ABV01@@Z
        806  325 0003CCC2 ??0Technique@Ogre@@QAE@PAVMaterial@1@@Z
        807  326 00013B01 ??0Technique@Ogre@@QAE@PAVMaterial@1@ABV01@@Z
        808  327 0001B365 ??0TechniqueTranslator@Ogre@@QAE@ABV01@@Z
        809  328 00006E29 ??0TechniqueTranslator@Ogre@@QAE@XZ
        810  329 0002AFEA ??0TempBlendedBufferInfo@Ogre@@QAE@ABV01@@Z
        811  32A 00033EF1 ??0TempBlendedBufferInfo@Ogre@@QAE@XZ
        812  32B 000216B6 ??0TexCoordModifierControllerValue@Ogre@@QAE@ABV01@@Z
        813  32C 00035A76 ??0TexCoordModifierControllerValue@Ogre@@QAE@PAVTextureUnitState@1@_N1111@Z
        814  32D 0001548D ??0Texture@Ogre@@QAE@PAVResourceManager@1@ABV?$basic_string@DU?$char_traits@D@std@@V?$allocator@D@2@@std@@_K1_NPAVManualResourceLoader@1@@Z
        815  32E 00017B2F ??0TextureFrameControllerValue@Ogre@@QAE@ABV01@@Z
        816  32F 0001A5E1 ??0TextureFrameControllerValue@Ogre@@QAE@PAVTextureUnitState@1@@Z
        817  330 0002CA3E ??0TextureManager@Ogre@@QAE@XZ
        818  331 00028664 ??0TextureSourceTranslator@Ogre@@QAE@ABV01@@Z
        819  332 0000E615 ??0TextureSourceTranslator@Ogre@@QAE@XZ
        820  333 0002B3D2 ??0TextureUnitState@Ogre@@QAE@ABV01@@Z
        821  334 00008C1F ??0TextureUnitState@Ogre@@QAE@PAVPass@1@@Z
        822  335 0002105D ??0TextureUnitState@Ogre@@QAE@PAVPass@1@ABV01@@Z
        823  336 0002E550 ??0TextureUnitState@Ogre@@QAE@PAVPass@1@ABV?$basic_string@DU?$char_traits@D@std@@V?$allocator@D@2@@std@@I@Z
        824  337 00013791 ??0TextureUnitTranslator@Ogre@@QAE@ABV01@@Z
        825  338 00015267 ??0TextureUnitTranslator@Ogre@@QAE@XZ
        826  339 0001E407 ??0ThreadHandle@Ogre@@QAE@IPAX@Z
        827  33A 00036214 ??0TimeIndex@Ogre@@QAE@M@Z
        828  33B 00016F77 ??0TimeIndex@Ogre@@QAE@MI@Z
        829  33C 000233E4 ??0Timer@Ogre@@QAE@XZ
        830  33D 0000731A ??0TransformKeyFrame@Ogre@@QAE@ABV01@@Z
        831  33E 00034D97 ??0TransformKeyFrame@Ogre@@QAE@PBVAnimationTrack@1@M@Z
        832  33F 00029E42 ??0UTFString@Ogre@@QAE@ABV01@@Z
        833  340 000312AF ??0UTFString@Ogre@@QAE@ABV01@II@Z
        834  341 000015C3 ??0UTFString@Ogre@@QAE@ABV?$basic_string@DU?$char_traits@D@std@@V?$allocator@D@2@@std@@@Z
        835  342 0003E99B ??0UTFString@Ogre@@QAE@ABV?$basic_string@_WU?$char_traits@_W@std@@V?$allocator@_W@2@@std@@@Z
        836  343 000342AC ??0UTFString@Ogre@@QAE@IABG@Z
        837  344 000354B3 ??0UTFString@Ogre@@QAE@PBD@Z
        838  345 0002A784 ??0UTFString@Ogre@@QAE@PBDI@Z
        839  346 0003550D ??0UTFString@Ogre@@QAE@PBG@Z
        840  347 0002A73E ??0UTFString@Ogre@@QAE@PBGI@Z
        841  348 0002A1FD ??0UTFString@Ogre@@QAE@PB_W@Z
        842  349 0002F6AD ??0UTFString@Ogre@@QAE@PB_WI@Z
        843  34A 00026148 ??0UTFString@Ogre@@QAE@XZ
        844  34B 00039FDB ??0UnifiedHighLevelGpuProgram@Ogre@@QAE@PAVResourceManager@1@ABV?$basic_string@DU?$char_traits@D@std@@V?$allocator@D@2@@std@@_K1_NPAVManualResourceLoader@1@@Z
        845  34C 0002686E ??0UnimplementedException@Ogre@@QAE@ABV01@@Z
        846  34D 00011C3E ??0UnimplementedException@Ogre@@QAE@HABV?$basic_string@DU?$char_traits@D@std@@V?$allocator@D@2@@std@@0PBDJ@Z
        847  34E 0000B76C ??0UserObjectBindings@Ogre@@QAE@ABV01@@Z
        848  34F 0000D161 ??0UserObjectBindings@Ogre@@QAE@XZ
        849  350 0002E70D ??0VariableAccessAbstractNode@Ogre@@QAE@ABV01@@Z
        850  351 00019ECA ??0VariableAccessAbstractNode@Ogre@@QAE@PAVAbstractNode@1@@Z
        851  352 00016207 ??0Vector2@Ogre@@QAE@M@Z
        852  353 00006221 ??0Vector2@Ogre@@QAE@MM@Z
        853  354 0001741D ??0Vector2@Ogre@@QAE@QAM@Z
        854  355 00017508 ??0Vector2@Ogre@@QAE@QBH@Z
        855  356 000175BC ??0Vector2@Ogre@@QAE@QBM@Z
        856  357 0002E884 ??0Vector2@Ogre@@QAE@XZ
        857  358 00015500 ??0Vector3@Ogre@@QAE@M@Z
        858  359 0003DCB7 ??0Vector3@Ogre@@QAE@MMM@Z
        859  35A 0002CA9D ??0Vector3@Ogre@@QAE@QAM@Z
        860  35B 0002C773 ??0Vector3@Ogre@@QAE@QBH@Z
        861  35C 0002C9F8 ??0Vector3@Ogre@@QAE@QBM@Z
        862  35D 0002CBE2 ??0Vector3@Ogre@@QAE@XZ
        863  35E 0002FAA4 ??0Vector4@Ogre@@QAE@ABVVector3@1@@Z
        864  35F 00029BF4 ??0Vector4@Ogre@@QAE@M@Z
        865  360 0002E2CB ??0Vector4@Ogre@@QAE@MMMM@Z
        866  361 0002F20C ??0Vector4@Ogre@@QAE@QAM@Z
        867  362 0002F248 ??0Vector4@Ogre@@QAE@QBH@Z
        868  363 0002F28E ??0Vector4@Ogre@@QAE@QBM@Z
        869  364 00013B42 ??0Vector4@Ogre@@QAE@XZ
        870  365 00013A84 ??0VertexAnimationTrack@Ogre@@QAE@ABV01@@Z
        871  366 0003AA17 ??0VertexAnimationTrack@Ogre@@QAE@PAVAnimation@1@GW4VertexAnimationType@1@@Z
        872  367 0003B12E ??0VertexAnimationTrack@Ogre@@QAE@PAVAnimation@1@GW4VertexAnimationType@1@PAVVertexData@1@W4TargetMode@01@@Z
        873  368 00009ACF ??0VertexBufferBinding@Ogre@@QAE@ABV01@@Z
        874  369 000154C4 ??0VertexBufferBinding@Ogre@@QAE@XZ
        875  36A 00017EEF ??0VertexCacheProfiler@Ogre@@QAE@I@Z
        876  36B 0002B733 ??0VertexData@Ogre@@QAE@PAVHardwareBufferManagerBase@1@@Z
        877  36C 00025F45 ??0VertexData@Ogre@@QAE@PAVVertexDeclaration@1@PAVVertexBufferBinding@1@@Z
        878  36D 0003BEBC ??0VertexDeclaration@Ogre@@QAE@ABV01@@Z
        879  36E 0001F753 ??0VertexDeclaration@Ogre@@QAE@XZ
        880  36F 0003D118 ??0VertexElement@Ogre@@QAE@GIW4VertexElementType@1@W4VertexElementSemantic@1@G@Z
        881  370 0000867F ??0VertexElement@Ogre@@QAE@XZ
        882  371 000124E0 ??0VertexMorphKeyFrame@Ogre@@QAE@ABV01@@Z
        883  372 0003D136 ??0VertexMorphKeyFrame@Ogre@@QAE@PBVAnimationTrack@1@M@Z
        884  373 0003D4F1 ??0VertexPoseKeyFrame@Ogre@@QAE@ABV01@@Z
        885  374 00028A56 ??0VertexPoseKeyFrame@Ogre@@QAE@PBVAnimationTrack@1@M@Z
        886  375 0000BCC6 ??0Viewport@Ogre@@QAE@ABV01@@Z
        887  376 0003E3EC ??0Viewport@Ogre@@QAE@PAVCamera@1@PAVRenderTarget@1@MMMMH@Z
        888  377 0001D449 ??0VisibleObjectsBoundsInfo@Ogre@@QAE@ABU01@@Z
        889  378 0002B3BE ??0VisibleObjectsBoundsInfo@Ogre@@QAE@XZ
        890  379 00025B76 ??0WaveformControllerFunction@Ogre@@QAE@ABV01@@Z
        891  37A 00021693 ??0WaveformControllerFunction@Ogre@@QAE@W4WaveformType@1@MMMM_NM@Z
        892  37B 0003AE4F ??0WindowEventListener@Ogre@@QAE@ABV01@@Z
        893  37C 0003A4EA ??0WindowEventListener@Ogre@@QAE@XZ
        894  37D 000095C0 ??0WireBoundingBox@Ogre@@QAE@ABV01@@Z
        895  37E 0000C1F8 ??0WireBoundingBox@Ogre@@QAE@ABV?$basic_string@DU?$char_traits@D@std@@V?$allocator@D@2@@std@@@Z
        896  37F 0003DADC ??0WireBoundingBox@Ogre@@QAE@XZ
        897  380 0001E73B ??0WorkQueue@Ogre@@QAE@XZ
        898  381 000114AA ??0WorkerFunc@DefaultWorkQueueBase@Ogre@@QAE@PAV12@@Z
        899  382 00024C67 ??0ZipArchive@Ogre@@QAE@ABV?$basic_string@DU?$char_traits@D@std@@V?$allocator@D@2@@std@@0PAT_zzip_plugin_io@@@Z
        900  383 00030170 ??0_base_iterator@UTFString@Ogre@@IAE@XZ
        901  384 00012F3F ??0_const_fwd_iterator@UTFString@Ogre@@QAE@ABV012@@Z
        902  385 000047C8 ??0_const_fwd_iterator@UTFString@Ogre@@QAE@ABV_fwd_iterator@12@@Z
        903  386 000230BF ??0_const_fwd_iterator@UTFString@Ogre@@QAE@XZ
        904  387 000313BD ??0_const_rev_iterator@UTFString@Ogre@@QAE@ABV012@@Z
        905  388 00022061 ??0_const_rev_iterator@UTFString@Ogre@@QAE@ABV_rev_iterator@12@@Z
        906  389 000082B0 ??0_const_rev_iterator@UTFString@Ogre@@QAE@XZ
        907  38A 00024DC0 ??0_fwd_iterator@UTFString@Ogre@@QAE@ABV012@@Z
        908  38B 000032F1 ??0_fwd_iterator@UTFString@Ogre@@QAE@XZ
        909  38C 000277FA ??0_rev_iterator@UTFString@Ogre@@QAE@ABV012@@Z
        910  38D 000151EF ??0_rev_iterator@UTFString@Ogre@@QAE@XZ
        911  38E 0001DC00 ??0invalid_data@UTFString@Ogre@@QAE@ABV012@@Z
        912  38F 000256B2 ??0invalid_data@UTFString@Ogre@@QAE@ABV?$basic_string@DU?$char_traits@D@std@@V?$allocator@D@2@@std@@@Z
        913  390 00014493 ??1?$AllocatedObject@V?$CategorisedAllocPolicy@$00@Ogre@@@Ogre@@QAE@XZ
        914  391 000236BE ??1?$AllocatedObject@V?$CategorisedAllocPolicy@$01@Ogre@@@Ogre@@QAE@XZ
        915  392 0000FC77 ??1?$AllocatedObject@V?$CategorisedAllocPolicy@$02@Ogre@@@Ogre@@QAE@XZ
        916  393 00034775 ??1?$AllocatedObject@V?$CategorisedAllocPolicy@$03@Ogre@@@Ogre@@QAE@XZ
        917  394 0001CEFE ??1?$AllocatedObject@V?$CategorisedAllocPolicy@$04@Ogre@@@Ogre@@QAE@XZ
        918  395 00023411 ??1?$AllocatedObject@V?$CategorisedAllocPolicy@$05@Ogre@@@Ogre@@QAE@XZ
        919  396 00013C23 ??1?$AllocatedObject@V?$CategorisedAllocPolicy@$06@Ogre@@@Ogre@@QAE@XZ
        920  397 0001B72F ??1?$AllocatedObject@V?$CategorisedAllocPolicy@$0A@@Ogre@@@Ogre@@QAE@XZ
        921  398 0000701D ??1?$ControllerFunction@M@Ogre@@UAE@XZ
        922  399 0000FF06 ??1?$ControllerValue@M@Ogre@@UAE@XZ
        923  39A 0000D2BF ??1?$FactoryObj@VArchive@Ogre@@@Ogre@@UAE@XZ
        924  39B 0003374E ??1?$FactoryObj@VParticleSystemRenderer@Ogre@@@Ogre@@UAE@XZ
        925  39C 0000AE7A ??1?$Pool@V?$SharedPtr@VResource@Ogre@@@Ogre@@@Ogre@@UAE@XZ
        926  39D 00011ABD ??1?$SharedPtr@VHardwareCounterBuffer@Ogre@@@Ogre@@QAE@XZ
        927  39E 00010046 ??1?$SharedPtr@VHardwareIndexBuffer@Ogre@@@Ogre@@QAE@XZ
        928  39F 00036F6B ??1?$SharedPtr@VHardwarePixelBuffer@Ogre@@@Ogre@@QAE@XZ
        929  3A0 0001F37A ??1?$SharedPtr@VHardwareUniformBuffer@Ogre@@@Ogre@@QAE@XZ
        930  3A1 0003EEAF ??1?$SharedPtr@VHardwareVertexBuffer@Ogre@@@Ogre@@QAE@XZ
        931  3A2 00008742 ??1?$Singleton@VAbsolutePixelCountLodStrategy@Ogre@@@Ogre@@QAE@XZ
        932  3A3 00031755 ??1?$Singleton@VArchiveManager@Ogre@@@Ogre@@QAE@XZ
        933  3A4 0003E0C2 ??1?$Singleton@VCompositorManager@Ogre@@@Ogre@@QAE@XZ
        934  3A5 0000688E ??1?$Singleton@VControllerManager@Ogre@@@Ogre@@QAE@XZ
        935  3A6 00001686 ??1?$Singleton@VDistanceLodBoxStrategy@Ogre@@@Ogre@@QAE@XZ
        936  3A7 00007126 ??1?$Singleton@VDistanceLodSphereStrategy@Ogre@@@Ogre@@QAE@XZ
        937  3A8 0000870B ??1?$Singleton@VDynLibManager@Ogre@@@Ogre@@QAE@XZ
        938  3A9 000342A2 ??1?$Singleton@VExternalTextureSourceManager@Ogre@@@Ogre@@QAE@XZ
        939  3AA 00028AC4 ??1?$Singleton@VGpuProgramManager@Ogre@@@Ogre@@QAE@XZ
        940  3AB 000121A7 ??1?$Singleton@VHardwareBufferManager@Ogre@@@Ogre@@QAE@XZ
        941  3AC 00004D22 ??1?$Singleton@VHighLevelGpuProgramManager@Ogre@@@Ogre@@QAE@XZ
        942  3AD 00023F74 ??1?$Singleton@VLodStrategyManager@Ogre@@@Ogre@@QAE@XZ
        943  3AE 0003CE5C ??1?$Singleton@VLogManager@Ogre@@@Ogre@@QAE@XZ
        944  3AF 00015F7D ??1?$Singleton@VMaterialManager@Ogre@@@Ogre@@QAE@XZ
        945  3B0 00037B82 ??1?$Singleton@VMeshManager@Ogre@@@Ogre@@QAE@XZ
        946  3B1 0002CEDF ??1?$Singleton@VParticleSystemManager@Ogre@@@Ogre@@QAE@XZ
        947  3B2 00034EC8 ??1?$Singleton@VProfiler@Ogre@@@Ogre@@QAE@XZ
        948  3B3 0001B8BA ??1?$Singleton@VRenderSystemCapabilitiesManager@Ogre@@@Ogre@@QAE@XZ
        949  3B4 0002563F ??1?$Singleton@VResourceBackgroundQueue@Ogre@@@Ogre@@QAE@XZ
        950  3B5 00003431 ??1?$Singleton@VResourceGroupManager@Ogre@@@Ogre@@QAE@XZ
        951  3B6 00017FE9 ??1?$Singleton@VRoot@Ogre@@@Ogre@@QAE@XZ
        952  3B7 0000DDB9 ??1?$Singleton@VSceneManagerEnumerator@Ogre@@@Ogre@@QAE@XZ
        953  3B8 00008684 ??1?$Singleton@VScreenRatioPixelCountLodStrategy@Ogre@@@Ogre@@QAE@XZ
        954  3B9 000309E5 ??1?$Singleton@VScriptCompilerManager@Ogre@@@Ogre@@QAE@XZ
        955  3BA 000347CA ??1?$Singleton@VShadowTextureManager@Ogre@@@Ogre@@QAE@XZ
        956  3BB 0001DDA4 ??1?$Singleton@VSkeletonManager@Ogre@@@Ogre@@QAE@XZ
        957  3BC 0000894A ??1?$Singleton@VTextureManager@Ogre@@@Ogre@@QAE@XZ
        958  3BD 00018C05 ??1AbsolutePixelCountLodStrategy@Ogre@@UAE@XZ
        959  3BE 000194B6 ??1AbstractNode@Ogre@@UAE@XZ
        960  3BF 00025C25 ??1AnimableObject@Ogre@@UAE@XZ
        961  3C0 000156FE ??1AnimableValue@Ogre@@UAE@XZ
        962  3C1 000081C5 ??1Animation@Ogre@@UAE@XZ
        963  3C2 0003AC65 ??1AnimationContainer@Ogre@@UAE@XZ
        964  3C3 000383BB ??1AnimationControllerFunction@Ogre@@UAE@XZ
        965  3C4 00028A1F ??1AnimationState@Ogre@@UAE@XZ
        966  3C5 0002A937 ??1AnimationStateControllerValue@Ogre@@UAE@XZ
        967  3C6 000068C0 ??1AnimationStateSet@Ogre@@QAE@XZ
        968  3C7 00010366 ??1AnimationTrack@Ogre@@UAE@XZ
        969  3C8 000196F0 ??1Archive@Ogre@@UAE@XZ
        970  3C9 0001AE65 ??1ArchiveFactory@Ogre@@UAE@XZ
        971  3CA 000218B9 ??1ArchiveManager@Ogre@@UAE@XZ
        972  3CB 00032452 ??1AtomAbstractNode@Ogre@@UAE@XZ
        973  3CC 00034153 ??1AutoParamDataSource@Ogre@@UAE@XZ
        974  3CD 0001A311 ??1AxisAlignedBox@Ogre@@QAE@XZ
        975  3CE 0001154F ??1AxisAlignedBoxSceneQuery@Ogre@@UAE@XZ
        976  3CF 0003092C ??1Barrier@Ogre@@QAE@XZ
        977  3D0 000020BD ??1BaseInstanceBatchVTF@Ogre@@UAE@XZ
        978  3D1 00019169 ??1BatchInstance@InstancedGeometry@Ogre@@UAE@XZ
        979  3D2 00004AF2 ??1Billboard@Ogre@@QAE@XZ
        980  3D3 0003FEFE ??1BillboardChain@Ogre@@UAE@XZ
        981  3D4 00018A0C ??1BillboardChainFactory@Ogre@@UAE@XZ
        982  3D5 000235DD ??1BillboardParticleRenderer@Ogre@@UAE@XZ
        983  3D6 00030134 ??1BillboardParticleRendererFactory@Ogre@@UAE@XZ
        984  3D7 000389EC ??1BillboardSet@Ogre@@UAE@XZ
        985  3D8 0002D619 ??1BillboardSetFactory@Ogre@@UAE@XZ
        986  3D9 00008FD5 ??1Bone@Ogre@@UAE@XZ
        987  3DA 0003B372 ??1BuiltinScriptTranslatorManager@Ogre@@UAE@XZ
        988  3DB 00013F66 ??1Camera@Ogre@@UAE@XZ
        989  3DC 0002FE05 ??1CmdAdjacency@GpuProgram@Ogre@@UAE@XZ
        990  3DD 000279DA ??1CmdAngle@EmitterCommands@Ogre@@UAE@XZ
        991  3DE 0002AF9F ??1CmdColour@EmitterCommands@Ogre@@UAE@XZ
        992  3DF 00008878 ??1CmdColourRangeEnd@EmitterCommands@Ogre@@UAE@XZ
        993  3E0 00036EDF ??1CmdColourRangeStart@EmitterCommands@Ogre@@UAE@XZ
        994  3E1 00027AC0 ??1CmdComputeGroupDims@GpuProgram@Ogre@@UAE@XZ
        995  3E2 0000FFF1 ??1CmdDirPositionRef@EmitterCommands@Ogre@@UAE@XZ
        996  3E3 000318C2 ??1CmdDirection@EmitterCommands@Ogre@@UAE@XZ
        997  3E4 00023CFE ??1CmdDuration@EmitterCommands@Ogre@@UAE@XZ
        998  3E5 0000F317 ??1CmdEmissionRate@EmitterCommands@Ogre@@UAE@XZ
        999  3E6 0003F4F4 ??1CmdEmittedEmitter@EmitterCommands@Ogre@@UAE@XZ
       1000  3E7 0000DE04 ??1CmdManualNamedConstsFile@GpuProgram@Ogre@@UAE@XZ
       1001  3E8 0003F968 ??1CmdMaxDuration@EmitterCommands@Ogre@@UAE@XZ
       1002  3E9 0002D876 ??1CmdMaxRepeatDelay@EmitterCommands@Ogre@@UAE@XZ
       1003  3EA 00023137 ??1CmdMaxTTL@EmitterCommands@Ogre@@UAE@XZ
       1004  3EB 000119E6 ??1CmdMaxVelocity@EmitterCommands@Ogre@@UAE@XZ
       1005  3EC 00014BFA ??1CmdMinDuration@EmitterCommands@Ogre@@UAE@XZ
       1006  3ED 00017738 ??1CmdMinRepeatDelay@EmitterCommands@Ogre@@UAE@XZ
       1007  3EE 000197A9 ??1CmdMinTTL@EmitterCommands@Ogre@@UAE@XZ
       1008  3EF 0002E54B ??1CmdMinVelocity@EmitterCommands@Ogre@@UAE@XZ
       1009  3F0 00019655 ??1CmdMorph@GpuProgram@Ogre@@UAE@XZ
       1010  3F1 0003EB5D ??1CmdName@EmitterCommands@Ogre@@UAE@XZ
       1011  3F2 0001704E ??1CmdPose@GpuProgram@Ogre@@UAE@XZ
       1012  3F3 0001E3F3 ??1CmdPosition@EmitterCommands@Ogre@@UAE@XZ
       1013  3F4 0000FF97 ??1CmdRepeatDelay@EmitterCommands@Ogre@@UAE@XZ
       1014  3F5 000239A2 ??1CmdSkeletal@GpuProgram@Ogre@@UAE@XZ
       1015  3F6 00019BB4 ??1CmdSyntax@GpuProgram@Ogre@@UAE@XZ
       1016  3F7 0000E2E6 ??1CmdTTL@EmitterCommands@Ogre@@UAE@XZ
       1017  3F8 000222AF ??1CmdType@GpuProgram@Ogre@@UAE@XZ
       1018  3F9 00015BA9 ??1CmdUp@EmitterCommands@Ogre@@UAE@XZ
       1019  3FA 00037222 ??1CmdVTF@GpuProgram@Ogre@@UAE@XZ
       1020  3FB 0002FF09 ??1CmdVelocity@EmitterCommands@Ogre@@UAE@XZ
       1021  3FC 00013BE2 ??1Codec@Ogre@@UAE@XZ
       1022  3FD 00024FD2 ??1CompositionPass@Ogre@@QAE@XZ
       1023  3FE 00023B23 ??1CompositionPassTranslator@Ogre@@UAE@XZ
       1024  3FF 000021A8 ??1CompositionTargetPass@Ogre@@QAE@XZ
       1025  400 0001201C ??1CompositionTargetPassTranslator@Ogre@@UAE@XZ
       1026  401 0003724F ??1CompositionTechnique@Ogre@@UAE@XZ
       1027  402 0001CF08 ??1CompositionTechniqueTranslator@Ogre@@UAE@XZ
       1028  403 00003904 ??1Compositor@Ogre@@UAE@XZ
       1029  404 0000FA1A ??1CompositorChain@Ogre@@UAE@XZ
       1030  405 00035FAD ??1CompositorInstance@Ogre@@UAE@XZ
       1031  406 00003EE0 ??1CompositorLogic@Ogre@@UAE@XZ
       1032  407 00039914 ??1CompositorManager@Ogre@@UAE@XZ
       1033  408 0002C282 ??1CompositorTranslator@Ogre@@UAE@XZ
       1034  409 0001666C ??1ConfigDialog@Ogre@@QAE@XZ
       1035  40A 00005FC9 ??1ConfigFile@Ogre@@UAE@XZ
       1036  40B 0000B208 ??1ControllerManager@Ogre@@QAE@XZ
       1037  40C 0003A4EF ??1ConvexBody@Ogre@@QAE@XZ
       1038  40D 0002F99B ??1CreateCompositorScriptCompilerEvent@Ogre@@UAE@XZ
       1039  40E 00022435 ??1CreateGpuProgramScriptCompilerEvent@Ogre@@UAE@XZ
       1040  40F 0003DE01 ??1CreateGpuSharedParametersScriptCompilerEvent@Ogre@@UAE@XZ
       1041  410 0000A2C7 ??1CreateHighLevelGpuProgramScriptCompilerEvent@Ogre@@UAE@XZ
       1042  411 0000F204 ??1CreateMaterialScriptCompilerEvent@Ogre@@UAE@XZ
       1043  412 000111B7 ??1CreateParticleSystemScriptCompilerEvent@Ogre@@UAE@XZ
       1044  413 00013D27 ??1CustomCompositionPass@Ogre@@MAE@XZ
       1045  414 00025D1A ??1DDSCodec@Ogre@@UAE@XZ
       1046  415 0003B575 ??1DataStream@Ogre@@UAE@XZ
       1047  416 0002018F ??1DefaultAxisAlignedBoxSceneQuery@Ogre@@UAE@XZ
       1048  417 00021102 ??1DefaultHardwareBufferManager@Ogre@@UAE@XZ
       1049  418 00022034 ??1DefaultHardwareBufferManagerBase@Ogre@@UAE@XZ
       1050  419 000213B9 ??1DefaultHardwareCounterBuffer@Ogre@@UAE@XZ
       1051  41A 00030B8E ??1DefaultHardwareIndexBuffer@Ogre@@UAE@XZ
       1052  41B 0000A736 ??1DefaultHardwareUniformBuffer@Ogre@@UAE@XZ
       1053  41C 0001A807 ??1DefaultHardwareVertexBuffer@Ogre@@UAE@XZ
       1054  41D 0002F270 ??1DefaultIntersectionSceneQuery@Ogre@@UAE@XZ
       1055  41E 0002238B ??1DefaultPlaneBoundedVolumeListSceneQuery@Ogre@@UAE@XZ
       1056  41F 00020CC0 ??1DefaultRaySceneQuery@Ogre@@UAE@XZ
       1057  420 0001E74F ??1DefaultSceneManager@Ogre@@UAE@XZ
       1058  421 00015604 ??1DefaultSceneManagerFactory@Ogre@@UAE@XZ
       1059  422 00030D3C ??1DefaultShadowCameraSetup@Ogre@@UAE@XZ
       1060  423 0003EF04 ??1DefaultSphereSceneQuery@Ogre@@UAE@XZ
       1061  424 0000296E ??1DefaultWorkQueue@Ogre@@UAE@XZ
       1062  425 00004430 ??1DefaultWorkQueueBase@Ogre@@UAE@XZ
       1063  426 0002A36F ??1DeflateStream@Ogre@@UAE@XZ
       1064  427 00039B53 ??1DepthBuffer@Ogre@@UAE@XZ
       1065  428 000153B1 ??1DistanceLodBoxStrategy@Ogre@@UAE@XZ
       1066  429 00010D89 ??1DistanceLodSphereStrategy@Ogre@@UAE@XZ
       1067  42A 0000A9F2 ??1DistanceLodStrategyBase@Ogre@@UAE@XZ
       1068  42B 0003F71A ??1DynLib@Ogre@@QAE@XZ
       1069  42C 000311A1 ??1DynLibManager@Ogre@@UAE@XZ
       1070  42D 0000F79A ??1EdgeData@Ogre@@QAE@XZ
       1071  42E 00020B17 ??1EdgeListBuilder@Ogre@@UAE@XZ
       1072  42F 00026747 ??1EmbeddedZipArchiveFactory@Ogre@@UAE@XZ
       1073  430 0000363E ??1Entity@Ogre@@UAE@XZ
       1074  431 0000F5B0 ??1EntityFactory@Ogre@@UAE@XZ
       1075  432 0000A3EE ??1EntityShadowRenderable@Entity@Ogre@@UAE@XZ
       1076  433 0000B48D ??1ErrorDialog@Ogre@@QAE@XZ
       1077  434 00011B5D ??1Exception@Ogre@@UAE@XZ
       1078  435 00020504 ??1ExternalTextureSource@Ogre@@UAE@XZ
       1079  436 0002014E ??1ExternalTextureSourceManager@Ogre@@QAE@XZ
       1080  437 0001242C ??1FileHandleDataStream@Ogre@@UAE@XZ
       1081  438 0001313D ??1FileNotFoundException@Ogre@@UAE@XZ
       1082  439 00016202 ??1FileStreamDataStream@Ogre@@UAE@XZ
       1083  43A 0001D110 ??1FileSystemArchive@Ogre@@UAE@XZ
       1084  43B 000190DD ??1FileSystemArchiveFactory@Ogre@@UAE@XZ
       1085  43C 00030558 ??1FileSystemLayer@Ogre@@QAE@XZ
       1086  43D 0003D03C ??1FloatGpuParameterControllerValue@Ogre@@UAE@XZ
       1087  43E 000303FF ??1FocusedShadowCameraSetup@Ogre@@UAE@XZ
       1088  43F 0001208A ??1FrameListener@Ogre@@UAE@XZ
       1089  440 00016DC9 ??1FrameTimeControllerValue@Ogre@@UAE@XZ
       1090  441 0003EBE9 ??1FreeImageCodec@Ogre@@UAE@XZ
       1091  442 00014D76 ??1Frustum@Ogre@@UAE@XZ
       1092  443 00002874 ??1GeometryBucket@InstancedGeometry@Ogre@@UAE@XZ
       1093  444 000317D2 ??1GeometryBucket@StaticGeometry@Ogre@@UAE@XZ
       1094  445 0000D5E4 ??1GpuLogicalBufferStruct@Ogre@@QAE@XZ
       1095  446 00034392 ??1GpuNamedConstants@Ogre@@QAE@XZ
       1096  447 0003E44B ??1GpuNamedConstantsSerializer@Ogre@@UAE@XZ
       1097  448 0003A5B7 ??1GpuProgram@Ogre@@UAE@XZ
       1098  449 00039234 ??1GpuProgramManager@Ogre@@UAE@XZ
       1099  44A 00013426 ??1GpuProgramParameters@Ogre@@QAE@XZ
       1100  44B 00029BA4 ??1GpuProgramTranslator@Ogre@@UAE@XZ
       1101  44C 0000DB52 ??1GpuProgramUsage@Ogre@@UAE@XZ
       1102  44D 0001AE42 ??1GpuSharedParameters@Ogre@@UAE@XZ
       1103  44E 00016B0D ??1GpuSharedParametersUsage@Ogre@@QAE@XZ
       1104  44F 0003A7B5 ??1HardwareBuffer@Ogre@@UAE@XZ
       1105  450 00014ACE ??1HardwareBufferLicensee@Ogre@@UAE@XZ
       1106  451 0000D57B ??1HardwareBufferManager@Ogre@@UAE@XZ
       1107  452 00018A52 ??1HardwareBufferManagerBase@Ogre@@UAE@XZ
       1108  453 0001B1F3 ??1HardwareCounterBuffer@Ogre@@UAE@XZ
       1109  454 0002F0EF ??1HardwareCounterBufferSharedPtr@Ogre@@QAE@XZ
       1110  455 0002B35A ??1HardwareIndexBuffer@Ogre@@UAE@XZ
       1111  456 000357B0 ??1HardwareIndexBufferSharedPtr@Ogre@@QAE@XZ
       1112  457 00007BA8 ??1HardwareOcclusionQuery@Ogre@@UAE@XZ
       1113  458 000049CB ??1HardwarePixelBuffer@Ogre@@UAE@XZ
       1114  459 0003F945 ??1HardwarePixelBufferSharedPtr@Ogre@@QAE@XZ
       1115  45A 0003F6B6 ??1HardwareUniformBuffer@Ogre@@UAE@XZ
       1116  45B 000402FF ??1HardwareUniformBufferSharedPtr@Ogre@@QAE@XZ
       1117  45C 0002ACA2 ??1HardwareVertexBuffer@Ogre@@UAE@XZ
       1118  45D 0003FF7B ??1HardwareVertexBufferSharedPtr@Ogre@@QAE@XZ
       1119  45E 0000C626 ??1HighLevelGpuProgram@Ogre@@UAE@XZ
       1120  45F 00021D7D ??1HighLevelGpuProgramFactory@Ogre@@UAE@XZ
       1121  460 0002FFD6 ??1HighLevelGpuProgramManager@Ogre@@UAE@XZ
       1122  461 00019489 ??1IOException@Ogre@@UAE@XZ
       1123  462 00002E9B ??1Image@Ogre@@UAE@XZ
       1124  463 0001D23C ??1ImageCodec@Ogre@@UAE@XZ
       1125  464 000164EB ??1ImportAbstractNode@Ogre@@UAE@XZ
       1126  465 0003D4E7 ??1IndexData@Ogre@@QAE@XZ
       1127  466 0001997F ??1InstanceBatch@Ogre@@UAE@XZ
       1128  467 00038ED3 ??1InstanceBatchHW@Ogre@@UAE@XZ
       1129  468 00010E33 ??1InstanceBatchHW_VTF@Ogre@@UAE@XZ
       1130  469 0001547E ??1InstanceBatchShader@Ogre@@UAE@XZ
       1131  46A 000099D0 ??1InstanceBatchVTF@Ogre@@UAE@XZ
       1132  46B 0003EA40 ??1InstanceManager@Ogre@@UAE@XZ
       1133  46C 00021616 ??1InstancedEntity@Ogre@@UAE@XZ
       1134  46D 00021BA7 ??1InstancedGeometry@Ogre@@UAE@XZ
       1135  46E 0000EC5A ??1InstancedObject@InstancedGeometry@Ogre@@QAE@XZ
       1136  46F 00016F63 ??1InternalErrorException@Ogre@@UAE@XZ
       1137  470 0001C189 ??1IntersectionSceneQuery@Ogre@@UAE@XZ
       1138  471 0003B043 ??1IntersectionSceneQueryListener@Ogre@@UAE@XZ
       1139  472 00031633 ??1IntersectionSceneQueryResult@Ogre@@QAE@XZ
       1140  473 0002D010 ??1InvalidCallException@Ogre@@UAE@XZ
       1141  474 00023C9A ??1InvalidParametersException@Ogre@@UAE@XZ
       1142  475 000247A8 ??1InvalidStateException@Ogre@@UAE@XZ
       1143  476 0002659E ??1ItemIdentityException@Ogre@@UAE@XZ
       1144  477 00026C24 ??1KeyFrame@Ogre@@UAE@XZ
       1145  478 0000FE70 ??1LODBucket@InstancedGeometry@Ogre@@UAE@XZ
       1146  479 00032713 ??1LODBucket@StaticGeometry@Ogre@@UAE@XZ
       1147  47A 0002BD14 ??1LODShadowRenderable@LODBucket@StaticGeometry@Ogre@@UAE@XZ
       1148  47B 0000742D ??1LiSPSMShadowCameraSetup@Ogre@@UAE@XZ
       1149  47C 00039EE6 ??1Light@Ogre@@UAE@XZ
       1150  47D 0000DE40 ??1LightFactory@Ogre@@UAE@XZ
       1151  47E 000296BD ??1LightweightMutex@Ogre@@QAE@XZ
       1152  47F 0001F3C5 ??1LinearControllerFunction@Ogre@@UAE@XZ
       1153  480 0001FD39 ??1Listener@AnimationTrack@Ogre@@UAE@XZ
       1154  481 0003E1A8 ??1Listener@Camera@Ogre@@UAE@XZ
       1155  482 0001E3DA ??1Listener@CompositorInstance@Ogre@@UAE@XZ
       1156  483 0001BE2D ??1Listener@MovableObject@Ogre@@UAE@XZ
       1157  484 0002C03E ??1Listener@Node@Ogre@@UAE@XZ
       1158  485 0002C8F9 ??1Listener@RenderSystem@Ogre@@UAE@XZ
       1159  486 00030F71 ??1Listener@ResourceBackgroundQueue@Ogre@@UAE@XZ
       1160  487 00020CFC ??1Listener@Viewport@Ogre@@UAE@XZ
       1161  488 000367FF ??1LodListener@Ogre@@UAE@XZ
       1162  489 0000B5F5 ??1LodStrategy@Ogre@@UAE@XZ
       1163  48A 0001AB54 ??1LodStrategyManager@Ogre@@QAE@XZ
       1164  48B 0000D0B7 ??1Log@Ogre@@QAE@XZ
       1165  48C 000171C5 ??1LogManager@Ogre@@QAE@XZ
       1166  48D 0001DDF4 ??1ManualObject@Ogre@@UAE@XZ
       1167  48E 0002EB68 ??1ManualObjectFactory@Ogre@@UAE@XZ
       1168  48F 00007AAE ??1ManualObjectSection@ManualObject@Ogre@@UAE@XZ
       1169  490 00008DFA ??1ManualObjectSectionShadowRenderable@ManualObject@Ogre@@UAE@XZ
       1170  491 0003256F ??1ManualResourceLoader@Ogre@@UAE@XZ
       1171  492 0003071A ??1Material@Ogre@@UAE@XZ
       1172  493 000139C6 ??1MaterialBucket@InstancedGeometry@Ogre@@UAE@XZ
       1173  494 00037669 ??1MaterialBucket@StaticGeometry@Ogre@@UAE@XZ
       1174  495 0002C548 ??1MaterialManager@Ogre@@UAE@XZ
       1175  496 000336EF ??1MaterialSerializer@Ogre@@UAE@XZ
       1176  497 0001B71B ??1MaterialTranslator@Ogre@@UAE@XZ
       1177  498 00035B2F ??1Math@Ogre@@QAE@XZ
       1178  499 00024357 ??1MemoryDataStream@Ogre@@UAE@XZ
       1179  49A 00006B40 ??1Mesh@Ogre@@UAE@XZ
       1180  49B 0002FD7E ??1MeshManager@Ogre@@UAE@XZ
       1181  49C 0002E96F ??1MeshSerializer@Ogre@@UAE@XZ
       1182  49D 0000DC9C ??1MovableObject@Ogre@@UAE@XZ
       1183  49E 0002B28D ??1MovableObjectFactory@Ogre@@UAE@XZ
       1184  49F 0000D96D ??1MovablePlane@Ogre@@UAE@XZ
       1185  4A0 00034BE9 ??1MultiRenderTarget@Ogre@@UAE@XZ
       1186  4A1 0001B810 ??1NameGenerator@Ogre@@QAE@XZ
       1187  4A2 0000198D ??1Node@Ogre@@UAE@XZ
       1188  4A3 0000E44E ??1NodeAnimationTrack@Ogre@@UAE@XZ
       1189  4A4 0001213E ??1NumericAnimationTrack@Ogre@@UAE@XZ
       1190  4A5 00011B44 ??1NumericKeyFrame@Ogre@@UAE@XZ
       1191  4A6 0001C698 ??1ObjectAbstractNode@Ogre@@UAE@XZ
       1192  4A7 0003B74B ??1OptimisedUtil@Ogre@@UAE@XZ
       1193  4A8 0002A5E5 ??1PSSMShadowCameraSetup@Ogre@@UAE@XZ
       1194  4A9 000383D9 ??1ParamCommand@Ogre@@UAE@XZ
       1195  4AA 0002C4E4 ??1ParamDictionary@Ogre@@QAE@XZ
       1196  4AB 0002B558 ??1ParameterDef@Ogre@@QAE@XZ
       1197  4AC 000337B2 ??1Particle@Ogre@@QAE@XZ
       1198  4AD 00019F06 ??1ParticleAffector@Ogre@@UAE@XZ
       1199  4AE 0002E172 ??1ParticleAffectorFactory@Ogre@@UAE@XZ
       1200  4AF 00024898 ??1ParticleAffectorTranslator@Ogre@@UAE@XZ
       1201  4B0 00018C64 ??1ParticleEmitter@Ogre@@UAE@XZ
       1202  4B1 00037583 ??1ParticleEmitterFactory@Ogre@@UAE@XZ
       1203  4B2 0003517A ??1ParticleEmitterTranslator@Ogre@@UAE@XZ
       1204  4B3 000279DF ??1ParticleSystem@Ogre@@UAE@XZ
       1205  4B4 0003B3D6 ??1ParticleSystemFactory@Ogre@@UAE@XZ
       1206  4B5 0003CC45 ??1ParticleSystemManager@Ogre@@UAE@XZ
       1207  4B6 0003F0D5 ??1ParticleSystemRenderer@Ogre@@UAE@XZ
       1208  4B7 00027B06 ??1ParticleSystemRendererFactory@Ogre@@UAE@XZ
       1209  4B8 0001196E ??1ParticleSystemTranslator@Ogre@@UAE@XZ
       1210  4B9 0000EEA8 ??1ParticleVisualData@Ogre@@UAE@XZ
       1211  4BA 000023FB ??1Pass@Ogre@@UAE@XZ
       1212  4BB 00006B31 ??1PassTranslator@Ogre@@UAE@XZ
       1213  4BC 000171BB ??1PassthroughControllerFunction@Ogre@@UAE@XZ
       1214  4BD 00003AD5 ??1PatchMesh@Ogre@@UAE@XZ
       1215  4BE 000134DA ??1PatchSurface@Ogre@@QAE@XZ
       1216  4BF 0002F9FA ??1PixelBox@Ogre@@QAE@XZ
       1217  4C0 000043D6 ??1PixelCountLodStrategyBase@Ogre@@UAE@XZ
       1218  4C1 0000F5E7 ??1PlaneBoundedVolume@Ogre@@QAE@XZ
       1219  4C2 0003C588 ??1PlaneBoundedVolumeListSceneQuery@Ogre@@UAE@XZ
       1220  4C3 0001CBC0 ??1PlaneOptimalShadowCameraSetup@Ogre@@UAE@XZ
       1221  4C4 0001E2F4 ??1Plugin@Ogre@@UAE@XZ
       1222  4C5 00020531 ??1PointListBody@FocusedShadowCameraSetup@Ogre@@QAE@XZ
       1223  4C6 0001B153 ??1Polygon@Ogre@@QAE@XZ
       1224  4C7 00038E1F ??1Pose@Ogre@@UAE@XZ
       1225  4C8 00039DEC ??1PreApplyTextureAliasesScriptCompilerEvent@Ogre@@UAE@XZ
       1226  4C9 00034E78 ??1ProcessNameExclusionScriptCompilerEvent@Ogre@@UAE@XZ
       1227  4CA 0001796D ??1ProcessResourceNameScriptCompilerEvent@Ogre@@UAE@XZ
       1228  4CB 0001D1B0 ??1Profile@Ogre@@QAE@XZ
       1229  4CC 0003D555 ??1ProfileInstance@Ogre@@UAE@XZ
       1230  4CD 0001C481 ??1ProfileSessionListener@Ogre@@UAE@XZ
       1231  4CE 0000EAA7 ??1Profiler@Ogre@@QAE@XZ
       1232  4CF 000156A4 ??1PropertyAbstractNode@Ogre@@UAE@XZ
       1233  4D0 00029A9B ??1QueuedRenderableCollection@Ogre@@QAE@XZ
       1234  4D1 0002FBA3 ??1QueuedRenderableVisitor@Ogre@@UAE@XZ
       1235  4D2 00010523 ??1RQListener@CompositorChain@Ogre@@UAE@XZ
       1236  4D3 0003535A ??1RaySceneQuery@Ogre@@UAE@XZ
       1237  4D4 000014F1 ??1RaySceneQueryListener@Ogre@@UAE@XZ
       1238  4D5 0002D3E9 ??1Rectangle2D@Ogre@@UAE@XZ
       1239  4D6 0002117F ??1Region@StaticGeometry@Ogre@@UAE@XZ
       1240  4D7 00036AAC ??1RegionSceneQuery@Ogre@@UAE@XZ
       1241  4D8 0001761B ??1RenderObjectListener@Ogre@@UAE@XZ
       1242  4D9 0002AB76 ??1RenderPriorityGroup@Ogre@@QAE@XZ
       1243  4DA 0003B584 ??1RenderQueue@Ogre@@UAE@XZ
       1244  4DB 0000696A ??1RenderQueueGroup@Ogre@@QAE@XZ
       1245  4DC 00025CED ??1RenderQueueInvocation@Ogre@@UAE@XZ
       1246  4DD 0003629B ??1RenderQueueInvocationSequence@Ogre@@UAE@XZ
       1247  4DE 0001A27B ??1RenderQueueListener@Ogre@@UAE@XZ
       1248  4DF 00008828 ??1RenderSystem@Ogre@@UAE@XZ
       1249  4E0 0002C01B ??1RenderSystemCapabilities@Ogre@@UAE@XZ
       1250  4E1 000319DA ??1RenderSystemCapabilitiesManager@Ogre@@UAE@XZ
       1251  4E2 0002301A ??1RenderSystemCapabilitiesSerializer@Ogre@@UAE@XZ
       1252  4E3 0000BBB8 ??1RenderSystemOperation@CompositorInstance@Ogre@@UAE@XZ
       1253  4E4 00025F3B ??1RenderTarget@Ogre@@UAE@XZ
       1254  4E5 00028D99 ??1RenderTargetListener@Ogre@@UAE@XZ
       1255  4E6 00008661 ??1RenderTexture@Ogre@@UAE@XZ
       1256  4E7 0001B653 ??1RenderToVertexBuffer@Ogre@@UAE@XZ
       1257  4E8 0000FDF3 ??1RenderWindow@Ogre@@UAE@XZ
       1258  4E9 00024361 ??1Renderable@Ogre@@UAE@XZ
       1259  4EA 00021AF8 ??1RenderableListener@RenderQueue@Ogre@@UAE@XZ
       1260  4EB 0003B68D ??1RenderingAPIException@Ogre@@UAE@XZ
       1261  4EC 00020252 ??1Request@WorkQueue@Ogre@@QAE@XZ
       1262  4ED 0002B751 ??1RequestHandler@WorkQueue@Ogre@@UAE@XZ
       1263  4EE 000092C3 ??1RequestHandlerHolder@DefaultWorkQueueBase@Ogre@@QAE@XZ
       1264  4EF 00009AD4 ??1Resource@Ogre@@UAE@XZ
       1265  4F0 0001EC27 ??1ResourceBackgroundQueue@Ogre@@UAE@XZ
       1266  4F1 0002B73D ??1ResourceGroupListener@Ogre@@UAE@XZ
       1267  4F2 0001BF36 ??1ResourceGroupManager@Ogre@@UAE@XZ
       1268  4F3 0002B260 ??1ResourceManager@Ogre@@UAE@XZ
       1269  4F4 000087C9 ??1ResourcePool@ResourceManager@Ogre@@UAE@XZ
       1270  4F5 0003DE29 ??1Response@WorkQueue@Ogre@@QAE@XZ
       1271  4F6 00017C6A ??1ResponseHandler@WorkQueue@Ogre@@UAE@XZ
       1272  4F7 00027458 ??1RibbonTrail@Ogre@@UAE@XZ
       1273  4F8 00023A29 ??1RibbonTrailFactory@Ogre@@UAE@XZ
       1274  4F9 0003BB42 ??1Root@Ogre@@QAE@XZ
       1275  4FA 0001E466 ??1RotationalSpline@Ogre@@QAE@XZ
       1276  4FB 00022138 ??1RuntimeAssertionException@Ogre@@UAE@XZ
       1277  4FC 00005088 ??1ScaleControllerFunction@Ogre@@UAE@XZ
       1278  4FD 0002A211 ??1SceneManager@Ogre@@UAE@XZ
       1279  4FE 0001AEDD ??1SceneManagerEnumerator@Ogre@@QAE@XZ
       1280  4FF 0000D98B ??1SceneManagerFactory@Ogre@@UAE@XZ
       1281  500 00007185 ??1SceneMgrQueuedRenderableVisitor@SceneManager@Ogre@@UAE@XZ
       1282  501 000190B5 ??1SceneNode@Ogre@@UAE@XZ
       1283  502 0002F4FF ??1SceneQuery@Ogre@@UAE@XZ
       1284  503 00031D36 ??1SceneQueryListener@Ogre@@UAE@XZ
       1285  504 000189D5 ??1SceneQueryResult@Ogre@@QAE@XZ
       1286  505 0001A7F3 ??1ScreenRatioPixelCountLodStrategy@Ogre@@UAE@XZ
       1287  506 0002FC6B ??1ScriptCompiler@Ogre@@UAE@XZ
       1288  507 0000F85D ??1ScriptCompilerListener@Ogre@@UAE@XZ
       1289  508 0000BEF6 ??1ScriptCompilerManager@Ogre@@UAE@XZ
       1290  509 0001C733 ??1ScriptLexer@Ogre@@UAE@XZ
       1291  50A 0001F186 ??1ScriptLoader@Ogre@@UAE@XZ
       1292  50B 000069E2 ??1ScriptParser@Ogre@@UAE@XZ
       1293  50C 0001D697 ??1ScriptTranslator@Ogre@@MAE@XZ
       1294  50D 0002B3F0 ??1Serializer@Ogre@@UAE@XZ
       1295  50E 0002EACD ??1ShadowCameraSetup@Ogre@@UAE@XZ
       1296  50F 0001D8AE ??1ShadowCaster@Ogre@@UAE@XZ
       1297  510 00008A35 ??1ShadowCasterSceneQueryListener@SceneManager@Ogre@@UAE@XZ
       1298  511 0002CCFA ??1ShadowRenderable@Ogre@@UAE@XZ
       1299  512 00022FD4 ??1ShadowTextureManager@Ogre@@UAE@XZ
       1300  513 000043BD ??1ShadowVolumeExtrudeProgram@Ogre@@QAE@XZ
       1301  514 000377E5 ??1SharedParamsTranslator@Ogre@@UAE@XZ
       1302  515 0003C380 ??1SimpleRenderable@Ogre@@UAE@XZ
       1303  516 0003BAD9 ??1SimpleSpline@Ogre@@QAE@XZ
       1304  517 00003BCF ??1Skeleton@Ogre@@UAE@XZ
       1305  518 0000B2D0 ??1SkeletonInstance@Ogre@@UAE@XZ
       1306  519 0003FABC ??1SkeletonManager@Ogre@@UAE@XZ
       1307  51A 000390D1 ??1SkeletonSerializer@Ogre@@UAE@XZ
       1308  51B 0002BDA5 ??1SphereSceneQuery@Ogre@@UAE@XZ
       1309  51C 00017D0A ??1StaticGeometry@Ogre@@UAE@XZ
       1310  51D 0003841F ??1StreamSerialiser@Ogre@@UAE@XZ
       1311  51E 0002863C ??1StringInterface@Ogre@@UAE@XZ
       1312  51F 0000ACEA ??1SubEntity@Ogre@@MAE@XZ
       1313  520 00028F92 ??1SubMesh@Ogre@@QAE@XZ
       1314  521 0001CE31 ??1TagPoint@Ogre@@UAE@XZ
       1315  522 0001A087 ??1TangentSpaceCalc@Ogre@@UAE@XZ
       1316  523 00015AB4 ??1Technique@Ogre@@QAE@XZ
       1317  524 0000916F ??1TechniqueTranslator@Ogre@@UAE@XZ
       1318  525 00011879 ??1TempBlendedBufferInfo@Ogre@@UAE@XZ
       1319  526 00039595 ??1TexCoordModifierControllerValue@Ogre@@UAE@XZ
       1320  527 0001B84C ??1Texture@Ogre@@UAE@XZ
       1321  528 00002E5F ??1TextureFrameControllerValue@Ogre@@UAE@XZ
       1322  529 0003F8E6 ??1TextureManager@Ogre@@UAE@XZ
       1323  52A 00033B54 ??1TextureSourceTranslator@Ogre@@UAE@XZ
       1324  52B 00013FC5 ??1TextureUnitState@Ogre@@QAE@XZ
       1325  52C 000183F9 ??1TextureUnitTranslator@Ogre@@UAE@XZ
       1326  52D 000089A9 ??1ThreadHandle@Ogre@@QAE@XZ
       1327  52E 0003015C ??1Timer@Ogre@@QAE@XZ
       1328  52F 00009FB1 ??1TransformKeyFrame@Ogre@@UAE@XZ
       1329  530 0002A8D3 ??1UTFString@Ogre@@QAE@XZ
       1330  531 00011A90 ??1UnifiedHighLevelGpuProgram@Ogre@@UAE@XZ
       1331  532 0002894D ??1UnimplementedException@Ogre@@UAE@XZ
       1332  533 00038C67 ??1UserObjectBindings@Ogre@@UAE@XZ
       1333  534 00008BBB ??1VariableAccessAbstractNode@Ogre@@UAE@XZ
       1334  535 0003AC47 ??1VertexAnimationTrack@Ogre@@UAE@XZ
       1335  536 00024532 ??1VertexBufferBinding@Ogre@@UAE@XZ
       1336  537 00018AAC ??1VertexCacheProfiler@Ogre@@QAE@XZ
       1337  538 0001B405 ??1VertexData@Ogre@@QAE@XZ
       1338  539 00027ABB ??1VertexDeclaration@Ogre@@UAE@XZ
       1339  53A 00034C93 ??1VertexElement@Ogre@@QAE@XZ
       1340  53B 00037F1F ??1VertexMorphKeyFrame@Ogre@@UAE@XZ
       1341  53C 0002B328 ??1VertexPoseKeyFrame@Ogre@@UAE@XZ
       1342  53D 00006631 ??1Viewport@Ogre@@UAE@XZ
       1343  53E 00009C8C ??1VisibleObjectsBoundsInfo@Ogre@@QAE@XZ
       1344  53F 0000E7FA ??1WaveformControllerFunction@Ogre@@UAE@XZ
       1345  540 0003069D ??1WindowEventListener@Ogre@@UAE@XZ
       1346  541 00032F56 ??1WireBoundingBox@Ogre@@UAE@XZ
       1347  542 00012D28 ??1WorkQueue@Ogre@@UAE@XZ
       1348  543 0000A493 ??1ZipArchive@Ogre@@UAE@XZ
       1349  544 00006A32 ??1invalid_data@UTFString@Ogre@@UAE@XZ
       1350  545 00035B39 ??2?$AllocatedObject@V?$CategorisedAllocPolicy@$00@Ogre@@@Ogre@@SAPAXI@Z
       1351  546 0001A35C ??2?$AllocatedObject@V?$CategorisedAllocPolicy@$00@Ogre@@@Ogre@@SAPAXIPAX@Z
       1352  547 0002A428 ??2?$AllocatedObject@V?$CategorisedAllocPolicy@$00@Ogre@@@Ogre@@SAPAXIPBDH0@Z
       1353  548 0003BD81 ??2?$AllocatedObject@V?$CategorisedAllocPolicy@$01@Ogre@@@Ogre@@SAPAXI@Z
       1354  549 0001A3E3 ??2?$AllocatedObject@V?$CategorisedAllocPolicy@$01@Ogre@@@Ogre@@SAPAXIPAX@Z
       1355  54A 0002A595 ??2?$AllocatedObject@V?$CategorisedAllocPolicy@$01@Ogre@@@Ogre@@SAPAXIPBDH0@Z
       1356  54B 0003053A ??2?$AllocatedObject@V?$CategorisedAllocPolicy@$02@Ogre@@@Ogre@@SAPAXI@Z
       1357  54C 00018E80 ??2?$AllocatedObject@V?$CategorisedAllocPolicy@$02@Ogre@@@Ogre@@SAPAXIPAX@Z
       1358  54D 000102A3 ??2?$AllocatedObject@V?$CategorisedAllocPolicy@$02@Ogre@@@Ogre@@SAPAXIPBDH0@Z
       1359  54E 00012053 ??2?$AllocatedObject@V?$CategorisedAllocPolicy@$03@Ogre@@@Ogre@@SAPAXI@Z
       1360  54F 000148C1 ??2?$AllocatedObject@V?$CategorisedAllocPolicy@$03@Ogre@@@Ogre@@SAPAXIPAX@Z
       1361  550 00014655 ??2?$AllocatedObject@V?$CategorisedAllocPolicy@$03@Ogre@@@Ogre@@SAPAXIPBDH0@Z
       1362  551 0000BDCF ??2?$AllocatedObject@V?$CategorisedAllocPolicy@$04@Ogre@@@Ogre@@SAPAXI@Z
       1363  552 000136A1 ??2?$AllocatedObject@V?$CategorisedAllocPolicy@$04@Ogre@@@Ogre@@SAPAXIPAX@Z
       1364  553 0000DB9D ??2?$AllocatedObject@V?$CategorisedAllocPolicy@$04@Ogre@@@Ogre@@SAPAXIPBDH0@Z
       1365  554 00024B9F ??2?$AllocatedObject@V?$CategorisedAllocPolicy@$05@Ogre@@@Ogre@@SAPAXI@Z
       1366  555 00002856 ??2?$AllocatedObject@V?$CategorisedAllocPolicy@$05@Ogre@@@Ogre@@SAPAXIPAX@Z
       1367  556 0002E64F ??2?$AllocatedObject@V?$CategorisedAllocPolicy@$05@Ogre@@@Ogre@@SAPAXIPBDH0@Z
       1368  557 00011018 ??2?$AllocatedObject@V?$CategorisedAllocPolicy@$06@Ogre@@@Ogre@@SAPAXI@Z
       1369  558 00029118 ??2?$AllocatedObject@V?$CategorisedAllocPolicy@$06@Ogre@@@Ogre@@SAPAXIPAX@Z
       1370  559 00033E4C ??2?$AllocatedObject@V?$CategorisedAllocPolicy@$06@Ogre@@@Ogre@@SAPAXIPBDH0@Z
       1371  55A 0000B0DC ??2?$AllocatedObject@V?$CategorisedAllocPolicy@$0A@@Ogre@@@Ogre@@SAPAXI@Z
       1372  55B 00039739 ??2?$AllocatedObject@V?$CategorisedAllocPolicy@$0A@@Ogre@@@Ogre@@SAPAXIPAX@Z
       1373  55C 000133FE ??2?$AllocatedObject@V?$CategorisedAllocPolicy@$0A@@Ogre@@@Ogre@@SAPAXIPBDH0@Z
       1374  55D 0003CC9F ??3?$AllocatedObject@V?$CategorisedAllocPolicy@$00@Ogre@@@Ogre@@SAXPAX0@Z
       1375  55E 0000D2D3 ??3?$AllocatedObject@V?$CategorisedAllocPolicy@$00@Ogre@@@Ogre@@SAXPAX@Z
       1376  55F 00021503 ??3?$AllocatedObject@V?$CategorisedAllocPolicy@$00@Ogre@@@Ogre@@SAXPAXPBDH1@Z
       1377  560 00030530 ??3?$AllocatedObject@V?$CategorisedAllocPolicy@$01@Ogre@@@Ogre@@SAXPAX0@Z
       1378  561 000239AC ??3?$AllocatedObject@V?$CategorisedAllocPolicy@$01@Ogre@@@Ogre@@SAXPAX@Z
       1379  562 0003FA26 ??3?$AllocatedObject@V?$CategorisedAllocPolicy@$01@Ogre@@@Ogre@@SAXPAXPBDH1@Z
       1380  563 00031322 ??3?$AllocatedObject@V?$CategorisedAllocPolicy@$02@Ogre@@@Ogre@@SAXPAX0@Z
       1381  564 0001EFE7 ??3?$AllocatedObject@V?$CategorisedAllocPolicy@$02@Ogre@@@Ogre@@SAXPAX@Z
       1382  565 0001FCFD ??3?$AllocatedObject@V?$CategorisedAllocPolicy@$02@Ogre@@@Ogre@@SAXPAXPBDH1@Z
       1383  566 00004462 ??3?$AllocatedObject@V?$CategorisedAllocPolicy@$03@Ogre@@@Ogre@@SAXPAX0@Z
       1384  567 000034FE ??3?$AllocatedObject@V?$CategorisedAllocPolicy@$03@Ogre@@@Ogre@@SAXPAX@Z
       1385  568 0000F47F ??3?$AllocatedObject@V?$CategorisedAllocPolicy@$03@Ogre@@@Ogre@@SAXPAXPBDH1@Z
       1386  569 0000C6D0 ??3?$AllocatedObject@V?$CategorisedAllocPolicy@$04@Ogre@@@Ogre@@SAXPAX0@Z
       1387  56A 0003F9FE ??3?$AllocatedObject@V?$CategorisedAllocPolicy@$04@Ogre@@@Ogre@@SAXPAX@Z
       1388  56B 00035279 ??3?$AllocatedObject@V?$CategorisedAllocPolicy@$04@Ogre@@@Ogre@@SAXPAXPBDH1@Z
       1389  56C 0001739B ??3?$AllocatedObject@V?$CategorisedAllocPolicy@$05@Ogre@@@Ogre@@SAXPAX0@Z
       1390  56D 0003724A ??3?$AllocatedObject@V?$CategorisedAllocPolicy@$05@Ogre@@@Ogre@@SAXPAX@Z
       1391  56E 00020E6E ??3?$AllocatedObject@V?$CategorisedAllocPolicy@$05@Ogre@@@Ogre@@SAXPAXPBDH1@Z
       1392  56F 0000C694 ??3?$AllocatedObject@V?$CategorisedAllocPolicy@$06@Ogre@@@Ogre@@SAXPAX0@Z
       1393  570 0003FC88 ??3?$AllocatedObject@V?$CategorisedAllocPolicy@$06@Ogre@@@Ogre@@SAXPAX@Z
       1394  571 0002A62B ??3?$AllocatedObject@V?$CategorisedAllocPolicy@$06@Ogre@@@Ogre@@SAXPAXPBDH1@Z
       1395  572 0001DE3F ??3?$AllocatedObject@V?$CategorisedAllocPolicy@$0A@@Ogre@@@Ogre@@SAXPAX0@Z
       1396  573 00040313 ??3?$AllocatedObject@V?$CategorisedAllocPolicy@$0A@@Ogre@@@Ogre@@SAXPAX@Z
       1397  574 000013CA ??3?$AllocatedObject@V?$CategorisedAllocPolicy@$0A@@Ogre@@@Ogre@@SAXPAXPBDH1@Z
       1398  575 00023146 ??4?$AllocatedObject@V?$CategorisedAllocPolicy@$00@Ogre@@@Ogre@@QAEAAV01@ABV01@@Z
       1399  576 000287DB ??4?$AllocatedObject@V?$CategorisedAllocPolicy@$01@Ogre@@@Ogre@@QAEAAV01@ABV01@@Z
       1400  577 0002EEAB ??4?$AllocatedObject@V?$CategorisedAllocPolicy@$02@Ogre@@@Ogre@@QAEAAV01@ABV01@@Z
       1401  578 00029028 ??4?$AllocatedObject@V?$CategorisedAllocPolicy@$03@Ogre@@@Ogre@@QAEAAV01@ABV01@@Z
       1402  579 00015163 ??4?$AllocatedObject@V?$CategorisedAllocPolicy@$04@Ogre@@@Ogre@@QAEAAV01@ABV01@@Z
       1403  57A 00016ECD ??4?$AllocatedObject@V?$CategorisedAllocPolicy@$05@Ogre@@@Ogre@@QAEAAV01@ABV01@@Z
       1404  57B 00017792 ??4?$AllocatedObject@V?$CategorisedAllocPolicy@$06@Ogre@@@Ogre@@QAEAAV01@ABV01@@Z
       1405  57C 00032EAC ??4?$AllocatedObject@V?$CategorisedAllocPolicy@$0A@@Ogre@@@Ogre@@QAEAAV01@ABV01@@Z
       1406  57D 000068F7 ??4?$ControllerFunction@M@Ogre@@QAEAAV01@ABV01@@Z
       1407  57E 00018FDE ??4?$ControllerValue@M@Ogre@@QAEAAV01@ABV01@@Z
       1408  57F 00039C5C ??4?$FactoryObj@VArchive@Ogre@@@Ogre@@QAEAAV01@ABV01@@Z
       1409  580 00013B4C ??4?$FactoryObj@VParticleSystemRenderer@Ogre@@@Ogre@@QAEAAV01@ABV01@@Z
       1410  581 0001F6A9 ??4?$SharedPtr@VHardwareCounterBuffer@Ogre@@@Ogre@@QAEAAV01@ABV01@@Z
       1411  582 00003C56 ??4?$SharedPtr@VHardwareIndexBuffer@Ogre@@@Ogre@@QAEAAV01@ABV01@@Z
       1412  583 000258BA ??4?$SharedPtr@VHardwarePixelBuffer@Ogre@@@Ogre@@QAEAAV01@ABV01@@Z
       1413  584 00001028 ??4?$SharedPtr@VHardwareUniformBuffer@Ogre@@@Ogre@@QAEAAV01@ABV01@@Z
       1414  585 00017936 ??4?$SharedPtr@VHardwareVertexBuffer@Ogre@@@Ogre@@QAEAAV01@ABV01@@Z
       1415  586 0000E192 ??4?$iterator@Urandom_access_iterator_tag@std@@GHPAGAAG@std@@QAEAAU01@ABU01@@Z
       1416  587 00020EE1 ??4AbstractNode@Ogre@@QAEAAV01@ABV01@@Z
       1417  588 00009A07 ??4AlignedMemory@Ogre@@QAEAAV01@ABV01@@Z
       1418  589 0003E3D8 ??4AnimableObject@Ogre@@QAEAAV01@ABV01@@Z
       1419  58A 0002E5EB ??4AnimableValue@Ogre@@QAEAAV01@ABV01@@Z
       1420  58B 0001B5EF ??4Animation@Ogre@@QAEAAV01@ABV01@@Z
       1421  58C 00029EE2 ??4AnimationContainer@Ogre@@QAEAAV01@ABV01@@Z
       1422  58D 0003C899 ??4AnimationControllerFunction@Ogre@@QAEAAV01@ABV01@@Z
       1423  58E 0000451B ??4AnimationState@Ogre@@QAEAAV01@ABV01@@Z
       1424  58F 00032FA1 ??4AnimationStateControllerValue@Ogre@@QAEAAV01@ABV01@@Z
       1425  590 00002054 ??4AnimationTrack@Ogre@@QAEAAV01@ABV01@@Z
       1426  591 00030B7A ??4Archive@Ogre@@QAEAAV01@ABV01@@Z
       1427  592 00022CC3 ??4ArchiveFactory@Ogre@@QAEAAV01@ABV01@@Z
       1428  593 00014277 ??4AtomAbstractNode@Ogre@@QAEAAV01@ABV01@@Z
       1429  594 0002203E ??4AutoParamDataSource@Ogre@@QAEAAV01@ABV01@@Z
       1430  595 0000A9F7 ??4AxisAlignedBox@Ogre@@QAEAAV01@ABV01@@Z
       1431  596 00008021 ??4AxisAlignedBoxSceneQuery@Ogre@@QAEAAV01@ABV01@@Z
       1432  597 00035A03 ??4Barrier@Ogre@@QAEAAV01@ABV01@@Z
       1433  598 0000F06F ??4BaseInstanceBatchVTF@Ogre@@QAEAAV01@ABV01@@Z
       1434  599 0003B62E ??4BatchInstance@InstancedGeometry@Ogre@@QAEAAV012@ABV012@@Z
       1435  59A 0002CECB ??4Billboard@Ogre@@QAEAAV01@ABV01@@Z
       1436  59B 00004052 ??4BillboardChain@Ogre@@QAEAAV01@ABV01@@Z
       1437  59C 00015B90 ??4BillboardChainFactory@Ogre@@QAEAAV01@ABV01@@Z
       1438  59D 0001A6C7 ??4BillboardParticleRenderer@Ogre@@QAEAAV01@ABV01@@Z
       1439  59E 0001AEEC ??4BillboardParticleRendererFactory@Ogre@@QAEAAV01@ABV01@@Z
       1440  59F 00029D25 ??4BillboardSet@Ogre@@QAEAAV01@ABV01@@Z
       1441  5A0 00005EBB ??4BillboardSetFactory@Ogre@@QAEAAV01@ABV01@@Z
       1442  5A1 00038AFF ??4Bone@Ogre@@QAEAAV01@ABV01@@Z
       1443  5A2 00037A79 ??4BuiltinScriptTranslatorManager@Ogre@@QAEAAV01@ABV01@@Z
       1444  5A3 0003AF8A ??4CmdAdjacency@GpuProgram@Ogre@@QAEAAV012@ABV012@@Z
       1445  5A4 0001E150 ??4CmdAngle@EmitterCommands@Ogre@@QAEAAV012@ABV012@@Z
       1446  5A5 0003DBE5 ??4CmdColour@EmitterCommands@Ogre@@QAEAAV012@ABV012@@Z
       1447  5A6 00001884 ??4CmdColourRangeEnd@EmitterCommands@Ogre@@QAEAAV012@ABV012@@Z
       1448  5A7 0001B414 ??4CmdColourRangeStart@EmitterCommands@Ogre@@QAEAAV012@ABV012@@Z
       1449  5A8 0000E65B ??4CmdComputeGroupDims@GpuProgram@Ogre@@QAEAAV012@ABV012@@Z
       1450  5A9 0002ABE4 ??4CmdDirPositionRef@EmitterCommands@Ogre@@QAEAAV012@ABV012@@Z
       1451  5AA 00003116 ??4CmdDirection@EmitterCommands@Ogre@@QAEAAV012@ABV012@@Z
       1452  5AB 00020BB7 ??4CmdDuration@EmitterCommands@Ogre@@QAEAAV012@ABV012@@Z
       1453  5AC 00038D5C ??4CmdEmissionRate@EmitterCommands@Ogre@@QAEAAV012@ABV012@@Z
       1454  5AD 000353B4 ??4CmdEmittedEmitter@EmitterCommands@Ogre@@QAEAAV012@ABV012@@Z
       1455  5AE 00007829 ??4CmdManualNamedConstsFile@GpuProgram@Ogre@@QAEAAV012@ABV012@@Z
       1456  5AF 00024C6C ??4CmdMaxDuration@EmitterCommands@Ogre@@QAEAAV012@ABV012@@Z
       1457  5B0 00027958 ??4CmdMaxRepeatDelay@EmitterCommands@Ogre@@QAEAAV012@ABV012@@Z
       1458  5B1 00038B31 ??4CmdMaxTTL@EmitterCommands@Ogre@@QAEAAV012@ABV012@@Z
       1459  5B2 0000FC09 ??4CmdMaxVelocity@EmitterCommands@Ogre@@QAEAAV012@ABV012@@Z
       1460  5B3 0000AECA ??4CmdMinDuration@EmitterCommands@Ogre@@QAEAAV012@ABV012@@Z
       1461  5B4 0000EC37 ??4CmdMinRepeatDelay@EmitterCommands@Ogre@@QAEAAV012@ABV012@@Z
       1462  5B5 00031471 ??4CmdMinTTL@EmitterCommands@Ogre@@QAEAAV012@ABV012@@Z
       1463  5B6 0000BD0C ??4CmdMinVelocity@EmitterCommands@Ogre@@QAEAAV012@ABV012@@Z
       1464  5B7 00035F3A ??4CmdMorph@GpuProgram@Ogre@@QAEAAV012@ABV012@@Z
       1465  5B8 000030E9 ??4CmdName@EmitterCommands@Ogre@@QAEAAV012@ABV012@@Z
       1466  5B9 0003B77D ??4CmdPose@GpuProgram@Ogre@@QAEAAV012@ABV012@@Z
       1467  5BA 0001F811 ??4CmdPosition@EmitterCommands@Ogre@@QAEAAV012@ABV012@@Z
       1468  5BB 0000895E ??4CmdRepeatDelay@EmitterCommands@Ogre@@QAEAAV012@ABV012@@Z
       1469  5BC 0002B62F ??4CmdSkeletal@GpuProgram@Ogre@@QAEAAV012@ABV012@@Z
       1470  5BD 0003FA99 ??4CmdSyntax@GpuProgram@Ogre@@QAEAAV012@ABV012@@Z
       1471  5BE 00027FE8 ??4CmdTTL@EmitterCommands@Ogre@@QAEAAV012@ABV012@@Z
       1472  5BF 0001280A ??4CmdType@GpuProgram@Ogre@@QAEAAV012@ABV012@@Z
       1473  5C0 00025829 ??4CmdUp@EmitterCommands@Ogre@@QAEAAV012@ABV012@@Z
       1474  5C1 00005B32 ??4CmdVTF@GpuProgram@Ogre@@QAEAAV012@ABV012@@Z
       1475  5C2 00039220 ??4CmdVelocity@EmitterCommands@Ogre@@QAEAAV012@ABV012@@Z
       1476  5C3 00007441 ??4Codec@Ogre@@QAEAAV01@ABV01@@Z
       1477  5C4 00038514 ??4ColourValue@Ogre@@QAEAAV01@ABV01@@Z
       1478  5C5 000179E5 ??4CompositionPass@Ogre@@QAEAAV01@ABV01@@Z
       1479  5C6 00038555 ??4CompositionPassTranslator@Ogre@@QAEAAV01@ABV01@@Z
       1480  5C7 0003DD11 ??4CompositionTargetPass@Ogre@@QAEAAV01@ABV01@@Z
       1481  5C8 0003A328 ??4CompositionTargetPassTranslator@Ogre@@QAEAAV01@ABV01@@Z
       1482  5C9 00036AC5 ??4CompositionTechnique@Ogre@@QAEAAV01@ABV01@@Z
       1483  5CA 00007950 ??4CompositionTechniqueTranslator@Ogre@@QAEAAV01@ABV01@@Z
       1484  5CB 000052E5 ??4CompositorChain@Ogre@@QAEAAV01@ABV01@@Z
       1485  5CC 0002867D ??4CompositorInstance@Ogre@@QAEAAV01@ABV01@@Z
       1486  5CD 0001FC58 ??4CompositorLogic@Ogre@@QAEAAV01@ABV01@@Z
       1487  5CE 0003A710 ??4CompositorTranslator@Ogre@@QAEAAV01@ABV01@@Z
       1488  5CF 0000A7DB ??4ConfigDialog@Ogre@@QAEAAV01@ABV01@@Z
       1489  5D0 0000FE0C ??4ConfigFile@Ogre@@QAEAAV01@ABV01@@Z
       1490  5D1 000213F5 ??4ConvexBody@Ogre@@QAEAAV01@ABV01@@Z
       1491  5D2 000254DC ??4CustomCompositionPass@Ogre@@QAEAAV01@ABV01@@Z
       1492  5D3 0000274D ??4DDSCodec@Ogre@@QAEAAV01@ABV01@@Z
       1493  5D4 000157A8 ??4DataStream@Ogre@@QAEAAV01@ABV01@@Z
       1494  5D5 00008EE5 ??4DefaultAxisAlignedBoxSceneQuery@Ogre@@QAEAAV01@ABV01@@Z
       1495  5D6 00012431 ??4DefaultHardwareCounterBuffer@Ogre@@QAEAAV01@ABV01@@Z
       1496  5D7 000197D6 ??4DefaultHardwareIndexBuffer@Ogre@@QAEAAV01@ABV01@@Z
       1497  5D8 0000D8CD ??4DefaultHardwareUniformBuffer@Ogre@@QAEAAV01@ABV01@@Z
       1498  5D9 00024F0A ??4DefaultHardwareVertexBuffer@Ogre@@QAEAAV01@ABV01@@Z
       1499  5DA 00037E7F ??4DefaultIntersectionSceneQuery@Ogre@@QAEAAV01@ABV01@@Z
       1500  5DB 0002C89F ??4DefaultPlaneBoundedVolumeListSceneQuery@Ogre@@QAEAAV01@ABV01@@Z
       1501  5DC 00009F1B ??4DefaultRaySceneQuery@Ogre@@QAEAAV01@ABV01@@Z
       1502  5DD 00028DE9 ??4DefaultSceneManagerFactory@Ogre@@QAEAAV01@ABV01@@Z
       1503  5DE 00032D94 ??4DefaultShadowCameraSetup@Ogre@@QAEAAV01@ABV01@@Z
       1504  5DF 0003CA42 ??4DefaultSphereSceneQuery@Ogre@@QAEAAV01@ABV01@@Z
       1505  5E0 0001F505 ??4DeflateStream@Ogre@@QAEAAV01@ABV01@@Z
       1506  5E1 000247F8 ??4DepthBuffer@Ogre@@QAEAAV01@ABV01@@Z
       1507  5E2 000345EA ??4DistanceLodStrategyBase@Ogre@@QAEAAV01@ABV01@@Z
       1508  5E3 0001681A ??4DriverVersion@Ogre@@QAEAAU01@ABU01@@Z
       1509  5E4 0001FA23 ??4DualQuaternion@Ogre@@QAEAAV01@ABV01@@Z
       1510  5E5 0003B1C9 ??4DynLib@Ogre@@QAEAAV01@ABV01@@Z
       1511  5E6 0002EAA0 ??4EdgeData@Ogre@@QAEAAV01@ABV01@@Z
       1512  5E7 00040106 ??4EdgeListBuilder@Ogre@@QAEAAV01@ABV01@@Z
       1513  5E8 000242BC ??4Element@BillboardChain@Ogre@@QAEAAV012@ABV012@@Z
       1514  5E9 0002B387 ??4EmbeddedZipArchiveFactory@Ogre@@QAEAAV01@ABV01@@Z
       1515  5EA 0000ADB2 ??4Entity@Ogre@@QAEAAV01@ABV01@@Z
       1516  5EB 000130DE ??4EntityFactory@Ogre@@QAEAAV01@ABV01@@Z
       1517  5EC 000183C2 ??4EntityShadowRenderable@Entity@Ogre@@QAEAAV012@ABV012@@Z
       1518  5ED 00003616 ??4ErrorDialog@Ogre@@QAEAAV01@ABV01@@Z
       1519  5EE 00012742 ??4Exception@Ogre@@QAEAAV01@ABV01@@Z
       1520  5EF 0001244F ??4ExternalTextureSource@Ogre@@QAEAAV01@ABV01@@Z
       1521  5F0 0000F3CB ??4FileHandleDataStream@Ogre@@QAEAAV01@ABV01@@Z
       1522  5F1 0003AAC6 ??4FileNotFoundException@Ogre@@QAEAAV01@ABV01@@Z
       1523  5F2 00015EFB ??4FileStreamDataStream@Ogre@@QAEAAV01@ABV01@@Z
       1524  5F3 00013359 ??4FileSystemArchiveFactory@Ogre@@QAEAAV01@ABV01@@Z
       1525  5F4 000267D8 ??4FileSystemLayer@Ogre@@QAEAAV01@ABV01@@Z
       1526  5F5 00037065 ??4FloatGpuParameterControllerValue@Ogre@@QAEAAV01@ABV01@@Z
       1527  5F6 0003EA45 ??4FocusedShadowCameraSetup@Ogre@@QAEAAV01@ABV01@@Z
       1528  5F7 0003A931 ??4FrameListener@Ogre@@QAEAAV01@ABV01@@Z
       1529  5F8 0003D8E8 ??4FrameTimeControllerValue@Ogre@@QAEAAV01@ABV01@@Z
       1530  5F9 0000C649 ??4FreeImageCodec@Ogre@@QAEAAV01@ABV01@@Z
       1531  5FA 0002CBBA ??4GeometryBucket@InstancedGeometry@Ogre@@QAEAAV012@ABV012@@Z
       1532  5FB 0001B21B ??4GeometryBucket@StaticGeometry@Ogre@@QAEAAV012@ABV012@@Z
       1533  5FC 000254AA ??4GpuConstantDefinition@Ogre@@QAEAAU01@ABU01@@Z
       1534  5FD 000182B4 ??4GpuLogicalIndexUse@Ogre@@QAEAAU01@ABU01@@Z
       1535  5FE 00010492 ??4GpuNamedConstants@Ogre@@QAEAAU01@ABU01@@Z
       1536  5FF 00028E75 ??4GpuNamedConstantsSerializer@Ogre@@QAEAAV01@ABV01@@Z
       1537  600 000326C3 ??4GpuProgramParameters@Ogre@@QAEAAV01@ABV01@@Z
       1538  601 0000340E ??4GpuProgramTranslator@Ogre@@QAEAAV01@ABV01@@Z
       1539  602 00004B79 ??4GpuProgramUsage@Ogre@@QAEAAV01@ABV01@@Z
       1540  603 00003620 ??4GpuSharedParameters@Ogre@@QAEAAV01@ABV01@@Z
       1541  604 0001F992 ??4GpuSharedParametersUsage@Ogre@@QAEAAV01@ABV01@@Z
       1542  605 00028614 ??4HardwareBuffer@Ogre@@QAEAAV01@ABV01@@Z
       1543  606 00031B9C ??4HardwareBufferLicensee@Ogre@@QAEAAV01@ABV01@@Z
       1544  607 0002EA6E ??4HardwareCounterBuffer@Ogre@@QAEAAV01@ABV01@@Z
       1545  608 00038B95 ??4HardwareCounterBufferSharedPtr@Ogre@@QAEAAV01@ABV01@@Z
       1546  609 000141A0 ??4HardwareIndexBuffer@Ogre@@QAEAAV01@ABV01@@Z
       1547  60A 00008AC6 ??4HardwareIndexBufferSharedPtr@Ogre@@QAEAAV01@ABV01@@Z
       1548  60B 00036B56 ??4HardwareOcclusionQuery@Ogre@@QAEAAV01@ABV01@@Z
       1549  60C 000343C9 ??4HardwarePixelBuffer@Ogre@@QAEAAV01@ABV01@@Z
       1550  60D 0001EFE2 ??4HardwarePixelBufferSharedPtr@Ogre@@QAEAAV01@ABV01@@Z
       1551  60E 0001DBDD ??4HardwareUniformBuffer@Ogre@@QAEAAV01@ABV01@@Z
       1552  60F 0001956F ??4HardwareUniformBufferSharedPtr@Ogre@@QAEAAV01@ABV01@@Z
       1553  610 0000B02D ??4HardwareVertexBuffer@Ogre@@QAEAAV01@ABV01@@Z
       1554  611 00030323 ??4HardwareVertexBufferSharedPtr@Ogre@@QAEAAV01@ABV01@@Z
       1555  612 0003467B ??4HighLevelGpuProgramFactory@Ogre@@QAEAAV01@ABV01@@Z
       1556  613 00006ABE ??4IOException@Ogre@@QAEAAV01@ABV01@@Z
       1557  614 0003995A ??4Image@Ogre@@QAEAAV01@ABV01@@Z
       1558  615 0003B0A7 ??4ImageCodec@Ogre@@QAEAAV01@ABV01@@Z
       1559  616 0003AEF9 ??4ImportAbstractNode@Ogre@@QAEAAV01@ABV01@@Z
       1560  617 0003193A ??4InstanceBatch@Ogre@@QAEAAV01@ABV01@@Z
       1561  618 00035EA4 ??4InstanceBatchHW@Ogre@@QAEAAV01@ABV01@@Z
       1562  619 00033F64 ??4InstanceBatchHW_VTF@Ogre@@QAEAAV01@ABV01@@Z
       1563  61A 0001E13C ??4InstanceBatchShader@Ogre@@QAEAAV01@ABV01@@Z
       1564  61B 0001598D ??4InstanceBatchVTF@Ogre@@QAEAAV01@ABV01@@Z
       1565  61C 0001B1F8 ??4InstancedEntity@Ogre@@QAEAAV01@ABV01@@Z
       1566  61D 00008710 ??4InstancedGeometry@Ogre@@QAEAAV01@ABV01@@Z
       1567  61E 0003A45E ??4InstancedObject@InstancedGeometry@Ogre@@QAEAAV012@ABV012@@Z
       1568  61F 00018395 ??4InterlockedCompareExchange64Wrapper@Ogre@@QAEAAU01@ABU01@@Z
       1569  620 00002C2A ??4InternalErrorException@Ogre@@QAEAAV01@ABV01@@Z
       1570  621 00037CFE ??4IntersectionSceneQuery@Ogre@@QAEAAV01@ABV01@@Z
       1571  622 0000E1C4 ??4IntersectionSceneQueryListener@Ogre@@QAEAAV01@ABV01@@Z
       1572  623 0000BD2F ??4IntersectionSceneQueryResult@Ogre@@QAEAAU01@ABU01@@Z
       1573  624 00024A78 ??4InvalidCallException@Ogre@@QAEAAV01@ABV01@@Z
       1574  625 0002D8E9 ??4InvalidParametersException@Ogre@@QAEAAV01@ABV01@@Z
       1575  626 0003F797 ??4InvalidStateException@Ogre@@QAEAAV01@ABV01@@Z
       1576  627 0003381B ??4ItemIdentityException@Ogre@@QAEAAV01@ABV01@@Z
       1577  628 00029479 ??4KeyFrame@Ogre@@QAEAAV01@ABV01@@Z
       1578  629 0000E59D ??4LODBucket@InstancedGeometry@Ogre@@QAEAAV012@ABV012@@Z
       1579  62A 00032849 ??4LODBucket@StaticGeometry@Ogre@@QAEAAV012@ABV012@@Z
       1580  62B 000161D0 ??4LODShadowRenderable@LODBucket@StaticGeometry@Ogre@@QAEAAV0123@ABV0123@@Z
       1581  62C 00017A53 ??4LayerBlendModeEx@Ogre@@QAEAAV01@ABV01@@Z
       1582  62D 0003B719 ??4LiSPSMShadowCameraSetup@Ogre@@QAEAAV01@ABV01@@Z
       1583  62E 00003968 ??4Light@Ogre@@QAEAAV01@ABV01@@Z
       1584  62F 00027421 ??4LightFactory@Ogre@@QAEAAV01@ABV01@@Z
       1585  630 00011A77 ??4LightInfo@SceneManager@Ogre@@QAEAAU012@ABU012@@Z
       1586  631 000054ED ??4LightweightMutex@Ogre@@QAEAAV01@ABV01@@Z
       1587  632 00010DE8 ??4LinearControllerFunction@Ogre@@QAEAAV01@ABV01@@Z
       1588  633 00016CF2 ??4Listener@AnimationTrack@Ogre@@QAEAAV012@ABV012@@Z
       1589  634 00032579 ??4Listener@Camera@Ogre@@QAEAAV012@ABV012@@Z
       1590  635 0002F0A4 ??4Listener@CompositorInstance@Ogre@@QAEAAV012@ABV012@@Z
       1591  636 0002A0DB ??4Listener@MovableObject@Ogre@@QAEAAV012@ABV012@@Z
       1592  637 000024BE ??4Listener@Node@Ogre@@QAEAAV012@ABV012@@Z
       1593  638 00008616 ??4Listener@RenderSystem@Ogre@@QAEAAV012@ABV012@@Z
       1594  639 0002E24E ??4Listener@ResourceBackgroundQueue@Ogre@@QAEAAV012@ABV012@@Z
       1595  63A 00037A10 ??4Listener@Viewport@Ogre@@QAEAAV012@ABV012@@Z
       1596  63B 000136CE ??4LodListener@Ogre@@QAEAAV01@ABV01@@Z
       1597  63C 0000D6B1 ??4LodStrategy@Ogre@@QAEAAV01@ABV01@@Z
       1598  63D 000105DC ??4ManualObject@Ogre@@QAEAAV01@ABV01@@Z
       1599  63E 000249E7 ??4ManualObjectFactory@Ogre@@QAEAAV01@ABV01@@Z
       1600  63F 0000A0A1 ??4ManualObjectSection@ManualObject@Ogre@@QAEAAV012@ABV012@@Z
       1601  640 0001F44C ??4ManualObjectSectionShadowRenderable@ManualObject@Ogre@@QAEAAV012@ABV012@@Z
       1602  641 00030CC4 ??4ManualResourceLoader@Ogre@@QAEAAV01@ABV01@@Z
       1603  642 00039FB3 ??4Material@Ogre@@QAEAAV01@ABV01@@Z
       1604  643 00034CB6 ??4MaterialBucket@InstancedGeometry@Ogre@@QAEAAV012@ABV012@@Z
       1605  644 0002D808 ??4MaterialBucket@StaticGeometry@Ogre@@QAEAAV012@ABV012@@Z
       1606  645 0003CF74 ??4MaterialSerializer@Ogre@@QAEAAV01@ABV01@@Z
       1607  646 0003251F ??4MaterialTranslator@Ogre@@QAEAAV01@ABV01@@Z
       1608  647 0002496A ??4Math@Ogre@@QAEAAV01@ABV01@@Z
       1609  648 00012891 ??4Matrix3@Ogre@@QAEAAV01@ABV01@@Z
       1610  649 0002996A ??4Matrix4@Ogre@@QAEAAV01@ABV01@@Z
       1611  64A 000127C4 ??4Matrix4@Ogre@@QAEXABVMatrix3@1@@Z
       1612  64B 0002ECC1 ??4MemoryDataStream@Ogre@@QAEAAV01@ABV01@@Z
       1613  64C 000110EA ??4MeshSerializer@Ogre@@QAEAAV01@ABV01@@Z
       1614  64D 0000FFAB ??4MovableObject@Ogre@@QAEAAV01@ABV01@@Z
       1615  64E 0003E7E8 ??4MovableObjectFactory@Ogre@@QAEAAV01@ABV01@@Z
       1616  64F 0000DC88 ??4MovablePlane@Ogre@@QAEAAV01@ABV01@@Z
       1617  650 0003A5A3 ??4MultiRenderTarget@Ogre@@QAEAAV01@ABV01@@Z
       1618  651 0001C97C ??4Node@Ogre@@QAEAAV01@ABV01@@Z
       1619  652 00037B1E ??4NodeAnimationTrack@Ogre@@QAEAAV01@ABV01@@Z
       1620  653 00036129 ??4NumericAnimationTrack@Ogre@@QAEAAV01@ABV01@@Z
       1621  654 0000718A ??4NumericKeyFrame@Ogre@@QAEAAV01@ABV01@@Z
       1622  655 0003CD3A ??4NumericSolver@Ogre@@QAEAAV01@ABV01@@Z
       1623  656 00013890 ??4ObjectAbstractNode@Ogre@@QAEAAV01@ABV01@@Z
       1624  657 00033BB8 ??4PSSMShadowCameraSetup@Ogre@@QAEAAV01@ABV01@@Z
       1625  658 0003BDEF ??4ParamCommand@Ogre@@QAEAAV01@ABV01@@Z
       1626  659 00022FB6 ??4ParamDictionary@Ogre@@QAEAAV01@ABV01@@Z
       1627  65A 00031458 ??4ParameterDef@Ogre@@QAEAAV01@ABV01@@Z
       1628  65B 00005D4E ??4Particle@Ogre@@QAEAAV01@ABV01@@Z
       1629  65C 0003E8DD ??4ParticleAffector@Ogre@@QAEAAV01@ABV01@@Z
       1630  65D 00026D6E ??4ParticleAffectorFactory@Ogre@@QAEAAV01@ABV01@@Z
       1631  65E 0003287B ??4ParticleAffectorTranslator@Ogre@@QAEAAV01@ABV01@@Z
       1632  65F 00015A6E ??4ParticleEmitter@Ogre@@QAEAAV01@ABV01@@Z
       1633  660 0003D389 ??4ParticleEmitterFactory@Ogre@@QAEAAV01@ABV01@@Z
       1634  661 000208A1 ??4ParticleEmitterTranslator@Ogre@@QAEAAV01@ABV01@@Z
       1635  662 0002C0A2 ??4ParticleIterator@Ogre@@QAEAAV01@ABV01@@Z
       1636  663 00026AE9 ??4ParticleSystem@Ogre@@QAEAAV01@ABV01@@Z
       1637  664 000251E9 ??4ParticleSystemFactory@Ogre@@QAEAAV01@ABV01@@Z
       1638  665 0001B680 ??4ParticleSystemRenderer@Ogre@@QAEAAV01@ABV01@@Z
       1639  666 0003D12C ??4ParticleSystemRendererFactory@Ogre@@QAEAAV01@ABV01@@Z
       1640  667 000125CB ??4ParticleSystemTranslator@Ogre@@QAEAAV01@ABV01@@Z
       1641  668 0001DDFE ??4ParticleVisualData@Ogre@@QAEAAV01@ABV01@@Z
       1642  669 000331F4 ??4Pass@Ogre@@QAEAAV01@ABV01@@Z
       1643  66A 0000E647 ??4PassTranslator@Ogre@@QAEAAV01@ABV01@@Z
       1644  66B 0003C47F ??4PassthroughControllerFunction@Ogre@@QAEAAV01@ABV01@@Z
       1645  66C 00007162 ??4PatchSurface@Ogre@@QAEAAV01@ABV01@@Z
       1646  66D 0000EEDA ??4PixelBox@Ogre@@QAEAAV01@ABV01@@Z
       1647  66E 0003955E ??4PixelCountLodStrategyBase@Ogre@@QAEAAV01@ABV01@@Z
       1648  66F 000320D3 ??4PixelUtil@Ogre@@QAEAAV01@ABV01@@Z
       1649  670 00032CC2 ??4Plane@Ogre@@QAEAAV01@ABV01@@Z
       1650  671 0003EE50 ??4PlaneBoundedVolume@Ogre@@QAEAAV01@ABV01@@Z
       1651  672 000039E5 ??4PlaneBoundedVolumeListSceneQuery@Ogre@@QAEAAV01@ABV01@@Z
       1652  673 00013B60 ??4PlaneOptimalShadowCameraSetup@Ogre@@QAEAAV01@ABV01@@Z
       1653  674 0002C5F7 ??4PlatformInformation@Ogre@@QAEAAV01@ABV01@@Z
       1654  675 000164A0 ??4Plugin@Ogre@@QAEAAV01@ABV01@@Z
       1655  676 00015F46 ??4PointListBody@FocusedShadowCameraSetup@Ogre@@QAEAAV012@ABV012@@Z
       1656  677 0003E798 ??4Polygon@Ogre@@QAEAAV01@ABV01@@Z
       1657  678 0001E4ED ??4Pose@Ogre@@QAEAAV01@ABV01@@Z
       1658  679 00030751 ??4PrefabFactory@Ogre@@QAEAAV01@ABV01@@Z
       1659  67A 0001520D ??4Profile@Ogre@@QAEAAV01@ABV01@@Z
       1660  67B 00012170 ??4ProfileInstance@Ogre@@QAEAAV01@ABV01@@Z
       1661  67C 00010FA0 ??4ProfileSessionListener@Ogre@@QAEAAV01@ABV01@@Z
       1662  67D 00018958 ??4PropertyAbstractNode@Ogre@@QAEAAV01@ABV01@@Z
       1663  67E 0003FBE8 ??4Quaternion@Ogre@@QAEAAV01@ABV01@@Z
       1664  67F 0001FBA9 ??4QueuedRenderableCollection@Ogre@@QAEAAV01@ABV01@@Z
       1665  680 00026EBD ??4QueuedRenderableVisitor@Ogre@@QAEAAV01@ABV01@@Z
       1666  681 00007A31 ??4RQListener@CompositorChain@Ogre@@QAEAAV012@ABV012@@Z
       1667  682 000060E6 ??4Ray@Ogre@@QAEAAV01@ABV01@@Z
       1668  683 00037B4B ??4RaySceneQuery@Ogre@@QAEAAV01@ABV01@@Z
       1669  684 0002E5CD ??4RaySceneQueryListener@Ogre@@QAEAAV01@ABV01@@Z
       1670  685 000177D8 ??4RaySceneQueryResultEntry@Ogre@@QAEAAU01@ABU01@@Z
       1671  686 0000B3F7 ??4Rectangle2D@Ogre@@QAEAAV01@ABV01@@Z
       1672  687 0001F9BF ??4Region@StaticGeometry@Ogre@@QAEAAV012@ABV012@@Z
       1673  688 00001F7D ??4RegionSceneQuery@Ogre@@QAEAAV01@ABV01@@Z
       1674  689 0002CDEA ??4RenderObjectListener@Ogre@@QAEAAV01@ABV01@@Z
       1675  68A 0000E2DC ??4RenderPriorityGroup@Ogre@@QAEAAV01@ABV01@@Z
       1676  68B 00002A45 ??4RenderQueue@Ogre@@QAEAAV01@ABV01@@Z
       1677  68C 0003A440 ??4RenderQueueGroup@Ogre@@QAEAAV01@ABV01@@Z
       1678  68D 0002B814 ??4RenderQueueInvocation@Ogre@@QAEAAV01@ABV01@@Z
       1679  68E 0003AA58 ??4RenderQueueInvocationSequence@Ogre@@QAEAAV01@ABV01@@Z
       1680  68F 000304C7 ??4RenderQueueListener@Ogre@@QAEAAV01@ABV01@@Z
       1681  690 00021661 ??4RenderSystem@Ogre@@QAEAAV01@ABV01@@Z
       1682  691 0002F9A5 ??4RenderSystemCapabilities@Ogre@@QAEAAV01@ABV01@@Z
       1683  692 0002E546 ??4RenderSystemCapabilitiesSerializer@Ogre@@QAEAAV01@ABV01@@Z
       1684  693 0001616C ??4RenderSystemOperation@CompositorInstance@Ogre@@QAEAAV012@ABV012@@Z
       1685  694 0002821D ??4RenderTarget@Ogre@@QAEAAV01@ABV01@@Z
       1686  695 0003C547 ??4RenderTargetListener@Ogre@@QAEAAV01@ABV01@@Z
       1687  696 0002A59F ??4RenderTexture@Ogre@@QAEAAV01@ABV01@@Z
       1688  697 00006BA9 ??4RenderToVertexBuffer@Ogre@@QAEAAV01@ABV01@@Z
       1689  698 0001DD4A ??4RenderWindow@Ogre@@QAEAAV01@ABV01@@Z
       1690  699 0003155C ??4Renderable@Ogre@@QAEAAV01@ABV01@@Z
       1691  69A 0000BC17 ??4RenderableListener@RenderQueue@Ogre@@QAEAAV012@ABV012@@Z
       1692  69B 00009DF4 ??4RenderingAPIException@Ogre@@QAEAAV01@ABV01@@Z
       1693  69C 0002E235 ??4Request@WorkQueue@Ogre@@QAEAAV012@ABV012@@Z
       1694  69D 000036FC ??4RequestHandler@WorkQueue@Ogre@@QAEAAV012@ABV012@@Z
       1695  69E 0001942F ??4ResourceGroupListener@Ogre@@QAEAAV01@ABV01@@Z
       1696  69F 0002E8FC ??4Response@WorkQueue@Ogre@@QAEAAU012@ABU012@@Z
       1697  6A0 0000366B ??4ResponseHandler@WorkQueue@Ogre@@QAEAAV012@ABV012@@Z
       1698  6A1 000196D2 ??4RibbonTrail@Ogre@@QAEAAV01@ABV01@@Z
       1699  6A2 00031ACA ??4RibbonTrailFactory@Ogre@@QAEAAV01@ABV01@@Z
       1700  6A3 00015659 ??4RotationalSpline@Ogre@@QAEAAV01@ABV01@@Z
       1701  6A4 0001E71D ??4RuntimeAssertionException@Ogre@@QAEAAV01@ABV01@@Z
       1702  6A5 000219E0 ??4ScaleControllerFunction@Ogre@@QAEAAV01@ABV01@@Z
       1703  6A6 0003DDED ??4SceneManagerFactory@Ogre@@QAEAAV01@ABV01@@Z
       1704  6A7 0003C4ED ??4SceneMgrQueuedRenderableVisitor@SceneManager@Ogre@@QAEAAV012@ABV012@@Z
       1705  6A8 00023A38 ??4SceneNode@Ogre@@QAEAAV01@ABV01@@Z
       1706  6A9 00001C6C ??4SceneQuery@Ogre@@QAEAAV01@ABV01@@Z
       1707  6AA 00039C9D ??4SceneQueryListener@Ogre@@QAEAAV01@ABV01@@Z
       1708  6AB 00002248 ??4SceneQueryResult@Ogre@@QAEAAU01@ABU01@@Z
       1709  6AC 000122EC ??4ScriptCompiler@Ogre@@QAEAAV01@ABV01@@Z
       1710  6AD 000401C4 ??4ScriptCompilerListener@Ogre@@QAEAAV01@ABV01@@Z
       1711  6AE 00014209 ??4ScriptLexer@Ogre@@QAEAAV01@ABV01@@Z
       1712  6AF 00036FF7 ??4ScriptLoader@Ogre@@QAEAAV01@ABV01@@Z
       1713  6B0 0002C958 ??4ScriptParser@Ogre@@QAEAAV01@ABV01@@Z
       1714  6B1 0000BB72 ??4ScriptTranslator@Ogre@@QAEAAV01@ABV01@@Z
       1715  6B2 0003DCE9 ??4Serializer@Ogre@@QAEAAV01@ABV01@@Z
       1716  6B3 0000F3F8 ??4ShadowCameraSetup@Ogre@@QAEAAV01@ABV01@@Z
       1717  6B4 00020E05 ??4ShadowCaster@Ogre@@QAEAAV01@ABV01@@Z
       1718  6B5 00020AE0 ??4ShadowCasterSceneQueryListener@SceneManager@Ogre@@QAEAAV012@ABV012@@Z
       1719  6B6 0001A730 ??4ShadowRenderable@Ogre@@QAEAAV01@ABV01@@Z
       1720  6B7 0000169A ??4ShadowVolumeExtrudeProgram@Ogre@@QAEAAV01@ABV01@@Z
       1721  6B8 0002F301 ??4SharedParamsTranslator@Ogre@@QAEAAV01@ABV01@@Z
       1722  6B9 00029A46 ??4SimpleRenderable@Ogre@@QAEAAV01@ABV01@@Z
       1723  6BA 00038EAB ??4SimpleSpline@Ogre@@QAEAAV01@ABV01@@Z
       1724  6BB 0001028A ??4SkeletonSerializer@Ogre@@QAEAAV01@ABV01@@Z
       1725  6BC 00011E55 ??4Sphere@Ogre@@QAEAAV01@ABV01@@Z
       1726  6BD 0001E9D9 ??4SphereSceneQuery@Ogre@@QAEAAV01@ABV01@@Z
       1727  6BE 00039031 ??4StaticGeometry@Ogre@@QAEAAV01@ABV01@@Z
       1728  6BF 00007F13 ??4StdAllocPolicy@Ogre@@QAEAAV01@ABV01@@Z
       1729  6C0 00003670 ??4StreamSerialiser@Ogre@@QAEAAV01@ABV01@@Z
       1730  6C1 00032236 ??4StringConverter@Ogre@@QAEAAV01@ABV01@@Z
       1731  6C2 0002F5B8 ??4StringInterface@Ogre@@QAEAAV01@ABV01@@Z
       1732  6C3 00032529 ??4StringUtil@Ogre@@QAEAAV01@ABV01@@Z
       1733  6C4 00003E6D ??4SubEntity@Ogre@@QAEAAV01@ABV01@@Z
       1734  6C5 00016AE0 ??4SubMesh@Ogre@@QAEAAV01@ABV01@@Z
       1735  6C6 0000A632 ??4TagPoint@Ogre@@QAEAAV01@ABV01@@Z
       1736  6C7 00025216 ??4TangentSpaceCalc@Ogre@@QAEAAV01@ABV01@@Z
       1737  6C8 0001519F ??4Technique@Ogre@@QAEAAV01@ABV01@@Z
       1738  6C9 00038CFD ??4TechniqueTranslator@Ogre@@QAEAAV01@ABV01@@Z
       1739  6CA 000391CB ??4TempBlendedBufferInfo@Ogre@@QAEAAV01@ABV01@@Z
       1740  6CB 000336C2 ??4TexCoordModifierControllerValue@Ogre@@QAEAAV01@ABV01@@Z
       1741  6CC 00023C86 ??4TextureFrameControllerValue@Ogre@@QAEAAV01@ABV01@@Z
       1742  6CD 0000B384 ??4TextureSourceTranslator@Ogre@@QAEAAV01@ABV01@@Z
       1743  6CE 00027C6E ??4TextureUnitState@Ogre@@QAEAAV01@ABV01@@Z
       1744  6CF 0000E1A6 ??4TextureUnitTranslator@Ogre@@QAEAAV01@ABV01@@Z
       1745  6D0 00018B8D ??4ThreadHandle@Ogre@@QAEAAV01@ABV01@@Z
       1746  6D1 00021819 ??4Threads@Ogre@@QAEAAV01@ABV01@@Z
       1747  6D2 000299EC ??4TimeIndex@Ogre@@QAEAAV01@ABV01@@Z
       1748  6D3 00001A4B ??4Timer@Ogre@@QAEAAV01@ABV01@@Z
       1749  6D4 0003748E ??4TransformKeyFrame@Ogre@@QAEAAV01@ABV01@@Z
       1750  6D5 000374ED ??4UTFString@Ogre@@QAEAAV01@ABV01@@Z
       1751  6D6 00024B5E ??4UTFString@Ogre@@QAEAAV01@D@Z
       1752  6D7 00024C3F ??4UTFString@Ogre@@QAEAAV01@G@Z
       1753  6D8 000251FD ??4UTFString@Ogre@@QAEAAV01@I@Z
       1754  6D9 00032CC7 ??4UTFString@Ogre@@QAEAAV01@_W@Z
       1755  6DA 0003CD85 ??4UnimplementedException@Ogre@@QAEAAV01@ABV01@@Z
       1756  6DB 0000C61C ??4UserObjectBindings@Ogre@@QAEAAV01@ABV01@@Z
       1757  6DC 0003EE0A ??4VariableAccessAbstractNode@Ogre@@QAEAAV01@ABV01@@Z
       1758  6DD 0003B534 ??4Vector2@Ogre@@QAEAAV01@ABV01@@Z
       1759  6DE 00035B84 ??4Vector2@Ogre@@QAEAAV01@M@Z
       1760  6DF 00016617 ??4Vector3@Ogre@@QAEAAV01@ABV01@@Z
       1761  6E0 000195F6 ??4Vector3@Ogre@@QAEAAV01@M@Z
       1762  6E1 000075D6 ??4Vector4@Ogre@@QAEAAV01@ABV01@@Z
       1763  6E2 00024857 ??4Vector4@Ogre@@QAEAAV01@ABVVector3@1@@Z
       1764  6E3 0000856C ??4Vector4@Ogre@@QAEAAV01@M@Z
       1765  6E4 00006FE1 ??4VertexAnimationTrack@Ogre@@QAEAAV01@ABV01@@Z
       1766  6E5 000036E8 ??4VertexBufferBinding@Ogre@@QAEAAV01@ABV01@@Z
       1767  6E6 000310A2 ??4VertexCacheProfiler@Ogre@@QAEAAV01@ABV01@@Z
       1768  6E7 00009F39 ??4VertexDeclaration@Ogre@@QAEAAV01@ABV01@@Z
       1769  6E8 0003451D ??4VertexElement@Ogre@@QAEAAV01@ABV01@@Z
       1770  6E9 0000704F ??4VertexMorphKeyFrame@Ogre@@QAEAAV01@ABV01@@Z
       1771  6EA 0000CC93 ??4VertexPoseKeyFrame@Ogre@@QAEAAV01@ABV01@@Z
       1772  6EB 0002A58B ??4Viewport@Ogre@@QAEAAV01@ABV01@@Z
       1773  6EC 00023817 ??4VisibleObjectsBoundsInfo@Ogre@@QAEAAU01@ABU01@@Z
       1774  6ED 00020D06 ??4WaveformControllerFunction@Ogre@@QAEAAV01@ABV01@@Z
       1775  6EE 00003D9B ??4WindowEventListener@Ogre@@QAEAAV01@ABV01@@Z
       1776  6EF 00039DD8 ??4WindowEventUtilities@Ogre@@QAEAAV01@ABV01@@Z
       1777  6F0 0003EE41 ??4WireBoundingBox@Ogre@@QAEAAV01@ABV01@@Z
       1778  6F1 0001EB55 ??4WorkerFunc@DefaultWorkQueueBase@Ogre@@QAEAAU012@ABU012@@Z
       1779  6F2 0002493D ??4_base_iterator@UTFString@Ogre@@QAEAAV012@ABV012@@Z
       1780  6F3 0002BA44 ??4_const_fwd_iterator@UTFString@Ogre@@QAEAAV012@ABV012@@Z
       1781  6F4 00013DCC ??4_const_rev_iterator@UTFString@Ogre@@QAEAAV012@ABV012@@Z
       1782  6F5 000367DC ??4_fwd_iterator@UTFString@Ogre@@QAEAAV012@ABV012@@Z
       1783  6F6 0003687C ??4_rev_iterator@UTFString@Ogre@@QAEAAV012@ABV012@@Z
       1784  6F7 000399F5 ??4invalid_data@UTFString@Ogre@@QAEAAV012@ABV012@@Z
       1785  6F8 00026936 ??6Ogre@@YAAAV?$basic_ostream@DU?$char_traits@D@std@@@std@@AAV12@ABUResourceRequest@ResourceBackgroundQueue@0@@Z
       1786  6F9 00025356 ??6Ogre@@YAAAV?$basic_ostream@DU?$char_traits@D@std@@@std@@AAV12@ABUResourceResponse@ResourceBackgroundQueue@0@@Z
       1787  6FA 0000DBBB ??6Ogre@@YAAAV?$basic_ostream@DU?$char_traits@D@std@@@std@@AAV12@ABVAxisAlignedBox@0@@Z
       1788  6FB 00032961 ??6Ogre@@YAAAV?$basic_ostream@DU?$char_traits@D@std@@@std@@AAV12@ABVCamera@0@@Z
       1789  6FC 00028B7D ??6Ogre@@YAAAV?$basic_ostream@DU?$char_traits@D@std@@@std@@AAV12@ABVColourValue@0@@Z
       1790  6FD 0001462D ??6Ogre@@YAAAV?$basic_ostream@DU?$char_traits@D@std@@@std@@AAV12@ABVConvexBody@0@@Z
       1791  6FE 0003960D ??6Ogre@@YAAAV?$basic_ostream@DU?$char_traits@D@std@@@std@@AAV12@ABVDegree@0@@Z
       1792  6FF 00006D02 ??6Ogre@@YAAAV?$basic_ostream@DU?$char_traits@D@std@@@std@@AAV12@ABVDualQuaternion@0@@Z
       1793  700 00021DF0 ??6Ogre@@YAAAV?$basic_ostream@DU?$char_traits@D@std@@@std@@AAV12@ABVMatrix3@0@@Z
       1794  701 0000A9C5 ??6Ogre@@YAAAV?$basic_ostream@DU?$char_traits@D@std@@@std@@AAV12@ABVMatrix4@0@@Z
       1795  702 00013714 ??6Ogre@@YAAAV?$basic_ostream@DU?$char_traits@D@std@@@std@@AAV12@ABVPlane@0@@Z
       1796  703 00017422 ??6Ogre@@YAAAV?$basic_ostream@DU?$char_traits@D@std@@@std@@AAV12@ABVPolygon@0@@Z
       1797  704 00025CD9 ??6Ogre@@YAAAV?$basic_ostream@DU?$char_traits@D@std@@@std@@AAV12@ABVQuaternion@0@@Z
       1798  705 0003B66A ??6Ogre@@YAAAV?$basic_ostream@DU?$char_traits@D@std@@@std@@AAV12@ABVRadian@0@@Z
       1799  706 0002779B ??6Ogre@@YAAAV?$basic_ostream@DU?$char_traits@D@std@@@std@@AAV12@ABVVector2@0@@Z
       1800  707 0003AA85 ??6Ogre@@YAAAV?$basic_ostream@DU?$char_traits@D@std@@@std@@AAV12@ABVVector3@0@@Z
       1801  708 0002310A ??6Ogre@@YAAAV?$basic_ostream@DU?$char_traits@D@std@@@std@@AAV12@ABVVector4@0@@Z
       1802  709 000113E7 ??8AnimationState@Ogre@@QBE_NABV01@@Z
       1803  70A 00025A13 ??8AxisAlignedBox@Ogre@@QBE_NABV01@@Z
       1804  70B 00005466 ??8ColourValue@Ogre@@QBE_NABV01@@Z
       1805  70C 000203A1 ??8ConvexBody@Ogre@@QBE_NABV01@@Z
       1806  70D 0001E718 ??8DualQuaternion@Ogre@@QBE_NABV01@@Z
       1807  70E 0001BBDF ??8LayerBlendModeEx@Ogre@@QBE_NABV01@@Z
       1808  70F 00019B05 ??8LightInfo@SceneManager@Ogre@@QBE_NABU012@@Z
       1809  710 00020EBE ??8Matrix3@Ogre@@QBE_NABV01@@Z
       1810  711 0002E843 ??8Matrix4@Ogre@@QBE_NABV01@@Z
       1811  712 0003062F ??8Ogre@@YA_NABUShadowTextureConfig@0@0@Z
       1812  713 000326E6 ??8Plane@Ogre@@QBE_NABV01@@Z
       1813  714 0002CF20 ??8Polygon@Ogre@@QBE_NABV01@@Z
       1814  715 000166F3 ??8Quaternion@Ogre@@QBE_NABV01@@Z
       1815  716 00003292 ??8UTFString@Ogre@@QBE_NABV01@@Z
       1816  717 00037268 ??8Vector2@Ogre@@QBE_NABV01@@Z
       1817  718 0000DD4B ??8Vector3@Ogre@@QBE_NABV01@@Z
       1818  719 00003503 ??8Vector4@Ogre@@QBE_NABV01@@Z
       1819  71A 00008DD2 ??8VertexDeclaration@Ogre@@QBE_NABV01@@Z
       1820  71B 0001D9AD ??8VertexElement@Ogre@@QBE_NABV01@@Z
       1821  71C 000335A5 ??9AnimationState@Ogre@@QBE_NABV01@@Z
       1822  71D 0001F5BE ??9AxisAlignedBox@Ogre@@QBE_NABV01@@Z
       1823  71E 0003E36F ??9ColourValue@Ogre@@QBE_NABV01@@Z
       1824  71F 0001053C ??9ConvexBody@Ogre@@QBE_NABV01@@Z
       1825  720 0003B8CC ??9DualQuaternion@Ogre@@QBE_NABV01@@Z
       1826  721 000132D2 ??9LayerBlendModeEx@Ogre@@QBE_NABV01@@Z
       1827  722 0001AFCD ??9LightInfo@SceneManager@Ogre@@QBE_NABU012@@Z
       1828  723 0001DC41 ??9Matrix3@Ogre@@QBE_NABV01@@Z
       1829  724 00039EC8 ??9Matrix4@Ogre@@QBE_NABV01@@Z
       1830  725 00026C88 ??9Ogre@@YA_NABUShadowTextureConfig@0@0@Z
       1831  726 00037E75 ??9Plane@Ogre@@QBE_NABV01@@Z
       1832  727 0000648D ??9Polygon@Ogre@@QBE_NABV01@@Z
       1833  728 00014B69 ??9Quaternion@Ogre@@QBE_NABV01@@Z
       1834  729 000382C6 ??9UTFString@Ogre@@QBE_NABV01@@Z
       1835  72A 000286EB ??9Vector2@Ogre@@QBE_NABV01@@Z
       1836  72B 0000C2C0 ??9Vector3@Ogre@@QBE_NABV01@@Z
       1837  72C 0000E9CB ??9Vector4@Ogre@@QBE_NABV01@@Z
       1838  72D 00005CEA ??9VertexDeclaration@Ogre@@QBE_NABV01@@Z
       1839  72E 0002004A ??AColourValue@Ogre@@QAEAAMI@Z
       1840  72F 00017459 ??AColourValue@Ogre@@QBEMI@Z
       1841  730 0000E3B8 ??ADualQuaternion@Ogre@@QAEAAMI@Z
       1842  731 0000CD2E ??ADualQuaternion@Ogre@@QBEMI@Z
       1843  732 000199CF ??AMatrix3@Ogre@@QAEPAMI@Z
       1844  733 0000BC44 ??AMatrix3@Ogre@@QBEPBMI@Z
       1845  734 000026FD ??AMatrix4@Ogre@@QAEPAMI@Z
       1846  735 0000C4AF ??AMatrix4@Ogre@@QBEPBMI@Z
       1847  736 0000AD85 ??AQuaternion@Ogre@@QAEAAMI@Z
       1848  737 00015AA0 ??AQuaternion@Ogre@@QBEMI@Z
       1849  738 0003CA1F ??AUTFString@Ogre@@QAEAAGI@Z
       1850  739 00023335 ??AUTFString@Ogre@@QBEABGI@Z
       1851  73A 00035EF9 ??AVector2@Ogre@@QAEAAMI@Z
       1852  73B 0003A9A9 ??AVector2@Ogre@@QBEMI@Z
       1853  73C 0003BA39 ??AVector3@Ogre@@QAEAAMI@Z
       1854  73D 0003E0E0 ??AVector3@Ogre@@QBEMI@Z
       1855  73E 00003F8A ??AVector4@Ogre@@QAEAAMI@Z
       1856  73F 0000CAD1 ??AVector4@Ogre@@QBEMI@Z
       1857  740 00021882 ??A_const_fwd_iterator@UTFString@Ogre@@QBEABGH@Z
       1858  741 0002CACF ??A_const_rev_iterator@UTFString@Ogre@@QBEABGH@Z
       1859  742 0001CB7F ??A_fwd_iterator@UTFString@Ogre@@QBEAAGH@Z
       1860  743 00031831 ??A_rev_iterator@UTFString@Ogre@@QBEAAGH@Z
       1861  744 000270A2 ??BUTFString@Ogre@@QBE?AV?$basic_string@DU?$char_traits@D@std@@V?$allocator@D@2@@std@@XZ
       1862  745 0002FB44 ??BUTFString@Ogre@@QBE?AV?$basic_string@_WU?$char_traits@_W@std@@V?$allocator@_W@2@@std@@XZ
       1863  746 000017D5 ??C?$SharedPtr@VHardwareCounterBuffer@Ogre@@@Ogre@@QBEPAVHardwareCounterBuffer@1@XZ
       1864  747 000158CA ??C?$SharedPtr@VHardwareIndexBuffer@Ogre@@@Ogre@@QBEPAVHardwareIndexBuffer@1@XZ
       1865  748 0003FBC0 ??C?$SharedPtr@VHardwarePixelBuffer@Ogre@@@Ogre@@QBEPAVHardwarePixelBuffer@1@XZ
       1866  749 0000F16E ??C?$SharedPtr@VHardwareUniformBuffer@Ogre@@@Ogre@@QBEPAVHardwareUniformBuffer@1@XZ
       1867  74A 0000D067 ??C?$SharedPtr@VHardwareVertexBuffer@Ogre@@@Ogre@@QBEPAVHardwareVertexBuffer@1@XZ
       1868  74B 000312FA ??D?$SharedPtr@VHardwareCounterBuffer@Ogre@@@Ogre@@QBEAAVHardwareCounterBuffer@1@XZ
       1869  74C 00032BD7 ??D?$SharedPtr@VHardwareIndexBuffer@Ogre@@@Ogre@@QBEAAVHardwareIndexBuffer@1@XZ
       1870  74D 00004AD4 ??D?$SharedPtr@VHardwarePixelBuffer@Ogre@@@Ogre@@QBEAAVHardwarePixelBuffer@1@XZ
       1871  74E 00022DA4 ??D?$SharedPtr@VHardwareUniformBuffer@Ogre@@@Ogre@@QBEAAVHardwareUniformBuffer@1@XZ
       1872  74F 0002D538 ??D?$SharedPtr@VHardwareVertexBuffer@Ogre@@@Ogre@@QBEAAVHardwareVertexBuffer@1@XZ
       1873  750 0003C704 ??DColourValue@Ogre@@QBE?AV01@ABV01@@Z
       1874  751 0002866E ??DColourValue@Ogre@@QBE?AV01@M@Z
       1875  752 00027BB5 ??DMatrix3@Ogre@@QBE?AV01@ABV01@@Z
       1876  753 0002DBAF ??DMatrix3@Ogre@@QBE?AV01@M@Z
       1877  754 00027962 ??DMatrix3@Ogre@@QBE?AVVector3@1@ABV21@@Z
       1878  755 0003FD46 ??DMatrix4@Ogre@@QBE?AV01@ABV01@@Z
       1879  756 0003B967 ??DMatrix4@Ogre@@QBE?AV01@M@Z
       1880  757 0000B81B ??DMatrix4@Ogre@@QBE?AVPlane@1@ABV21@@Z
       1881  758 00039B76 ??DMatrix4@Ogre@@QBE?AVVector3@1@ABV21@@Z
       1882  759 00016603 ??DMatrix4@Ogre@@QBE?AVVector4@1@ABV21@@Z
       1883  75A 00015861 ??DOgre@@YA?AVMatrix3@0@MABV10@@Z
       1884  75B 0000E179 ??DOgre@@YA?AVQuaternion@0@MABV10@@Z
       1885  75C 00007B7B ??DOgre@@YA?AVVector3@0@ABV10@ABVMatrix3@0@@Z
       1886  75D 0000AAB0 ??DQuaternion@Ogre@@QBE?AV01@ABV01@@Z
       1887  75E 0003D47E ??DQuaternion@Ogre@@QBE?AV01@M@Z
       1888  75F 0002ED98 ??DQuaternion@Ogre@@QBE?AVVector3@1@ABV21@@Z
       1889  760 0001E565 ??DRay@Ogre@@QBE?AVVector3@1@M@Z
       1890  761 0000DB8E ??DVector2@Ogre@@QBE?AV01@ABV01@@Z
       1891  762 000201AD ??DVector2@Ogre@@QBE?AV01@M@Z
       1892  763 00026E68 ??DVector3@Ogre@@QBE?AV01@ABV01@@Z
       1893  764 000056F0 ??DVector3@Ogre@@QBE?AV01@M@Z
       1894  765 0002186E ??DVector4@Ogre@@QBE?AV01@ABV01@@Z
       1895  766 00001253 ??DVector4@Ogre@@QBE?AV01@M@Z
       1896  767 000340CC ??D_const_fwd_iterator@UTFString@Ogre@@QBEABGXZ
       1897  768 0003217D ??D_const_rev_iterator@UTFString@Ogre@@QBEABGXZ
       1898  769 00030B98 ??D_fwd_iterator@UTFString@Ogre@@QBEAAGXZ
       1899  76A 00020ED2 ??D_rev_iterator@UTFString@Ogre@@QBEAAGXZ
       1900  76B 0000AF97 ??E_const_fwd_iterator@UTFString@Ogre@@QAE?AV012@H@Z
       1901  76C 0001E079 ??E_const_fwd_iterator@UTFString@Ogre@@QAEAAV012@XZ
       1902  76D 00019448 ??E_const_rev_iterator@UTFString@Ogre@@QAE?AV012@H@Z
       1903  76E 00023263 ??E_const_rev_iterator@UTFString@Ogre@@QAEAAV012@XZ
       1904  76F 00003477 ??E_fwd_iterator@UTFString@Ogre@@QAE?AV012@H@Z
       1905  770 0000424B ??E_fwd_iterator@UTFString@Ogre@@QAEAAV012@XZ
       1906  771 00034360 ??E_rev_iterator@UTFString@Ogre@@QAE?AV012@H@Z
       1907  772 0000C0D1 ??E_rev_iterator@UTFString@Ogre@@QAEAAV012@XZ
       1908  773 00010D9D ??F_const_fwd_iterator@UTFString@Ogre@@QAE?AV012@H@Z
       1909  774 00003CAB ??F_const_fwd_iterator@UTFString@Ogre@@QAEAAV012@XZ
       1910  775 0003A49F ??F_const_rev_iterator@UTFString@Ogre@@QAE?AV012@H@Z
       1911  776 0002CF07 ??F_const_rev_iterator@UTFString@Ogre@@QAEAAV012@XZ
       1912  777 0002FD8D ??F_fwd_iterator@UTFString@Ogre@@QAE?AV012@H@Z
       1913  778 000304AE ??F_fwd_iterator@UTFString@Ogre@@QAEAAV012@XZ
       1914  779 0002F982 ??F_rev_iterator@UTFString@Ogre@@QAE?AV012@H@Z
       1915  77A 0001A57D ??F_rev_iterator@UTFString@Ogre@@QAEAAV012@XZ
       1916  77B 00025FD1 ??GColourValue@Ogre@@QBE?AV01@ABV01@@Z
       1917  77C 0003CB87 ??GMatrix3@Ogre@@QBE?AV01@ABV01@@Z
       1918  77D 0001570D ??GMatrix3@Ogre@@QBE?AV01@XZ
       1919  77E 00005646 ??GMatrix4@Ogre@@QBE?AV01@ABV01@@Z
       1920  77F 00037B91 ??GPlane@Ogre@@QBE?AV01@XZ
       1921  780 0000873D ??GQuaternion@Ogre@@QBE?AV01@ABV01@@Z
       1922  781 000100AF ??GQuaternion@Ogre@@QBE?AV01@XZ
       1923  782 00021AE9 ??GVector2@Ogre@@QBE?AV01@ABV01@@Z
       1924  783 00016C75 ??GVector2@Ogre@@QBE?AV01@XZ
       1925  784 0000EE03 ??GVector3@Ogre@@QBE?AV01@ABV01@@Z
       1926  785 000316FB ??GVector3@Ogre@@QBE?AV01@XZ
       1927  786 00032FF6 ??GVector4@Ogre@@QBE?AV01@ABV01@@Z
       1928  787 00021D78 ??GVector4@Ogre@@QBE?AV01@XZ
       1929  788 00005E52 ??G_const_fwd_iterator@UTFString@Ogre@@QAE?AV012@H@Z
       1930  789 00016FFE ??G_const_rev_iterator@UTFString@Ogre@@QAE?AV012@H@Z
       1931  78A 0000ACDB ??G_fwd_iterator@UTFString@Ogre@@QAE?AV012@H@Z
       1932  78B 0001C599 ??G_rev_iterator@UTFString@Ogre@@QAE?AV012@H@Z
       1933  78C 00026E54 ??HColourValue@Ogre@@QBE?AV01@ABV01@@Z
       1934  78D 0002A9F0 ??HMatrix3@Ogre@@QBE?AV01@ABV01@@Z
       1935  78E 0002CF8E ??HMatrix4@Ogre@@QBE?AV01@ABV01@@Z
       1936  78F 0001948E ??HQuaternion@Ogre@@QBE?AV01@ABV01@@Z
       1937  790 000294E2 ??HVector2@Ogre@@QBE?AV01@ABV01@@Z
       1938  791 000360ED ??HVector2@Ogre@@QBEABV01@XZ
       1939  792 0001E1D2 ??HVector3@Ogre@@QBE?AV01@ABV01@@Z
       1940  793 000190D8 ??HVector3@Ogre@@QBEABV01@XZ
       1941  794 00032D26 ??HVector4@Ogre@@QBE?AV01@ABV01@@Z
       1942  795 0002E8B6 ??HVector4@Ogre@@QBEABV01@XZ
       1943  796 0002CEB2 ??H_const_fwd_iterator@UTFString@Ogre@@QAE?AV012@H@Z
       1944  797 000237C2 ??H_const_rev_iterator@UTFString@Ogre@@QAE?AV012@H@Z
       1945  798 00009D72 ??H_fwd_iterator@UTFString@Ogre@@QAE?AV012@H@Z
       1946  799 00027AED ??H_rev_iterator@UTFString@Ogre@@QAE?AV012@H@Z
       1947  79A 0003D26C ??KColourValue@Ogre@@QBE?AV01@ABV01@@Z
       1948  79B 00020810 ??KColourValue@Ogre@@QBE?AV01@M@Z
       1949  79C 0002BD4B ??KVector2@Ogre@@QBE?AV01@ABV01@@Z
       1950  79D 00029762 ??KVector2@Ogre@@QBE?AV01@M@Z
       1951  79E 00025DBF ??KVector3@Ogre@@QBE?AV01@ABV01@@Z
       1952  79F 0001D9EE ??KVector3@Ogre@@QBE?AV01@M@Z
       1953  7A0 00021224 ??KVector4@Ogre@@QBE?AV01@ABV01@@Z
       1954  7A1 0002C8DB ??KVector4@Ogre@@QBE?AV01@M@Z
       1955  7A2 0003AADF ??MRaySceneQueryResultEntry@Ogre@@QBE_NABU01@@Z
       1956  7A3 00016F59 ??MUTFString@Ogre@@QBE_NABV01@@Z
       1957  7A4 0001893F ??MVector2@Ogre@@QBE_NABV01@@Z
       1958  7A5 0003CF6A ??MVector3@Ogre@@QBE_NABV01@@Z
       1959  7A6 000157C1 ??NUTFString@Ogre@@QBE_NABV01@@Z
       1960  7A7 00030BD9 ??OUTFString@Ogre@@QBE_NABV01@@Z
       1961  7A8 0003F139 ??OVector2@Ogre@@QBE_NABV01@@Z
       1962  7A9 000034E5 ??OVector3@Ogre@@QBE_NABV01@@Z
       1963  7AA 00022854 ??PUTFString@Ogre@@QBE_NABV01@@Z
       1964  7AB 0000FC90 ??RDepthSortDescendingLess@QueuedRenderableCollection@Ogre@@QBE_NABURenderablePass@2@0@Z
       1965  7AC 000254B4 ??RPassGroupLess@QueuedRenderableCollection@Ogre@@QBE_NPBVPass@2@0@Z
       1966  7AD 000247A3 ??RTextureDefLess@CompositorManager@Ogre@@QBE_NABUTextureDef@12@0@Z
       1967  7AE 00016D2E ??RWorkerFunc@DefaultWorkQueueBase@Ogre@@QAEXXZ
       1968  7AF 00016D0B ??RWorkerFunc@DefaultWorkQueueBase@Ogre@@QBEXXZ
       1969  7B0 0002CFDE ??RlightLess@SceneManager@Ogre@@QBE_NPBVLight@2@0@Z
       1970  7B1 00033E74 ??RlightsForShadowTextureLess@SceneManager@Ogre@@QBE_NPBVLight@2@0@Z
       1971  7B2 00009403 ??RmaterialLess@SceneManager@Ogre@@QBE_NPBVMaterial@2@0@Z
       1972  7B3 00025969 ??XColourValue@Ogre@@QAEAAV01@M@Z
       1973  7B4 0003332F ??XVector2@Ogre@@QAEAAV01@ABV01@@Z
       1974  7B5 00009395 ??XVector2@Ogre@@QAEAAV01@M@Z
       1975  7B6 000072BB ??XVector3@Ogre@@QAEAAV01@ABV01@@Z
       1976  7B7 000355C6 ??XVector3@Ogre@@QAEAAV01@M@Z
       1977  7B8 0003817C ??XVector4@Ogre@@QAEAAV01@ABV01@@Z
       1978  7B9 000210B2 ??XVector4@Ogre@@QAEAAV01@M@Z
       1979  7BA 0003B6E2 ??YColourValue@Ogre@@QAEAAV01@ABV01@@Z
       1980  7BB 0002D1D7 ??YVector2@Ogre@@QAEAAV01@ABV01@@Z
       1981  7BC 00037ADD ??YVector2@Ogre@@QAEAAV01@M@Z
       1982  7BD 00030B25 ??YVector3@Ogre@@QAEAAV01@ABV01@@Z
       1983  7BE 0002AB44 ??YVector3@Ogre@@QAEAAV01@M@Z
       1984  7BF 0003FCAB ??YVector4@Ogre@@QAEAAV01@ABV01@@Z
       1985  7C0 0003A4C2 ??YVector4@Ogre@@QAEAAV01@M@Z
       1986  7C1 0001C346 ??Y_const_fwd_iterator@UTFString@Ogre@@QAEAAV012@H@Z
       1987  7C2 0003E752 ??Y_const_rev_iterator@UTFString@Ogre@@QAEAAV012@H@Z
       1988  7C3 000365C0 ??Y_fwd_iterator@UTFString@Ogre@@QAEAAV012@H@Z
       1989  7C4 00006A19 ??Y_rev_iterator@UTFString@Ogre@@QAEAAV012@H@Z
       1990  7C5 00005678 ??ZColourValue@Ogre@@QAEAAV01@ABV01@@Z
       1991  7C6 00024474 ??ZVector2@Ogre@@QAEAAV01@ABV01@@Z
       1992  7C7 00017E8B ??ZVector2@Ogre@@QAEAAV01@M@Z
       1993  7C8 0002D60F ??ZVector3@Ogre@@QAEAAV01@ABV01@@Z
       1994  7C9 0001695A ??ZVector3@Ogre@@QAEAAV01@M@Z
       1995  7CA 00006B9A ??ZVector4@Ogre@@QAEAAV01@ABV01@@Z
       1996  7CB 0000E88B ??ZVector4@Ogre@@QAEAAV01@M@Z
       1997  7CC 000194D4 ??Z_const_fwd_iterator@UTFString@Ogre@@QAEAAV012@H@Z
       1998  7CD 00038221 ??Z_const_rev_iterator@UTFString@Ogre@@QAEAAV012@H@Z
       1999  7CE 0003AEAE ??Z_fwd_iterator@UTFString@Ogre@@QAEAAV012@H@Z
       2000  7CF 0003387A ??Z_rev_iterator@UTFString@Ogre@@QAEAAV012@H@Z
       2001  7D0 00016635 ??_0ColourValue@Ogre@@QAEAAV01@M@Z
       2002  7D1 0001564F ??_0Vector2@Ogre@@QAEAAV01@ABV01@@Z
       2003  7D2 0002F5AE ??_0Vector2@Ogre@@QAEAAV01@M@Z
       2004  7D3 000026A8 ??_0Vector3@Ogre@@QAEAAV01@ABV01@@Z
       2005  7D4 00023DD0 ??_0Vector3@Ogre@@QAEAAV01@M@Z
       2006  7D5 0001B473 ??_0Vector4@Ogre@@QAEAAV01@ABV01@@Z
       2007  7D6 000125A8 ??_0Vector4@Ogre@@QAEAAV01@M@Z
       2008  7D7 006CE004 ??_7?$ControllerFunction@M@Ogre@@6B@
       2009  7D8 006C7F4C ??_7?$ControllerValue@M@Ogre@@6B@
       2010  7D9 006E0964 ??_7?$FactoryObj@VArchive@Ogre@@@Ogre@@6B@
       2011  7DA 006CAF78 ??_7?$FactoryObj@VParticleSystemRenderer@Ogre@@@Ogre@@6B@
       2012  7DB 006CAA50 ??_7?$Pool@V?$SharedPtr@VResource@Ogre@@@Ogre@@@Ogre@@6B@
       2013  7DC 006DF9F0 ??_7AbsolutePixelCountLodStrategy@Ogre@@6B@
       2014  7DD 006CD96C ??_7AbstractNode@Ogre@@6B@
       2015  7DE 006C782C ??_7AnimableObject@Ogre@@6B@
       2016  7DF 006D5DE0 ??_7AnimableValue@Ogre@@6B@
       2017  7E0 006C8008 ??_7Animation@Ogre@@6B@
       2018  7E1 006C7F74 ??_7AnimationContainer@Ogre@@6B@
       2019  7E2 006CE024 ??_7AnimationControllerFunction@Ogre@@6B@
       2020  7E3 006C7F40 ??_7AnimationState@Ogre@@6B@
       2021  7E4 006C7F60 ??_7AnimationStateControllerValue@Ogre@@6B@
       2022  7E5 006C7D88 ??_7AnimationTrack@Ogre@@6B@
       2023  7E6 006CFC40 ??_7Archive@Ogre@@6B@
       2024  7E7 006E097C ??_7ArchiveFactory@Ogre@@6B@
       2025  7E8 006C8D54 ??_7ArchiveManager@Ogre@@6B@
       2026  7E9 006CD980 ??_7AtomAbstractNode@Ogre@@6B@
       2027  7EA 006C9078 ??_7AutoParamDataSource@Ogre@@6B@
       2028  7EB 006C9724 ??_7AxisAlignedBoxSceneQuery@Ogre@@6BSceneQuery@1@@
       2029  7EC 006C9764 ??_7AxisAlignedBoxSceneQuery@Ogre@@6BSceneQueryListener@1@@
       2030  7ED 006D42B8 ??_7BaseInstanceBatchVTF@Ogre@@6B@
       2031  7EE 006D44A4 ??_7BaseInstanceBatchVTF@Ogre@@6BAnimableObject@1@@
       2032  7EF 006D436C ??_7BaseInstanceBatchVTF@Ogre@@6BShadowCaster@1@@
       2033  7F0 006D54D4 ??_7BatchInstance@InstancedGeometry@Ogre@@6BAnimableObject@2@@
       2034  7F1 006D539C ??_7BatchInstance@InstancedGeometry@Ogre@@6BShadowCaster@2@@
       2035  7F2 006CA9B8 ??_7BillboardChain@Ogre@@6B@
       2036  7F3 006CA9A0 ??_7BillboardChain@Ogre@@6BAnimableObject@1@@
       2037  7F4 006CA7DC ??_7BillboardChain@Ogre@@6BShadowCaster@1@@
       2038  7F5 006CAA14 ??_7BillboardChainFactory@Ogre@@6B@
       2039  7F6 006CB034 ??_7BillboardParticleRenderer@Ogre@@6B@
       2040  7F7 006CB0B0 ??_7BillboardParticleRendererFactory@Ogre@@6B@
       2041  7F8 006CA708 ??_7BillboardSet@Ogre@@6B@
       2042  7F9 006CA6F0 ??_7BillboardSet@Ogre@@6BAnimableObject@1@@
       2043  7FA 006CA4E0 ??_7BillboardSet@Ogre@@6BShadowCaster@1@@
       2044  7FB 006CA764 ??_7BillboardSetFactory@Ogre@@6B@
       2045  7FC 006C83F8 ??_7Bone@Ogre@@6B@
       2046  7FD 006E9104 ??_7BuiltinScriptTranslatorManager@Ogre@@6B@
       2047  7FE 006CC288 ??_7Camera@Ogre@@6B@
       2048  7FF 006CC270 ??_7Camera@Ogre@@6BAnimableObject@1@@
       2049  800 006CBFC0 ??_7Camera@Ogre@@6BShadowCaster@1@@
       2050  801 006D0420 ??_7CmdAdjacency@GpuProgram@Ogre@@6B@
       2051  802 006DD710 ??_7CmdAngle@EmitterCommands@Ogre@@6B@
       2052  803 006DD724 ??_7CmdColour@EmitterCommands@Ogre@@6B@
       2053  804 006DD74C ??_7CmdColourRangeEnd@EmitterCommands@Ogre@@6B@
       2054  805 006DD738 ??_7CmdColourRangeStart@EmitterCommands@Ogre@@6B@
       2055  806 006D0434 ??_7CmdComputeGroupDims@GpuProgram@Ogre@@6B@
       2056  807 006DD788 ??_7CmdDirPositionRef@EmitterCommands@Ogre@@6B@
       2057  808 006DD760 ??_7CmdDirection@EmitterCommands@Ogre@@6B@
       2058  809 006DD83C ??_7CmdDuration@EmitterCommands@Ogre@@6B@
       2059  80A 006DD79C ??_7CmdEmissionRate@EmitterCommands@Ogre@@6B@
       2060  80B 006DD8C8 ??_7CmdEmittedEmitter@EmitterCommands@Ogre@@6B@
       2061  80C 006D040C ??_7CmdManualNamedConstsFile@GpuProgram@Ogre@@6B@
       2062  80D 006DD864 ??_7CmdMaxDuration@EmitterCommands@Ogre@@6B@
       2063  80E 006DD8A0 ??_7CmdMaxRepeatDelay@EmitterCommands@Ogre@@6B@
       2064  80F 006DD814 ??_7CmdMaxTTL@EmitterCommands@Ogre@@6B@
       2065  810 006DD7D8 ??_7CmdMaxVelocity@EmitterCommands@Ogre@@6B@
       2066  811 006DD850 ??_7CmdMinDuration@EmitterCommands@Ogre@@6B@
       2067  812 006DD88C ??_7CmdMinRepeatDelay@EmitterCommands@Ogre@@6B@
       2068  813 006DD800 ??_7CmdMinTTL@EmitterCommands@Ogre@@6B@
       2069  814 006DD7C4 ??_7CmdMinVelocity@EmitterCommands@Ogre@@6B@
       2070  815 006D03D0 ??_7CmdMorph@GpuProgram@Ogre@@6B@
       2071  816 006DD8B4 ??_7CmdName@EmitterCommands@Ogre@@6B@
       2072  817 006D03E4 ??_7CmdPose@GpuProgram@Ogre@@6B@
       2073  818 006DD828 ??_7CmdPosition@EmitterCommands@Ogre@@6B@
       2074  819 006DD878 ??_7CmdRepeatDelay@EmitterCommands@Ogre@@6B@
       2075  81A 006D03BC ??_7CmdSkeletal@GpuProgram@Ogre@@6B@
       2076  81B 006D03A8 ??_7CmdSyntax@GpuProgram@Ogre@@6B@
       2077  81C 006DD7EC ??_7CmdTTL@EmitterCommands@Ogre@@6B@
       2078  81D 006D0394 ??_7CmdType@GpuProgram@Ogre@@6B@
       2079  81E 006DD774 ??_7CmdUp@EmitterCommands@Ogre@@6B@
       2080  81F 006D03F8 ??_7CmdVTF@GpuProgram@Ogre@@6B@
       2081  820 006DD7B0 ??_7CmdVelocity@EmitterCommands@Ogre@@6B@
       2082  821 006CC5D8 ??_7Codec@Ogre@@6B@
       2083  822 006E90F4 ??_7CompositionPassTranslator@Ogre@@6B@
       2084  823 006E90E4 ??_7CompositionTargetPassTranslator@Ogre@@6B@
       2085  824 006CC7E4 ??_7CompositionTechnique@Ogre@@6B@
       2086  825 006E90D4 ??_7CompositionTechniqueTranslator@Ogre@@6B@
       2087  826 006CC858 ??_7Compositor@Ogre@@6B@
       2088  827 006CCFCC ??_7CompositorChain@Ogre@@6BListener@Viewport@1@@
       2089  828 006CCFA4 ??_7CompositorChain@Ogre@@6BRenderTargetListener@1@@
       2090  829 006CCF40 ??_7CompositorInstance@Ogre@@6B@
       2091  82A 006CD2A8 ??_7CompositorLogic@Ogre@@6B@
       2092  82B 006CD8A4 ??_7CompositorManager@Ogre@@6B@
       2093  82C 006E90C4 ??_7CompositorTranslator@Ogre@@6B@
       2094  82D 006CDE70 ??_7ConfigFile@Ogre@@6B@
       2095  82E 006CDAC8 ??_7CreateCompositorScriptCompilerEvent@Ogre@@6B@
       2096  82F 006CDA98 ??_7CreateGpuProgramScriptCompilerEvent@Ogre@@6B@
       2097  830 006CDAB0 ??_7CreateGpuSharedParametersScriptCompilerEvent@Ogre@@6B@
       2098  831 006CDAA4 ??_7CreateHighLevelGpuProgramScriptCompilerEvent@Ogre@@6B@
       2099  832 006CDA8C ??_7CreateMaterialScriptCompilerEvent@Ogre@@6B@
       2100  833 006CDABC ??_7CreateParticleSystemScriptCompilerEvent@Ogre@@6B@
       2101  834 006CD238 ??_7CustomCompositionPass@Ogre@@6B@
       2102  835 006E636C ??_7DDSCodec@Ogre@@6B@
       2103  836 006CDDAC ??_7DataStream@Ogre@@6B@
       2104  837 006CA0C8 ??_7DefaultAxisAlignedBoxSceneQuery@Ogre@@6BSceneQuery@1@@
       2105  838 006CA108 ??_7DefaultAxisAlignedBoxSceneQuery@Ogre@@6BSceneQueryListener@1@@
       2106  839 006CE4BC ??_7DefaultHardwareBufferManager@Ogre@@6B@
       2107  83A 006CE440 ??_7DefaultHardwareBufferManagerBase@Ogre@@6B@
       2108  83B 006CE40C ??_7DefaultHardwareCounterBuffer@Ogre@@6B@
       2109  83C 006CE3A4 ??_7DefaultHardwareIndexBuffer@Ogre@@6B@
       2110  83D 006CE3D8 ??_7DefaultHardwareUniformBuffer@Ogre@@6B@
       2111  83E 006CE368 ??_7DefaultHardwareVertexBuffer@Ogre@@6B@
       2112  83F 006C9FA0 ??_7DefaultIntersectionSceneQuery@Ogre@@6BIntersectionSceneQueryListener@1@@
       2113  840 006C9F60 ??_7DefaultIntersectionSceneQuery@Ogre@@6BSceneQuery@1@@
       2114  841 006CA074 ??_7DefaultPlaneBoundedVolumeListSceneQuery@Ogre@@6BSceneQuery@1@@
       2115  842 006CA0B4 ??_7DefaultPlaneBoundedVolumeListSceneQuery@Ogre@@6BSceneQueryListener@1@@
       2116  843 006CA00C ??_7DefaultRaySceneQuery@Ogre@@6BRaySceneQueryListener@1@@
       2117  844 006C9FB4 ??_7DefaultRaySceneQuery@Ogre@@6BSceneQuery@1@@
       2118  845 006E84A8 ??_7DefaultSceneManager@Ogre@@6B@
       2119  846 006CA138 ??_7DefaultSceneManagerFactory@Ogre@@6B@
       2120  847 006E74D8 ??_7DefaultShadowCameraSetup@Ogre@@6B@
       2121  848 006CA020 ??_7DefaultSphereSceneQuery@Ogre@@6BSceneQuery@1@@
       2122  849 006CA060 ??_7DefaultSphereSceneQuery@Ogre@@6BSceneQueryListener@1@@
       2123  84A 006F5FC0 ??_7DefaultWorkQueue@Ogre@@6B@
       2124  84B 006F44C4 ??_7DefaultWorkQueueBase@Ogre@@6B@
       2125  84C 006CE62C ??_7DeflateStream@Ogre@@6B@
       2126  84D 006CE884 ??_7DepthBuffer@Ogre@@6B@
       2127  84E 006CE950 ??_7DistanceLodBoxStrategy@Ogre@@6B@
       2128  84F 006CE91C ??_7DistanceLodSphereStrategy@Ogre@@6B@
       2129  850 006CE8E8 ??_7DistanceLodStrategyBase@Ogre@@6B@
       2130  851 006CEADC ??_7DynLibManager@Ogre@@6B@
       2131  852 006CEBF4 ??_7EdgeListBuilder@Ogre@@6B@
       2132  853 006E0BA8 ??_7EmbeddedZipArchiveFactory@Ogre@@6B@
       2133  854 006C83B0 ??_7Entity@Ogre@@6B@
       2134  855 006C8398 ??_7Entity@Ogre@@6BAnimableObject@1@@
       2135  856 006C8260 ??_7Entity@Ogre@@6BShadowCaster@1@@
       2136  857 006C83D4 ??_7EntityFactory@Ogre@@6B@
       2137  858 006C81FC ??_7EntityShadowRenderable@Entity@Ogre@@6B@
       2138  859 006C70C4 ??_7Exception@Ogre@@6B@
       2139  85A 006CF800 ??_7ExternalTextureSource@Ogre@@6B@
       2140  85B 006CE1C0 ??_7FileHandleDataStream@Ogre@@6B@
       2141  85C 006C7138 ??_7FileNotFoundException@Ogre@@6B@
       2142  85D 006CE178 ??_7FileStreamDataStream@Ogre@@6B@
       2143  85E 006CFC88 ??_7FileSystemArchive@Ogre@@6B@
       2144  85F 006E0998 ??_7FileSystemArchiveFactory@Ogre@@6B@
       2145  860 006CDFF0 ??_7FloatGpuParameterControllerValue@Ogre@@6B@
       2146  861 006ECDC0 ??_7FocusedShadowCameraSetup@Ogre@@6B@
       2147  862 006CDF84 ??_7FrameListener@Ogre@@6B@
       2148  863 006CDF9C ??_7FrameTimeControllerValue@Ogre@@6B?$ControllerValue@M@1@@
       2149  864 006CDFB0 ??_7FrameTimeControllerValue@Ogre@@6BFrameListener@1@@
       2150  865 006E6340 ??_7FreeImageCodec@Ogre@@6B@
       2151  866 006D011C ??_7Frustum@Ogre@@6B@
       2152  867 006D0104 ??_7Frustum@Ogre@@6BAnimableObject@1@@
       2153  868 006CFE94 ??_7Frustum@Ogre@@6BShadowCaster@1@@
       2154  869 006D528C ??_7GeometryBucket@InstancedGeometry@Ogre@@6B@
       2155  86A 006D5274 ??_7GeometryBucket@InstancedGeometry@Ogre@@6BAnimableObject@2@@
       2156  86B 006D5130 ??_7GeometryBucket@InstancedGeometry@Ogre@@6BShadowCaster@2@@
       2157  86C 006E7560 ??_7GeometryBucket@StaticGeometry@Ogre@@6B@
       2158  86D 006D0F9C ??_7GpuNamedConstantsSerializer@Ogre@@6B@
       2159  86E 006D0448 ??_7GpuProgram@Ogre@@6B@
       2160  86F 006D0C84 ??_7GpuProgramManager@Ogre@@6B@
       2161  870 006E9074 ??_7GpuProgramTranslator@Ogre@@6B@
       2162  871 006D2378 ??_7GpuProgramUsage@Ogre@@6B@
       2163  872 006D0FE0 ??_7GpuSharedParameters@Ogre@@6B@
       2164  873 006C7684 ??_7HardwareBuffer@Ogre@@6B@
       2165  874 006C8104 ??_7HardwareBufferLicensee@Ogre@@6B@
       2166  875 006D26AC ??_7HardwareBufferManager@Ogre@@6B@
       2167  876 006D2630 ??_7HardwareBufferManagerBase@Ogre@@6B@
       2168  877 006C809C ??_7HardwareCounterBuffer@Ogre@@6B@
       2169  878 006CE334 ??_7HardwareIndexBuffer@Ogre@@6B@
       2170  879 006D280C ??_7HardwareOcclusionQuery@Ogre@@6B@
       2171  87A 006CCBD8 ??_7HardwarePixelBuffer@Ogre@@6B@
       2172  87B 006C80D0 ??_7HardwareUniformBuffer@Ogre@@6B@
       2173  87C 006CE2F8 ??_7HardwareVertexBuffer@Ogre@@6B@
       2174  87D 006D2E00 ??_7HighLevelGpuProgram@Ogre@@6B@
       2175  87E 006D0D84 ??_7HighLevelGpuProgramFactory@Ogre@@6B@
       2176  87F 006D3020 ??_7HighLevelGpuProgramManager@Ogre@@6B@
       2177  880 006C7180 ??_7IOException@Ogre@@6B@
       2178  881 006D3364 ??_7Image@Ogre@@6B@
       2179  882 006D33D0 ??_7ImageCodec@Ogre@@6B@
       2180  883 006CD9BC ??_7ImportAbstractNode@Ogre@@6B@
       2181  884 006D3890 ??_7InstanceBatch@Ogre@@6B@
       2182  885 006D3A68 ??_7InstanceBatch@Ogre@@6BAnimableObject@1@@
       2183  886 006D3930 ??_7InstanceBatch@Ogre@@6BShadowCaster@1@@
       2184  887 006D3E98 ??_7InstanceBatchHW@Ogre@@6B@
       2185  888 006D4070 ??_7InstanceBatchHW@Ogre@@6BAnimableObject@1@@
       2186  889 006D3F38 ??_7InstanceBatchHW@Ogre@@6BShadowCaster@1@@
       2187  88A 006D46C0 ??_7InstanceBatchHW_VTF@Ogre@@6B@
       2188  88B 006D48B0 ??_7InstanceBatchHW_VTF@Ogre@@6BAnimableObject@1@@
       2189  88C 006D4778 ??_7InstanceBatchHW_VTF@Ogre@@6BShadowCaster@1@@
       2190  88D 006D49A4 ??_7InstanceBatchShader@Ogre@@6B@
       2191  88E 006D4B7C ??_7InstanceBatchShader@Ogre@@6BAnimableObject@1@@
       2192  88F 006D4A44 ??_7InstanceBatchShader@Ogre@@6BShadowCaster@1@@
       2193  890 006D44BC ??_7InstanceBatchVTF@Ogre@@6B@
       2194  891 006D46A8 ??_7InstanceBatchVTF@Ogre@@6BAnimableObject@1@@
       2195  892 006D4570 ??_7InstanceBatchVTF@Ogre@@6BShadowCaster@1@@
       2196  893 006C9A80 ??_7InstanceManager@Ogre@@6B@
       2197  894 006D3BBC ??_7InstancedEntity@Ogre@@6BAnimableObject@1@@
       2198  895 006D3A80 ??_7InstancedEntity@Ogre@@6BShadowCaster@1@@
       2199  896 006D554C ??_7InstancedGeometry@Ogre@@6B@
       2200  897 006C7298 ??_7InternalErrorException@Ogre@@6B@
       2201  898 006C9954 ??_7IntersectionSceneQuery@Ogre@@6BIntersectionSceneQueryListener@1@@
       2202  899 006C9914 ??_7IntersectionSceneQuery@Ogre@@6BSceneQuery@1@@
       2203  89A 006C98B8 ??_7IntersectionSceneQueryListener@Ogre@@6B@
       2204  89B 006C7374 ??_7InvalidCallException@Ogre@@6B@
       2205  89C 006C7204 ??_7InvalidParametersException@Ogre@@6B@
       2206  89D 006C71BC ??_7InvalidStateException@Ogre@@6B@
       2207  89E 006C7250 ??_7ItemIdentityException@Ogre@@6B@
       2208  89F 006C8014 ??_7KeyFrame@Ogre@@6B@
       2209  8A0 006D5354 ??_7LODBucket@InstancedGeometry@Ogre@@6B@
       2210  8A1 006E768C ??_7LODBucket@StaticGeometry@Ogre@@6B@
       2211  8A2 006E7628 ??_7LODShadowRenderable@LODBucket@StaticGeometry@Ogre@@6B@
       2212  8A3 006ECDF4 ??_7LiSPSMShadowCameraSetup@Ogre@@6B@
       2213  8A4 006C903C ??_7Light@Ogre@@6BAnimableObject@1@@
       2214  8A5 006C8EF0 ??_7Light@Ogre@@6BShadowCaster@1@@
       2215  8A6 006C9054 ??_7LightFactory@Ogre@@6B@
       2216  8A7 006CE054 ??_7LinearControllerFunction@Ogre@@6B@
       2217  8A8 006C7D48 ??_7Listener@AnimationTrack@Ogre@@6B@
       2218  8A9 006E094C ??_7Listener@Camera@Ogre@@6B@
       2219  8AA 006CCEA8 ??_7Listener@CompositorInstance@Ogre@@6B@
       2220  8AB 006E0924 ??_7Listener@MovableObject@Ogre@@6B@
       2221  8AC 006E09B4 ??_7Listener@Node@Ogre@@6B@
       2222  8AD 006C9C00 ??_7Listener@RenderSystem@Ogre@@6B@
       2223  8AE 006E4BBC ??_7Listener@ResourceBackgroundQueue@Ogre@@6B@
       2224  8AF 006CA390 ??_7Listener@Viewport@Ogre@@6B@
       2225  8B0 006C9F0C ??_7LodListener@Ogre@@6B@
       2226  8B1 006CE8B8 ??_7LodStrategy@Ogre@@6B@
       2227  8B2 006D691C ??_7ManualObject@Ogre@@6BAnimableObject@1@@
       2228  8B3 006D6740 ??_7ManualObject@Ogre@@6BShadowCaster@1@@
       2229  8B4 006D6934 ??_7ManualObjectFactory@Ogre@@6B@
       2230  8B5 006D6668 ??_7ManualObjectSection@ManualObject@Ogre@@6B@
       2231  8B6 006D66C4 ??_7ManualObjectSectionShadowRenderable@ManualObject@Ogre@@6B@
       2232  8B7 006DB340 ??_7ManualResourceLoader@Ogre@@6B@
       2233  8B8 006D6DA0 ??_7Material@Ogre@@6B@
       2234  8B9 006D5324 ??_7MaterialBucket@InstancedGeometry@Ogre@@6B@
       2235  8BA 006E75F8 ??_7MaterialBucket@StaticGeometry@Ogre@@6B@
       2236  8BB 006D70C8 ??_7MaterialManager@Ogre@@6B@
       2237  8BC 006D71F0 ??_7MaterialSerializer@Ogre@@6B@
       2238  8BD 006E9024 ??_7MaterialTranslator@Ogre@@6B@
       2239  8BE 006CE130 ??_7MemoryDataStream@Ogre@@6B@
       2240  8BF 006DA81C ??_7Mesh@Ogre@@6BAnimationContainer@1@@
       2241  8C0 006DA730 ??_7Mesh@Ogre@@6BResource@1@@
       2242  8C1 006DB41C ??_7MeshManager@Ogre@@6BManualResourceLoader@1@@
       2243  8C2 006DB378 ??_7MeshManager@Ogre@@6BResourceManager@1@@
       2244  8C3 006DA85C ??_7MeshSerializer@Ogre@@6B@
       2245  8C4 006C79F0 ??_7MovableObject@Ogre@@6BAnimableObject@1@@
       2246  8C5 006C78B8 ??_7MovableObject@Ogre@@6BShadowCaster@1@@
       2247  8C6 006C7A08 ??_7MovableObjectFactory@Ogre@@6B@
       2248  8C7 006CC468 ??_7MovablePlane@Ogre@@6BAnimableObject@1@@
       2249  8C8 006CC330 ??_7MovablePlane@Ogre@@6BShadowCaster@1@@
       2250  8C9 006CCA88 ??_7MultiRenderTarget@Ogre@@6B@
       2251  8CA 006C7A50 ??_7Node@Ogre@@6B@
       2252  8CB 006C7E50 ??_7NodeAnimationTrack@Ogre@@6B@
       2253  8CC 006C7DE4 ??_7NumericAnimationTrack@Ogre@@6B@
       2254  8CD 006C8024 ??_7NumericKeyFrame@Ogre@@6B@
       2255  8CE 006CD994 ??_7ObjectAbstractNode@Ogre@@6B@
       2256  8CF 006CEC00 ??_7OptimisedUtil@Ogre@@6B@
       2257  8D0 006ECE98 ??_7PSSMShadowCameraSetup@Ogre@@6B@
       2258  8D1 006CAEA8 ??_7ParamCommand@Ogre@@6B@
       2259  8D2 006DE428 ??_7ParticleAffector@Ogre@@6B@
       2260  8D3 006DE450 ??_7ParticleAffectorFactory@Ogre@@6B@
       2261  8D4 006E90B4 ??_7ParticleAffectorTranslator@Ogre@@6B@
       2262  8D5 006DD8DC ??_7ParticleEmitter@Ogre@@6B@
       2263  8D6 006DDA28 ??_7ParticleEmitterFactory@Ogre@@6B@
       2264  8D7 006E90A4 ??_7ParticleEmitterTranslator@Ogre@@6B@
       2265  8D8 006DD568 ??_7ParticleSystem@Ogre@@6B@
       2266  8D9 006DD6F8 ??_7ParticleSystem@Ogre@@6BAnimableObject@1@@
       2267  8DA 006DD5C0 ??_7ParticleSystem@Ogre@@6BShadowCaster@1@@
       2268  8DB 006DE404 ??_7ParticleSystemFactory@Ogre@@6B@
       2269  8DC 006DE9B0 ??_7ParticleSystemManager@Ogre@@6B@
       2270  8DD 006CAEFC ??_7ParticleSystemRenderer@Ogre@@6B@
       2271  8DE 006CAF90 ??_7ParticleSystemRendererFactory@Ogre@@6B@
       2272  8DF 006E9094 ??_7ParticleSystemTranslator@Ogre@@6B@
       2273  8E0 006CB0C8 ??_7ParticleVisualData@Ogre@@6B@
       2274  8E1 006DEFD0 ??_7Pass@Ogre@@6B@
       2275  8E2 006E9044 ??_7PassTranslator@Ogre@@6B@
       2276  8E3 006CE014 ??_7PassthroughControllerFunction@Ogre@@6B@
       2277  8E4 006DF888 ??_7PatchMesh@Ogre@@6BAnimationContainer@1@@
       2278  8E5 006DF79C ??_7PatchMesh@Ogre@@6BResource@1@@
       2279  8E6 006D6454 ??_7PixelCountLodStrategyBase@Ogre@@6B@
       2280  8E7 006C97CC ??_7PlaneBoundedVolumeListSceneQuery@Ogre@@6BSceneQuery@1@@
       2281  8E8 006C980C ??_7PlaneBoundedVolumeListSceneQuery@Ogre@@6BSceneQueryListener@1@@
       2282  8E9 006ECE3C ??_7PlaneOptimalShadowCameraSetup@Ogre@@6B@
       2283  8EA 006E631C ??_7Plugin@Ogre@@6B@
       2284  8EB 006C7D3C ??_7Pose@Ogre@@6B@
       2285  8EC 006CDA68 ??_7PreApplyTextureAliasesScriptCompilerEvent@Ogre@@6B@
       2286  8ED 006CDA80 ??_7ProcessNameExclusionScriptCompilerEvent@Ogre@@6B@
       2287  8EE 006CDA74 ??_7ProcessResourceNameScriptCompilerEvent@Ogre@@6B@
       2288  8EF 006CC308 ??_7ProfileInstance@Ogre@@6B@
       2289  8F0 006CC314 ??_7ProfileSessionListener@Ogre@@6B@
       2290  8F1 006CD9A8 ??_7PropertyAbstractNode@Ogre@@6B@
       2291  8F2 006C99A8 ??_7QueuedRenderableVisitor@Ogre@@6B@
       2292  8F3 006CCF88 ??_7RQListener@CompositorChain@Ogre@@6B@
       2293  8F4 006C98A4 ??_7RaySceneQuery@Ogre@@6BRaySceneQueryListener@1@@
       2294  8F5 006C984C ??_7RaySceneQuery@Ogre@@6BSceneQuery@1@@
       2295  8F6 006C9820 ??_7RaySceneQueryListener@Ogre@@6B@
       2296  8F7 006CD418 ??_7Rectangle2D@Ogre@@6B@
       2297  8F8 006CD400 ??_7Rectangle2D@Ogre@@6BAnimableObject@1@@
       2298  8F9 006CD2BC ??_7Rectangle2D@Ogre@@6BShadowCaster@1@@
       2299  8FA 006E77E8 ??_7Region@StaticGeometry@Ogre@@6BAnimableObject@2@@
       2300  8FB 006E76B0 ??_7Region@StaticGeometry@Ogre@@6BShadowCaster@2@@
       2301  8FC 006C96D0 ??_7RegionSceneQuery@Ogre@@6BSceneQuery@1@@
       2302  8FD 006C9710 ??_7RegionSceneQuery@Ogre@@6BSceneQueryListener@1@@
       2303  8FE 006E74B8 ??_7RenderObjectListener@Ogre@@6B@
       2304  8FF 006C999C ??_7RenderQueue@Ogre@@6B@
       2305  900 006E11A0 ??_7RenderQueueInvocation@Ogre@@6B@
       2306  901 006E11EC ??_7RenderQueueInvocationSequence@Ogre@@6B@
       2307  902 006CCE8C ??_7RenderQueueListener@Ogre@@6B@
       2308  903 006C9C58 ??_7RenderSystem@Ogre@@6B@
       2309  904 006C9B6C ??_7RenderSystemCapabilities@Ogre@@6B@
       2310  905 006E2C34 ??_7RenderSystemCapabilitiesManager@Ogre@@6B@
       2311  906 006E2D18 ??_7RenderSystemCapabilitiesSerializer@Ogre@@6B@
       2312  907 006CCEC4 ??_7RenderSystemOperation@CompositorInstance@Ogre@@6B@
       2313  908 006C92E8 ??_7RenderTarget@Ogre@@6B@
       2314  909 006CCE64 ??_7RenderTargetListener@Ogre@@6B@
       2315  90A 006CC934 ??_7RenderTexture@Ogre@@6B@
       2316  90B 006E450C ??_7RenderToVertexBuffer@Ogre@@6B@
       2317  90C 006E45A8 ??_7RenderWindow@Ogre@@6B@
       2318  90D 006C7628 ??_7Renderable@Ogre@@6B@
       2319  90E 006C998C ??_7RenderableListener@RenderQueue@Ogre@@6B@
       2320  90F 006C72E0 ??_7RenderingAPIException@Ogre@@6B@
       2321  910 006E4B30 ??_7RequestHandler@WorkQueue@Ogre@@6B@
       2322  911 006E077C ??_7Resource@Ogre@@6B@
       2323  912 006E4BF0 ??_7ResourceBackgroundQueue@Ogre@@6BRequestHandler@WorkQueue@1@@
       2324  913 006E4C3C ??_7ResourceBackgroundQueue@Ogre@@6BResponseHandler@WorkQueue@1@@
       2325  914 006C8124 ??_7ResourceGroupListener@Ogre@@6B@
       2326  915 006E4DA8 ??_7ResourceGroupManager@Ogre@@6B@
       2327  916 006E5A60 ??_7ResourceManager@Ogre@@6B@
       2328  917 006E5A00 ??_7ResourcePool@ResourceManager@Ogre@@6B@
       2329  918 006E4B44 ??_7ResponseHandler@WorkQueue@Ogre@@6B@
       2330  919 006E5E68 ??_7RibbonTrail@Ogre@@6BAnimableObject@1@@
       2331  91A 006E5E80 ??_7RibbonTrail@Ogre@@6BBillboardChain@1@@
       2332  91B 006E5EDC ??_7RibbonTrail@Ogre@@6BListener@Node@1@@
       2333  91C 006E5C40 ??_7RibbonTrail@Ogre@@6BShadowCaster@1@@
       2334  91D 006E5EF8 ??_7RibbonTrailFactory@Ogre@@6B@
       2335  91E 006C7328 ??_7RuntimeAssertionException@Ogre@@6B@
       2336  91F 006CE034 ??_7ScaleControllerFunction@Ogre@@6B@
       2337  920 006E6EB4 ??_7SceneManager@Ogre@@6B@
       2338  921 006CA11C ??_7SceneManagerFactory@Ogre@@6B@
       2339  922 006C9F34 ??_7SceneMgrQueuedRenderableVisitor@SceneManager@Ogre@@6B@
       2340  923 006CA17C ??_7SceneNode@Ogre@@6B@
       2341  924 006C9648 ??_7SceneQuery@Ogre@@6B@
       2342  925 006C9674 ??_7SceneQueryListener@Ogre@@6B@
       2343  926 006DFA20 ??_7ScreenRatioPixelCountLodStrategy@Ogre@@6B@
       2344  927 006CDA2C ??_7ScriptCompiler@Ogre@@6B@
       2345  928 006CDA44 ??_7ScriptCompilerListener@Ogre@@6B@
       2346  929 006E8FD0 ??_7ScriptCompilerManager@Ogre@@6B@
       2347  92A 006E8FE8 ??_7ScriptLexer@Ogre@@6B@
       2348  92B 006CAA38 ??_7ScriptLoader@Ogre@@6B@
       2349  92C 006E8FF4 ??_7ScriptParser@Ogre@@6B@
       2350  92D 006E9000 ??_7ScriptTranslator@Ogre@@6B@
       2351  92E 006DA668 ??_7Serializer@Ogre@@6B@
       2352  92F 006E74C8 ??_7ShadowCameraSetup@Ogre@@6B@
       2353  930 006C77B4 ??_7ShadowCaster@Ogre@@6B@
       2354  931 006C9F4C ??_7ShadowCasterSceneQueryListener@SceneManager@Ogre@@6B@
       2355  932 006C7738 ??_7ShadowRenderable@Ogre@@6B@
       2356  933 006ED0AC ??_7ShadowTextureManager@Ogre@@6B@
       2357  934 006E9084 ??_7SharedParamsTranslator@Ogre@@6B@
       2358  935 006CD1B8 ??_7SimpleRenderable@Ogre@@6B@
       2359  936 006CD1A0 ??_7SimpleRenderable@Ogre@@6BAnimableObject@1@@
       2360  937 006CD05C ??_7SimpleRenderable@Ogre@@6BShadowCaster@1@@
       2361  938 006F1C88 ??_7Skeleton@Ogre@@6BAnimationContainer@1@@
       2362  939 006F1B0C ??_7Skeleton@Ogre@@6BResource@1@@
       2363  93A 006F232C ??_7SkeletonInstance@Ogre@@6BAnimationContainer@1@@
       2364  93B 006F21B0 ??_7SkeletonInstance@Ogre@@6BResource@1@@
       2365  93C 006F2354 ??_7SkeletonManager@Ogre@@6B@
       2366  93D 006F1CB0 ??_7SkeletonSerializer@Ogre@@6B@
       2367  93E 006C9778 ??_7SphereSceneQuery@Ogre@@6BSceneQuery@1@@
       2368  93F 006C97B8 ??_7SphereSceneQuery@Ogre@@6BSceneQueryListener@1@@
       2369  940 006E7824 ??_7StaticGeometry@Ogre@@6B@
       2370  941 006F27D0 ??_7StreamSerialiser@Ogre@@6B@
       2371  942 006CAEE0 ??_7StringInterface@Ogre@@6B@
       2372  943 006C8558 ??_7SubEntity@Ogre@@6B@
       2373  944 006CEFF8 ??_7TagPoint@Ogre@@6B@
       2374  945 006DA8E8 ??_7TangentSpaceCalc@Ogre@@6B@
       2375  946 006E9034 ??_7TechniqueTranslator@Ogre@@6B@
       2376  947 006C8114 ??_7TempBlendedBufferInfo@Ogre@@6B@
       2377  948 006CDFDC ??_7TexCoordModifierControllerValue@Ogre@@6B@
       2378  949 006C9424 ??_7Texture@Ogre@@6B@
       2379  94A 006CDFC8 ??_7TextureFrameControllerValue@Ogre@@6B@
       2380  94B 006F3724 ??_7TextureManager@Ogre@@6B@
       2381  94C 006E9064 ??_7TextureSourceTranslator@Ogre@@6B@
       2382  94D 006E9054 ??_7TextureUnitTranslator@Ogre@@6B@
       2383  94E 006C803C ??_7TransformKeyFrame@Ogre@@6B@
       2384  94F 006F3AA0 ??_7UnifiedHighLevelGpuProgram@Ogre@@6B@
       2385  950 006C70F0 ??_7UnimplementedException@Ogre@@6B@
       2386  951 006F3E50 ??_7UserObjectBindings@Ogre@@6B@
       2387  952 006CD9D0 ??_7VariableAccessAbstractNode@Ogre@@6B@
       2388  953 006C7ED4 ??_7VertexAnimationTrack@Ogre@@6B@
       2389  954 006D2B40 ??_7VertexBufferBinding@Ogre@@6B@
       2390  955 006D2ADC ??_7VertexDeclaration@Ogre@@6B@
       2391  956 006C8064 ??_7VertexMorphKeyFrame@Ogre@@6B@
       2392  957 006C808C ??_7VertexPoseKeyFrame@Ogre@@6B@
       2393  958 006CA3C0 ??_7Viewport@Ogre@@6B@
       2394  959 006CE044 ??_7WaveformControllerFunction@Ogre@@6B@
       2395  95A 006E6398 ??_7WindowEventListener@Ogre@@6B@
       2396  95B 006E0B2C ??_7WireBoundingBox@Ogre@@6B@
       2397  95C 006E0B14 ??_7WireBoundingBox@Ogre@@6BAnimableObject@1@@
       2398  95D 006E09D0 ??_7WireBoundingBox@Ogre@@6BShadowCaster@1@@
       2399  95E 006E4B58 ??_7WorkQueue@Ogre@@6B@
       2400  95F 006F4BDC ??_7ZipArchive@Ogre@@6B@
       2401  960 006F3E6C ??_7invalid_data@UTFString@Ogre@@6B@
       2402  961 0001ABEA ??_FColourValue@Ogre@@QAEXXZ
       2403  962 00013020 ??_FDataStream@Ogre@@QAEXXZ
       2404  963 000049C1 ??_FDefaultWorkQueue@Ogre@@QAEXXZ
       2405  964 00038631 ??_FDefaultWorkQueueBase@Ogre@@QAEXXZ
       2406  965 0003F445 ??_FFrustum@Ogre@@QAEXXZ
       2407  966 00026D37 ??_FMath@Ogre@@QAEXXZ
       2408  967 0002DAD8 ??_FPassthroughControllerFunction@Ogre@@QAEXXZ
       2409  968 0000F51A ??_FRectangle2D@Ogre@@QAEXXZ
       2410  969 000194BB ??_FRoot@Ogre@@QAEXXZ
       2411  96A 00018AF7 ??_FVertexCacheProfiler@Ogre@@QAEXXZ
       2412  96B 00030729 ??_FVertexData@Ogre@@QAEXXZ
       2413  96C 000166B2 ??_U?$AllocatedObject@V?$CategorisedAllocPolicy@$00@Ogre@@@Ogre@@SAPAXI@Z
       2414  96D 0003F0AD ??_U?$AllocatedObject@V?$CategorisedAllocPolicy@$00@Ogre@@@Ogre@@SAPAXIPBDH0@Z
       2415  96E 000308C8 ??_U?$AllocatedObject@V?$CategorisedAllocPolicy@$01@Ogre@@@Ogre@@SAPAXI@Z
       2416  96F 0000F803 ??_U?$AllocatedObject@V?$CategorisedAllocPolicy@$01@Ogre@@@Ogre@@SAPAXIPBDH0@Z
       2417  970 00029154 ??_U?$AllocatedObject@V?$CategorisedAllocPolicy@$02@Ogre@@@Ogre@@SAPAXI@Z
       2418  971 00022D40 ??_U?$AllocatedObject@V?$CategorisedAllocPolicy@$02@Ogre@@@Ogre@@SAPAXIPBDH0@Z
       2419  972 00013DD6 ??_U?$AllocatedObject@V?$CategorisedAllocPolicy@$03@Ogre@@@Ogre@@SAPAXI@Z
       2420  973 00006A8C ??_U?$AllocatedObject@V?$CategorisedAllocPolicy@$03@Ogre@@@Ogre@@SAPAXIPBDH0@Z
       2421  974 00007310 ??_U?$AllocatedObject@V?$CategorisedAllocPolicy@$04@Ogre@@@Ogre@@SAPAXI@Z
       2422  975 000270C0 ??_U?$AllocatedObject@V?$CategorisedAllocPolicy@$04@Ogre@@@Ogre@@SAPAXIPBDH0@Z
       2423  976 00010FDC ??_U?$AllocatedObject@V?$CategorisedAllocPolicy@$05@Ogre@@@Ogre@@SAPAXI@Z
       2424  977 00036183 ??_U?$AllocatedObject@V?$CategorisedAllocPolicy@$05@Ogre@@@Ogre@@SAPAXIPBDH0@Z
       2425  978 000255E5 ??_U?$AllocatedObject@V?$CategorisedAllocPolicy@$06@Ogre@@@Ogre@@SAPAXI@Z
       2426  979 000252B1 ??_U?$AllocatedObject@V?$CategorisedAllocPolicy@$06@Ogre@@@Ogre@@SAPAXIPBDH0@Z
       2427  97A 0003905E ??_U?$AllocatedObject@V?$CategorisedAllocPolicy@$0A@@Ogre@@@Ogre@@SAPAXI@Z
       2428  97B 00040309 ??_U?$AllocatedObject@V?$CategorisedAllocPolicy@$0A@@Ogre@@@Ogre@@SAPAXIPBDH0@Z
       2429  97C 00002B67 ??_V?$AllocatedObject@V?$CategorisedAllocPolicy@$00@Ogre@@@Ogre@@SAXPAX@Z
       2430  97D 00012B20 ??_V?$AllocatedObject@V?$CategorisedAllocPolicy@$00@Ogre@@@Ogre@@SAXPAXPBDH1@Z
       2431  97E 00014EF2 ??_V?$AllocatedObject@V?$CategorisedAllocPolicy@$01@Ogre@@@Ogre@@SAXPAX@Z
       2432  97F 000084F9 ??_V?$AllocatedObject@V?$CategorisedAllocPolicy@$01@Ogre@@@Ogre@@SAXPAXPBDH1@Z
       2433  980 0003F94A ??_V?$AllocatedObject@V?$CategorisedAllocPolicy@$02@Ogre@@@Ogre@@SAXPAX@Z
       2434  981 0000C5AE ??_V?$AllocatedObject@V?$CategorisedAllocPolicy@$02@Ogre@@@Ogre@@SAXPAXPBDH1@Z
       2435  982 00002CAC ??_V?$AllocatedObject@V?$CategorisedAllocPolicy@$03@Ogre@@@Ogre@@SAXPAX@Z
       2436  983 00005FAB ??_V?$AllocatedObject@V?$CategorisedAllocPolicy@$03@Ogre@@@Ogre@@SAXPAXPBDH1@Z
       2437  984 0000179E ??_V?$AllocatedObject@V?$CategorisedAllocPolicy@$04@Ogre@@@Ogre@@SAXPAX@Z
       2438  985 0001087F ??_V?$AllocatedObject@V?$CategorisedAllocPolicy@$04@Ogre@@@Ogre@@SAXPAXPBDH1@Z
       2439  986 0003BE2B ??_V?$AllocatedObject@V?$CategorisedAllocPolicy@$05@Ogre@@@Ogre@@SAXPAX@Z
       2440  987 0002BD50 ??_V?$AllocatedObject@V?$CategorisedAllocPolicy@$05@Ogre@@@Ogre@@SAXPAXPBDH1@Z
       2441  988 0001A89D ??_V?$AllocatedObject@V?$CategorisedAllocPolicy@$06@Ogre@@@Ogre@@SAXPAX@Z
       2442  989 0001756C ??_V?$AllocatedObject@V?$CategorisedAllocPolicy@$06@Ogre@@@Ogre@@SAXPAXPBDH1@Z
       2443  98A 0002CB5B ??_V?$AllocatedObject@V?$CategorisedAllocPolicy@$0A@@Ogre@@@Ogre@@SAXPAX@Z
       2444  98B 0002575C ??_V?$AllocatedObject@V?$CategorisedAllocPolicy@$0A@@Ogre@@@Ogre@@SAXPAXPBDH1@Z
       2445  98C 00020E0F ?ACos@Math@Ogre@@SA?AVRadian@2@M@Z
       2446  98D 0002E0AF ?ASin@Math@Ogre@@SA?AVRadian@2@M@Z
       2447  98E 00017C4C ?ATan2@Math@Ogre@@SA?AVRadian@2@MM@Z
       2448  98F 00002D6A ?ATan@Math@Ogre@@SA?AVRadian@2@M@Z
       2449  990 00958868 ?AUTODETECT_RESOURCE_GROUP_NAME@ResourceGroupManager@Ogre@@2V?$basic_string@DU?$char_traits@D@std@@V?$allocator@D@2@@std@@A
       2450  991 0000682F ?Abs@Math@Ogre@@SA?AVDegree@2@ABV32@@Z
       2451  992 00027E49 ?Abs@Math@Ogre@@SA?AVRadian@2@ABV32@@Z
       2452  993 0000F8D5 ?Abs@Math@Ogre@@SAMM@Z
       2453  994 00006271 ?AddInternalProgram@ShadowVolumeExtrudeProgram@Ogre@@SAXV?$basic_string@DU?$char_traits@D@std@@V?$allocator@D@2@@std@@0000W4GpuProgramType@2@@Z
       2454  995 0002C4DF ?AngleUnitsToDegrees@Math@Ogre@@SAMM@Z
       2455  996 00011563 ?AngleUnitsToRadians@Math@Ogre@@SAMM@Z
       2456  997 009AA580 ?AutoConstantDictionary@GpuProgramParameters@Ogre@@1PAUAutoConstantDefinition@12@A
       2457  998 006CCE5C ?BEST@CompositorChain@Ogre@@2IB
       2458  999 0095609C ?BOX_INFINITE@AxisAlignedBox@Ogre@@2V12@B
       2459  99A 009A8C0C ?BOX_NULL@AxisAlignedBox@Ogre@@2V12@B
       2460  99B 00022D54 ?Bidiagonalize@Matrix3@Ogre@@KAXAAV12@00@Z
       2461  99C 00956204 ?Black@ColourValue@Ogre@@2V12@B
       2462  99D 00956244 ?Blue@ColourValue@Ogre@@2V12@B
       2463  99E 0095BF48 ?CHUNK_HEADER_SIZE@StreamSerialiser@Ogre@@1IA
       2464  99F 00956788 ?CLIPSPACE2DTOIMAGESPACE@Matrix4@Ogre@@2V12@B
       2465  9A0 0001A6EF ?Ceil@Math@Ogre@@SAMM@Z
       2466  9A1 000227A0 ?Cos@Math@Ogre@@SAMABVRadian@2@_N@Z
       2467  9A2 00021CBF ?Cos@Math@Ogre@@SAMM_N@Z
       2468  9A3 000071DF ?CreateThread@Threads@Ogre@@SA?AV?$SharedPtr@VThreadHandle@Ogre@@@2@P6GKPAX@ZI0@Z
       2469  9A4 00958838 ?DEFAULT_RESOURCE_GROUP_NAME@ResourceGroupManager@Ogre@@2V?$basic_string@DU?$char_traits@D@std@@V?$allocator@D@2@@std@@A
       2470  9A5 00956698 ?DEFAULT_SCHEME_NAME@MaterialManager@Ogre@@2V?$basic_string@DU?$char_traits@D@std@@V?$allocator@D@2@@std@@A
       2471  9A6 000351CF ?DegreesToAngleUnits@Math@Ogre@@SAMM@Z
       2472  9A7 000386C2 ?DegreesToRadians@Math@Ogre@@SAMM@Z
       2473  9A8 0002F5FE ?Determinant@Matrix3@Ogre@@QBEMXZ
       2474  9A9 0002D7FE ?DlgProc@ConfigDialog@Ogre@@KGHPAUHWND__@@IIJ@Z
       2475  9AA 0003BD40 ?DlgProc@ErrorDialog@Ogre@@KGHPAUHWND__@@IIJ@Z
       2476  9AB 0000FC63 ?Dot@Quaternion@Ogre@@QBEMABV12@@Z
       2477  9AC 0095AEF4 ?ENTITY_TYPE_MASK@SceneManager@Ogre@@2IA
       2478  9AD 006DA64C ?EPSILON@Matrix3@Ogre@@2MB
       2479  9AE 006D2504 ?EXPIRED_DELAY_FRAME_THRESHOLD@HardwareBufferManagerBase@Ogre@@1IB
       2480  9AF 0003D690 ?EigenSolveSymmetric@Matrix3@Ogre@@QBEXQAMQAVVector3@2@@Z
       2481  9B0 00017FFD ?Exp@Math@Ogre@@SAMM@Z
       2482  9B1 00024690 ?Exp@Quaternion@Ogre@@QBE?AV12@XZ
       2483  9B2 009560FC ?FACTORY_TYPE_NAME@BillboardChainFactory@Ogre@@2V?$basic_string@DU?$char_traits@D@std@@V?$allocator@D@2@@std@@A
       2484  9B3 00956194 ?FACTORY_TYPE_NAME@BillboardSetFactory@Ogre@@2V?$basic_string@DU?$char_traits@D@std@@V?$allocator@D@2@@std@@A
       2485  9B4 0095B6DC ?FACTORY_TYPE_NAME@DefaultSceneManagerFactory@Ogre@@2V?$basic_string@DU?$char_traits@D@std@@V?$allocator@D@2@@std@@B
       2486  9B5 009563A8 ?FACTORY_TYPE_NAME@EntityFactory@Ogre@@2V?$basic_string@DU?$char_traits@D@std@@V?$allocator@D@2@@std@@A
       2487  9B6 00956604 ?FACTORY_TYPE_NAME@LightFactory@Ogre@@2V?$basic_string@DU?$char_traits@D@std@@V?$allocator@D@2@@std@@A
       2488  9B7 00956640 ?FACTORY_TYPE_NAME@ManualObjectFactory@Ogre@@2V?$basic_string@DU?$char_traits@D@std@@V?$allocator@D@2@@std@@A
       2489  9B8 009569D0 ?FACTORY_TYPE_NAME@ParticleSystemFactory@Ogre@@2V?$basic_string@DU?$char_traits@D@std@@V?$allocator@D@2@@std@@A
       2490  9B9 009588AC ?FACTORY_TYPE_NAME@RibbonTrailFactory@Ogre@@2V?$basic_string@DU?$char_traits@D@std@@V?$allocator@D@2@@std@@A
       2491  9BA 0095AF04 ?FRUSTUM_TYPE_MASK@SceneManager@Ogre@@2IA
       2492  9BB 0095AEF8 ?FX_TYPE_MASK@SceneManager@Ogre@@2IA
       2493  9BC 0001BC48 ?FastHash@Ogre@@YAIPBDHI@Z
       2494  9BD 0000B127 ?Floor@Math@Ogre@@SAMM@Z
       2495  9BE 0000D75B ?FromAngleAxis@Matrix3@Ogre@@QAEXABVVector3@2@ABVRadian@2@@Z
       2496  9BF 00010D8E ?FromAngleAxis@Quaternion@Ogre@@QAEXABVRadian@2@ABVVector3@2@@Z
       2497  9C0 0003F06C ?FromAxes@Matrix3@Ogre@@QAEXABVVector3@2@00@Z
       2498  9C1 0002F8B5 ?FromAxes@Quaternion@Ogre@@QAEXABVVector3@2@00@Z
       2499  9C2 0003F819 ?FromAxes@Quaternion@Ogre@@QAEXPBVVector3@2@@Z
       2500  9C3 00010A46 ?FromEulerAnglesXYZ@Matrix3@Ogre@@QAEXABVRadian@2@00@Z
       2501  9C4 000302E7 ?FromEulerAnglesXZY@Matrix3@Ogre@@QAEXABVRadian@2@00@Z
       2502  9C5 00005B50 ?FromEulerAnglesYXZ@Matrix3@Ogre@@QAEXABVRadian@2@00@Z
       2503  9C6 0002E1EA ?FromEulerAnglesYZX@Matrix3@Ogre@@QAEXABVRadian@2@00@Z
       2504  9C7 00027F34 ?FromEulerAnglesZXY@Matrix3@Ogre@@QAEXABVRadian@2@00@Z
       2505  9C8 0001C125 ?FromEulerAnglesZYX@Matrix3@Ogre@@QAEXABVRadian@2@00@Z
       2506  9C9 0001E75E ?FromRotationMatrix@Quaternion@Ogre@@QAEXABVMatrix3@2@@Z
       2507  9CA 0003F170 ?GetColumn@Matrix3@Ogre@@QBE?AVVector3@2@I@Z
       2508  9CB 000361AB ?GolubKahanStep@Matrix3@Ogre@@KAXAAV12@00@Z
       2509  9CC 00956234 ?Green@ColourValue@Ogre@@2V12@B
       2510  9CD 009ABFA4 ?HALF_PI@Math@Ogre@@2MB
       2511  9CE 0095BF40 ?HEADER_ID@StreamSerialiser@Ogre@@1IA
       2512  9CF 0002F8F1 ?IAbs@Math@Ogre@@SAHH@Z
       2513  9D0 00021C47 ?ICeil@Math@Ogre@@SAHM@Z
       2514  9D1 009566D8 ?IDENTITY@Matrix3@Ogre@@2V12@B
       2515  9D2 00956748 ?IDENTITY@Matrix4@Ogre@@2V12@B
       2516  9D3 0095871C ?IDENTITY@Quaternion@Ogre@@2V12@B
       2517  9D4 000116D5 ?IFloor@Math@Ogre@@SAHM@Z
       2518  9D5 006CFE8C ?INFINITE_FAR_PLANE_ADJUST@Frustum@Ogre@@2MB
       2519  9D6 00958850 ?INTERNAL_RESOURCE_GROUP_NAME@ResourceGroupManager@Ogre@@2V?$basic_string@DU?$char_traits@D@std@@V?$allocator@D@2@@std@@A
       2520  9D7 006C74F8 ?INVALID_KEY_INDEX@TimeIndex@Ogre@@1IB
       2521  9D8 00009D36 ?ISign@Math@Ogre@@SAHH@Z
       2522  9D9 00002770 ?Intermediate@Quaternion@Ogre@@SAXABV12@00AAV12@1@Z
       2523  9DA 000133AE ?InvSqrt@Math@Ogre@@SAMM@Z
       2524  9DB 000222D7 ?Inverse@Matrix3@Ogre@@QBE?AV12@M@Z
       2525  9DC 000322FE ?Inverse@Matrix3@Ogre@@QBE_NAAV12@M@Z
       2526  9DD 0000ECF0 ?Inverse@Quaternion@Ogre@@QBE?AV12@XZ
       2527  9DE 006CCE58 ?LAST@CompositorChain@Ogre@@2IB
       2528  9DF 0095AF00 ?LIGHT_TYPE_MASK@SceneManager@Ogre@@2IA
       2529  9E0 009ABFB0 ?LOG2@Math@Ogre@@2MB
       2530  9E1 000060B4 ?Log2@Math@Ogre@@SAMM@Z
       2531  9E2 00022133 ?Log@Math@Ogre@@SAMM@Z
       2532  9E3 00020045 ?Log@Quaternion@Ogre@@QBE?AV12@XZ
       2533  9E4 0002BD37 ?LogN@Math@Ogre@@SAMMM@Z
       2534  9E5 0001A2C1 ?MaxCubicRoot@Matrix3@Ogre@@KAMQAM@Z
       2535  9E6 00031E49 ?MurmurHash3_x64_128@Ogre@@YAXPBXHIPAX@Z
       2536  9E7 0003DB27 ?MurmurHash3_x86_128@Ogre@@YAXPBXHIPAX@Z
       2537  9E8 000342A7 ?MurmurHash3_x86_32@Ogre@@YAXPBXHIPAX@Z
       2538  9E9 0095C080 ?NEGATIVE_UNIT_X@Vector2@Ogre@@2V12@B
       2539  9EA 0095C0C4 ?NEGATIVE_UNIT_X@Vector3@Ogre@@2V12@B
       2540  9EB 0095C088 ?NEGATIVE_UNIT_Y@Vector2@Ogre@@2V12@B
       2541  9EC 0095C0D0 ?NEGATIVE_UNIT_Y@Vector3@Ogre@@2V12@B
       2542  9ED 0095C0DC ?NEGATIVE_UNIT_Z@Vector3@Ogre@@2V12@B
       2543  9EE 009ABF98 ?NEG_INFINITY@Math@Ogre@@2MB
       2544  9EF 0002F62B ?Norm@Quaternion@Ogre@@QBEMXZ
       2545  9F0 009A8BD4 ?Ogre_InterlockedCompareExchange64@InterlockedCompareExchange64Wrapper@Ogre@@2P6G_JPC_J_J1@ZA
       2546  9F1 0000B005 ?Ogre_InterlockedDecrement64@InterlockedCompareExchange64Wrapper@Ogre@@SA_JPC_J@Z
       2547  9F2 00028B41 ?Ogre_InterlockedIncrement64@InterlockedCompareExchange64Wrapper@Ogre@@SA_JPC_J@Z
       2548  9F3 00020568 ?Orthonormalize@Matrix3@Ogre@@QAEXXZ
       2549  9F4 009ABF9C ?PI@Math@Ogre@@2MB
       2550  9F5 009ABF94 ?POS_INFINITY@Math@Ogre@@2MB
       2551  9F6 00004115 ?Pow@Math@Ogre@@SAMMM@Z
       2552  9F7 00014F1F ?QDUDecomposition@Matrix3@Ogre@@QBEXAAV12@AAVVector3@2@1@Z
       2553  9F8 00002E4B ?QLAlgorithm@Matrix3@Ogre@@IAE_NQAM0@Z
       2554  9F9 00958790 ?RENDER_QUEUE_INVOCATION_SHADOWS@RenderQueueInvocation@Ogre@@2V?$basic_string@DU?$char_traits@D@std@@V?$allocator@D@2@@std@@A
       2555  9FA 0095881C ?RESOURCE_SYSTEM_NUM_REFERENCE_COUNTS@ResourceGroupManager@Ogre@@2IA
       2556  9FB 0095BF44 ?REVERSE_HEADER_ID@StreamSerialiser@Ogre@@1IA
       2557  9FC 00030B5C ?RadiansToAngleUnits@Math@Ogre@@SAMM@Z
       2558  9FD 0002F923 ?RadiansToDegrees@Math@Ogre@@SAMM@Z
       2559  9FE 00008C38 ?RangeRandom@Math@Ogre@@SAMMM@Z
       2560  9FF 00004223 ?RealEqual@Math@Ogre@@SA_NMMM@Z
       2561  A00 00956224 ?Red@ColourValue@Ogre@@2V12@B
       2562  A01 009560F8 ?SEGMENT_EMPTY@BillboardChain@Ogre@@1IB
       2563  A02 0095AEFC ?STATICGEOMETRY_TYPE_MASK@SceneManager@Ogre@@2IA
       2564  A03 0000A448 ?SetColumn@Matrix3@Ogre@@QAEXIABVVector3@2@@Z
       2565  A04 00001096 ?SetRandomValueProvider@Math@Ogre@@SAXPAVRandomValueProvider@12@@Z
       2566  A05 0002E820 ?Sign@Math@Ogre@@SA?AVDegree@2@ABV32@@Z
       2567  A06 00023777 ?Sign@Math@Ogre@@SA?AVRadian@2@ABV32@@Z
       2568  A07 0001AFAA ?Sign@Math@Ogre@@SAMM@Z
       2569  A08 00037E52 ?Sin@Math@Ogre@@SAMABVRadian@2@_N@Z
       2570  A09 000188FE ?Sin@Math@Ogre@@SAMM_N@Z
       2571  A0A 000170F3 ?SinTable@Math@Ogre@@KAMM@Z
       2572  A0B 00024947 ?SingularValueComposition@Matrix3@Ogre@@QAEXABV12@ABVVector3@2@0@Z
       2573  A0C 000104D3 ?SingularValueDecomposition@Matrix3@Ogre@@QBEXAAV12@AAVVector3@2@0@Z
       2574  A0D 0000E51B ?Sleep@Threads@Ogre@@SAXI@Z
       2575  A0E 000343D8 ?Slerp@Quaternion@Ogre@@SA?AV12@MABV12@0_N@Z
       2576  A0F 00035DCD ?SlerpExtraSpins@Quaternion@Ogre@@SA?AV12@MABV12@0H@Z
       2577  A10 0000AD1C ?SpectralNorm@Matrix3@Ogre@@QBEMXZ
       2578  A11 00031FC5 ?Sqr@Math@Ogre@@SAMM@Z
       2579  A12 0000E1BA ?Sqrt@Math@Ogre@@SA?AVDegree@2@ABV32@@Z
       2580  A13 0003F477 ?Sqrt@Math@Ogre@@SA?AVRadian@2@ABV32@@Z
       2581  A14 0003C83A ?Sqrt@Math@Ogre@@SAMM@Z
       2582  A15 00036EE9 ?Squad@Quaternion@Ogre@@SA?AV12@MABV12@000_N@Z
       2583  A16 0000C928 ?SymmetricRandom@Math@Ogre@@SAMXZ
       2584  A17 009ABFA0 ?TWO_PI@Math@Ogre@@2MB
       2585  A18 0002BFF8 ?Tan@Math@Ogre@@SAMABVRadian@2@_N@Z
       2586  A19 0000ACCC ?Tan@Math@Ogre@@SAMM_N@Z
       2587  A1A 00021026 ?TanTable@Math@Ogre@@KAMM@Z
       2588  A1B 00027390 ?TensorProduct@Matrix3@Ogre@@SAXABVVector3@2@0AAV12@@Z
       2589  A1C 0001D228 ?ToAngleAxis@Matrix3@Ogre@@QBEXAAVVector3@2@AAVDegree@2@@Z
       2590  A1D 0000E68D ?ToAngleAxis@Matrix3@Ogre@@QBEXAAVVector3@2@AAVRadian@2@@Z
       2591  A1E 00013B92 ?ToAngleAxis@Quaternion@Ogre@@QBEXAAVDegree@2@AAVVector3@2@@Z
       2592  A1F 00007775 ?ToAngleAxis@Quaternion@Ogre@@QBEXAAVRadian@2@AAVVector3@2@@Z
       2593  A20 0001D04D ?ToAxes@Quaternion@Ogre@@QBEXAAVVector3@2@00@Z
       2594  A21 00018214 ?ToAxes@Quaternion@Ogre@@QBEXPAVVector3@2@@Z
       2595  A22 0001F34D ?ToEulerAnglesXYZ@Matrix3@Ogre@@QBE_NAAVRadian@2@00@Z
       2596  A23 0003E1D0 ?ToEulerAnglesXZY@Matrix3@Ogre@@QBE_NAAVRadian@2@00@Z
       2597  A24 0000377E ?ToEulerAnglesYXZ@Matrix3@Ogre@@QBE_NAAVRadian@2@00@Z
       2598  A25 000264F9 ?ToEulerAnglesYZX@Matrix3@Ogre@@QBE_NAAVRadian@2@00@Z
       2599  A26 0002BF44 ?ToEulerAnglesZXY@Matrix3@Ogre@@QBE_NAAVRadian@2@00@Z
       2600  A27 00004818 ?ToEulerAnglesZYX@Matrix3@Ogre@@QBE_NAAVRadian@2@00@Z
       2601  A28 0002F32E ?ToRotationMatrix@Quaternion@Ogre@@QBEXAAVMatrix3@2@@Z
       2602  A29 0003EBE4 ?Transpose@Matrix3@Ogre@@QBE?AV12@XZ
       2603  A2A 00022FB1 ?Tridiagonal@Matrix3@Ogre@@IAEXQAM0@Z
       2604  A2B 006D2500 ?UNDER_USED_FRAME_THRESHOLD@HardwareBufferManagerBase@Ogre@@1IB
       2605  A2C 0095C090 ?UNIT_SCALE@Vector2@Ogre@@2V12@B
       2606  A2D 0095C0E8 ?UNIT_SCALE@Vector3@Ogre@@2V12@B
       2607  A2E 0095C070 ?UNIT_X@Vector2@Ogre@@2V12@B
       2608  A2F 0095C0A0 ?UNIT_X@Vector3@Ogre@@2V12@B
       2609  A30 0095C078 ?UNIT_Y@Vector2@Ogre@@2V12@B
       2610  A31 0095C0AC ?UNIT_Y@Vector3@Ogre@@2V12@B
       2611  A32 0095C0B8 ?UNIT_Z@Vector3@Ogre@@2V12@B
       2612  A33 009B0B14 ?USER_TYPE_MASK_LIMIT@SceneManager@Ogre@@2IA
       2613  A34 0001EA97 ?UnitInverse@Quaternion@Ogre@@QBE?AV12@XZ
       2614  A35 0003FA12 ?UnitRandom@Math@Ogre@@SAMXZ
       2615  A36 0095AEF0 ?WORLD_GEOMETRY_TYPE_MASK@SceneManager@Ogre@@2IA
       2616  A37 000270E3 ?WaitForThreads@Threads@Ogre@@SAXABV?$vector@V?$SharedPtr@VThreadHandle@Ogre@@@Ogre@@V?$STLAllocator@V?$SharedPtr@VThreadHandle@Ogre@@@Ogre@@V?$CategorisedAllocPolicy@$0A@@2@@2@@std@@@Z
       2617  A38 000330E1 ?WaitForThreads@Threads@Ogre@@SAXIPBV?$SharedPtr@VThreadHandle@Ogre@@@2@@Z
       2618  A39 00956214 ?White@ColourValue@Ogre@@2V12@B
       2619  A3A 009AA484 ?ZERO@ColourValue@Ogre@@2V12@B
       2620  A3B 009ABFC0 ?ZERO@Matrix3@Ogre@@2V12@B
       2621  A3C 009ABFF0 ?ZERO@Matrix4@Ogre@@2V12@B
       2622  A3D 009ADA04 ?ZERO@Quaternion@Ogre@@2V12@B
       2623  A3E 009B0ED8 ?ZERO@Vector2@Ogre@@2V12@B
       2624  A3F 009B0EE4 ?ZERO@Vector3@Ogre@@2V12@B
       2625  A40 009B0EF4 ?ZERO@Vector4@Ogre@@2V12@B
       2626  A41 00956708 ?ZEROAFFINE@Matrix4@Ogre@@2V12@B
       2627  A42 0003756F ?_WndProc@WindowEventUtilities@Ogre@@SGJPAUHWND__@@IIJ@Z
       2628  A43 000112C5 ?_addBoundingBoxToQueue@SceneNode@Ogre@@UAEXPAVRenderQueue@2@@Z
       2629  A44 0002108A ?_addDirtyBatch@InstanceManager@Ogre@@QAEXPAVInstanceBatch@2@@Z
       2630  A45 000385BE ?_addDirtyInstanceManager@SceneManager@Ogre@@QAEXPAVInstanceManager@2@@Z
       2631  A46 0000AEC0 ?_addRenderSystemCapabilities@RenderSystemCapabilitiesManager@Ogre@@QAEXABV?$basic_string@DU?$char_traits@D@std@@V?$allocator@D@2@@std@@PAVRenderSystemCapabilities@2@@Z
       2632  A47 0000493F ?_addRenderWindow@WindowEventUtilities@Ogre@@SAXPAVRenderWindow@2@@Z
       2633  A48 000301F2 ?_allocateNextMovableObjectTypeFlag@Root@Ogre@@QAEIXZ
       2634  A49 00002446 ?_applyBaseKeyFrame@Animation@Ogre@@QAEXXZ
       2635  A4A 0002298A ?_applyBaseKeyFrame@AnimationTrack@Ogre@@UAEXPBVKeyFrame@2@@Z
       2636  A4B 0003FD4B ?_applyBaseKeyFrame@NodeAnimationTrack@Ogre@@UAEXPBVKeyFrame@2@@Z
       2637  A4C 0001CB48 ?_applyBaseKeyFrame@VertexAnimationTrack@Ogre@@UAEXPBVKeyFrame@2@@Z
       2638  A4D 0003829E ?_applyBaseKeyFrame@VertexPoseKeyFrame@Ogre@@QAEXPBV12@@Z
       2639  A4E 00009E12 ?_applyMotion@ParticleSystem@Ogre@@IAEXM@Z
       2640  A4F 00010208 ?_applySceneAnimations@SceneManager@Ogre@@UAEXXZ
       2641  A50 0000F7B8 ?_arbitrateMissingTechniqueForActiveScheme@MaterialManager@Ogre@@UAEPAVTechnique@2@PAVMaterial@2@GPBVRenderable@2@@Z
       2642  A51 0002C09D ?_areRenderStateChangesSuppressed@SceneManager@Ogre@@UBE_NXZ
       2643  A52 0001FC71 ?_areShadowsSuppressed@SceneManager@Ogre@@UBE_NXZ
       2644  A53 0000F902 ?_autoTrack@Camera@Ogre@@QAEXXZ
       2645  A54 0003ECCA ?_autoTrack@SceneNode@Ogre@@QAEXXZ
       2646  A55 0001AA5F ?_become@_base_iterator@UTFString@Ogre@@IAEXABV123@@Z
       2647  A56 0002D407 ?_beginGeometryCount@RenderSystem@Ogre@@UAEXXZ
       2648  A57 00006604 ?_beginUpdate@RenderTarget@Ogre@@UAEXXZ
       2649  A58 000378E4 ?_boundsDirty@InstanceBatch@Ogre@@UAEXXZ
       2650  A59 00003224 ?_boundsDirty@InstanceBatchHW@Ogre@@UAEXXZ
       2651  A5A 0001F7A3 ?_boundsDirty@InstanceBatchHW_VTF@Ogre@@UAEXXZ
       2652  A5B 00029E65 ?_buildKeyFrameIndexMap@AnimationTrack@Ogre@@UAEXABV?$vector@MV?$STLAllocator@MV?$CategorisedAllocPolicy@$0A@@Ogre@@@Ogre@@@std@@@Z
       2653  A5C 0003FC8D ?_buildMapBoneByHandle@Skeleton@Ogre@@UBEXPBV12@AAV?$vector@GV?$STLAllocator@GV?$CategorisedAllocPolicy@$0A@@Ogre@@@Ogre@@@std@@@Z
       2654  A5D 0002E6E0 ?_buildMapBoneByName@Skeleton@Ogre@@UBEXPBV12@AAV?$vector@GV?$STLAllocator@GV?$CategorisedAllocPolicy@$0A@@Ogre@@@Ogre@@@std@@@Z
       2655  A5E 0002B576 ?_calcBoundsFromVertexBuffer@Mesh@Ogre@@QAEXPAVVertexData@2@AAVAxisAlignedBox@2@AAM_N@Z
       2656  A5F 000041FB ?_calcTempSquareDist@Light@Ogre@@QAEXABVVector3@2@@Z
       2657  A60 0002920D ?_cleanBuffer@UTFString@Ogre@@ABEXXZ
       2658  A61 00015023 ?_cleanupDepthBuffers@RenderSystem@Ogre@@QAEX_N@Z
       2659  A62 0003E810 ?_clearSliceRTT@HardwarePixelBuffer@Ogre@@MAEXI@Z
       2660  A63 00017AEE ?_clearUpdatedFlag@Viewport@Ogre@@QAEXXZ
       2661  A64 00006992 ?_clone@KeyFrame@Ogre@@UBEPAV12@PAVAnimationTrack@2@@Z
       2662  A65 0000F8B7 ?_clone@NodeAnimationTrack@Ogre@@QBEPAV12@PAVAnimation@2@@Z
       2663  A66 0002B378 ?_clone@NumericAnimationTrack@Ogre@@QBEPAV12@PAVAnimation@2@@Z
       2664  A67 000272D2 ?_clone@NumericKeyFrame@Ogre@@UBEPAVKeyFrame@2@PAVAnimationTrack@2@@Z
       2665  A68 00025C98 ?_clone@TransformKeyFrame@Ogre@@UBEPAVKeyFrame@2@PAVAnimationTrack@2@@Z
       2666  A69 00031FE8 ?_clone@VertexAnimationTrack@Ogre@@QBEPAV12@PAVAnimation@2@@Z
       2667  A6A 000208F6 ?_clone@VertexMorphKeyFrame@Ogre@@UBEPAVKeyFrame@2@PAVAnimationTrack@2@@Z
       2668  A6B 00006140 ?_clone@VertexPoseKeyFrame@Ogre@@UBEPAVKeyFrame@2@PAVAnimationTrack@2@@Z
       2669  A6C 00021625 ?_collectIdentityNodeTracks@Animation@Ogre@@QBEXAAV?$set@GU?$less@G@std@@V?$STLAllocator@GV?$CategorisedAllocPolicy@$0A@@Ogre@@@Ogre@@@std@@@Z
       2670  A6D 0000FBA5 ?_collectKeyFrameTimes@AnimationTrack@Ogre@@UAEXAAV?$vector@MV?$STLAllocator@MV?$CategorisedAllocPolicy@$0A@@Ogre@@@Ogre@@@std@@@Z
       2671  A6E 00019F92 ?_compile@CompositorChain@Ogre@@QAEXXZ
       2672  A6F 00004C2D ?_compile@ScriptCompiler@Ogre@@QAE_NV?$SharedPtr@V?$list@V?$SharedPtr@VAbstractNode@Ogre@@@Ogre@@V?$STLAllocator@V?$SharedPtr@VAbstractNode@Ogre@@@Ogre@@V?$CategorisedAllocPolicy@$0A@@2@@2@@std@@@2@ABV?$basic_string@DU?$char_traits@D@std@@V?$allocator@D@2@@std@@_N22@Z
       2673  A70 00029AF0 ?_compile@Technique@Ogre@@QAE?AV?$basic_string@DU?$char_traits@D@std@@V?$allocator@D@2@@std@@_N@Z
       2674  A71 0002B229 ?_compileBoneAssignments@Mesh@Ogre@@QAEXXZ
       2675  A72 0001C0E4 ?_compileBoneAssignments@SubMesh@Ogre@@QAEXXZ
       2676  A73 0003E612 ?_compileIlluminationPasses@Technique@Ogre@@QAEXXZ
       2677  A74 00037F9C ?_compileOutputOperation@CompositorInstance@Ogre@@UAEXAAVTargetOperation@12@@Z
       2678  A75 00027DDB ?_compileTargetOperations@CompositorInstance@Ogre@@UAEXAAV?$vector@VTargetOperation@CompositorInstance@Ogre@@V?$STLAllocator@VTargetOperation@CompositorInstance@Ogre@@V?$CategorisedAllocPolicy@$0A@@3@@3@@std@@@Z
       2679  A76 0001D318 ?_computeBoneBoundingRadius@Mesh@Ogre@@QAEXXZ
       2680  A77 006F3E5F ?_cont@UTFString@Ogre@@0EB
       2681  A78 006F3E60 ?_cont_mask@UTFString@Ogre@@0EB
       2682  A79 00028218 ?_copySharedParams@GpuProgramParameters@Ogre@@QAEXXZ
       2683  A7A 0000CDE2 ?_copySharedParamsToTargetParams@GpuSharedParametersUsage@Ogre@@QAEXXZ
       2684  A7B 00024E6A ?_createAffector@ParticleSystemManager@Ogre@@QAEPAVParticleAffector@2@ABV?$basic_string@DU?$char_traits@D@std@@V?$allocator@D@2@@std@@PAVParticleSystem@2@@Z
       2685  A7C 0001EB69 ?_createBuffers@BillboardSet@Ogre@@AAEXXZ
       2686  A7D 0001CA30 ?_createEmitter@ParticleSystemManager@Ogre@@QAEPAVParticleEmitter@2@ABV?$basic_string@DU?$char_traits@D@std@@V?$allocator@D@2@@std@@PAVParticleSystem@2@@Z
       2687  A7E 0002A9B9 ?_createRenderWindows@RenderSystem@Ogre@@UAE_NABV?$vector@URenderWindowDescription@Ogre@@V?$STLAllocator@URenderWindowDescription@Ogre@@V?$CategorisedAllocPolicy@$0A@@2@@2@@std@@AAV?$vector@PAVRenderWindow@Ogre@@V?$STLAllocator@PAVRenderWindow@Ogre@@V?$CategorisedAllocPolicy@$0A@@2@@2@@4@@Z
       2688  A7F 00021A9E ?_createRenderer@ParticleSystemManager@Ogre@@QAEPAVParticleSystemRenderer@2@ABV?$basic_string@DU?$char_traits@D@std@@V?$allocator@D@2@@std@@@Z
       2689  A80 0002FFBD ?_createSeparateLightCap@EntityShadowRenderable@Entity@Ogre@@QAEXXZ
       2690  A81 00037236 ?_createVisualData@ParticleSystemRenderer@Ogre@@UAEPAVParticleVisualData@2@XZ
       2691  A82 000373D5 ?_defragmentBatch@InstanceBatch@Ogre@@QAEX_NAAV?$vector@PAVInstancedEntity@Ogre@@V?$STLAllocator@PAVInstancedEntity@Ogre@@V?$CategorisedAllocPolicy@$0A@@2@@2@@std@@AAV?$vector@VVector4@Ogre@@V?$STLAllocator@VVector4@Ogre@@V?$CategorisedAllocPolicy@$0A@@2@@2@@4@@Z
       2692  A83 0000DD1E ?_defragmentBatchDiscard@InstanceBatch@Ogre@@QAEXXZ
       2693  A84 00020883 ?_deinitialise@Entity@Ogre@@QAEXXZ
       2694  A85 00032E57 ?_deriveShadowFarClipDistance@Light@Ogre@@QBEMPBVCamera@2@@Z
       2695  A86 000255C2 ?_deriveShadowNearClipDistance@Light@Ogre@@QBEMPBVCamera@2@@Z
       2696  A87 00008247 ?_destroyAffector@ParticleSystemManager@Ogre@@QAEXPAVParticleAffector@2@@Z
       2697  A88 00014056 ?_destroyBuffers@BillboardSet@Ogre@@AAEXXZ
       2698  A89 000247D0 ?_destroyEmitter@ParticleSystemManager@Ogre@@QAEXPAVParticleEmitter@2@@Z
       2699  A8A 000305EE ?_destroyNodeTracks@Animation@Ogre@@QAEXABV?$set@GU?$less@G@std@@V?$STLAllocator@GV?$CategorisedAllocPolicy@$0A@@Ogre@@@Ogre@@@std@@@Z
       2700  A8B 000197F4 ?_destroyPool@ConvexBody@Ogre@@SAXXZ
       2701  A8C 00022B79 ?_destroyRenderer@ParticleSystemManager@Ogre@@QAEXPAVParticleSystemRenderer@2@@Z
       2702  A8D 0003753D ?_destroyVisualData@ParticleSystemRenderer@Ogre@@UAEXPAVParticleVisualData@2@@Z
       2703  A8E 0001D598 ?_detachDepthBuffer@RenderTarget@Ogre@@UAEXXZ
       2704  A8F 000257AC ?_detectImplementation@OptimisedUtil@Ogre@@KAPAV12@XZ
       2705  A90 00027DBD ?_determineAnimationTypes@Mesh@Ogre@@QBEXXZ
       2706  A91 00011F3B ?_dirtyHash@Pass@Ogre@@QAEXXZ
       2707  A92 0002DCFE ?_dirtyState@Resource@Ogre@@UAEXXZ
       2708  A93 0003F67A ?_disableTextureUnit@RenderSystem@Ogre@@UAEXI@Z
       2709  A94 000380F0 ?_disableTextureUnitsFrom@RenderSystem@Ogre@@UAEXI@Z
       2710  A95 00030CEC ?_dumpContents@Skeleton@Ogre@@IAEXABV?$basic_string@DU?$char_traits@D@std@@V?$allocator@D@2@@std@@@Z
       2711  A96 00014E34 ?_endUpdate@RenderTarget@Ogre@@UAEXXZ
       2712  A97 00009D95 ?_executeTriggerEmitters@ParticleSystem@Ogre@@IAEXPAVParticleEmitter@2@IM@Z
       2713  A98 0003F53F ?_expire@ParticleSystem@Ogre@@IAEXM@Z
       2714  A99 0001B400 ?_findNamedConstantDefinition@GpuProgramParameters@Ogre@@QBEPBUGpuConstantDefinition@2@ABV?$basic_string@DU?$char_traits@D@std@@V?$allocator@D@2@@std@@_N@Z
       2715  A9A 0000DC3D ?_findRawAutoConstantEntryBool@GpuProgramParameters@Ogre@@QBEPBVAutoConstantEntry@12@I@Z
       2716  A9B 00004D68 ?_findRawAutoConstantEntryDouble@GpuProgramParameters@Ogre@@QBEPBVAutoConstantEntry@12@I@Z
       2717  A9C 0000315C ?_findRawAutoConstantEntryFloat@GpuProgramParameters@Ogre@@QBEPBVAutoConstantEntry@12@I@Z
       2718  A9D 00019C4F ?_findRawAutoConstantEntryInt@GpuProgramParameters@Ogre@@QBEPBVAutoConstantEntry@12@I@Z
       2719  A9E 000361FB ?_findRawAutoConstantEntryUnsignedInt@GpuProgramParameters@Ogre@@QBEPBVAutoConstantEntry@12@I@Z
       2720  A9F 00016838 ?_findScriptLoader@ResourceGroupManager@Ogre@@QAEPAVScriptLoader@2@ABV?$basic_string@DU?$char_traits@D@std@@V?$allocator@D@2@@std@@@Z
       2721  AA0 00014529 ?_findVisibleObjects@SceneManager@Ogre@@UAEXPAVCamera@2@PAUVisibleObjectsBoundsInfo@2@_N@Z
       2722  AA1 00002A95 ?_findVisibleObjects@SceneNode@Ogre@@UAEXPAVCamera@2@PAVRenderQueue@2@PAUVisibleObjectsBoundsInfo@2@_N33@Z
       2723  AA2 0000843B ?_fireEvent@ScriptCompiler@Ogre@@QAE_NPAVScriptCompilerEvent@2@PAX@Z
       2724  AA3 00016B6C ?_fireFrameEnded@Root@Ogre@@QAE_NAAUFrameEvent@2@@Z
       2725  AA4 0002A1E9 ?_fireFrameEnded@Root@Ogre@@QAE_NXZ
       2726  AA5 00040237 ?_fireFrameRenderingQueued@Root@Ogre@@QAE_NAAUFrameEvent@2@@Z
       2727  AA6 00034FF9 ?_fireFrameRenderingQueued@Root@Ogre@@QAE_NXZ
       2728  AA7 00014119 ?_fireFrameStarted@Root@Ogre@@QAE_NAAUFrameEvent@2@@Z
       2729  AA8 00027B65 ?_fireFrameStarted@Root@Ogre@@QAE_NXZ
       2730  AA9 0001A2DF ?_fireLoadingComplete@Resource@Ogre@@UAEX_N@Z
       2731  AAA 0002F577 ?_fireNotifyMaterialRender@CompositorInstance@Ogre@@QAEXIAAV?$SharedPtr@VMaterial@Ogre@@@2@@Z
       2732  AAB 0002279B ?_fireNotifyMaterialSetup@CompositorInstance@Ogre@@QAEXIAAV?$SharedPtr@VMaterial@Ogre@@@2@@Z
       2733  AAC 0002E442 ?_fireNotifyResourcesCreated@CompositorInstance@Ogre@@QAEX_N@Z
       2734  AAD 0001D458 ?_fireNotifyResourcesReleased@CompositorInstance@Ogre@@QAEX_N@Z
       2735  AAE 0001D9D0 ?_firePreparingComplete@Resource@Ogre@@UAEX_N@Z
       2736  AAF 000052EF ?_fireUnloadingComplete@Resource@Ogre@@UAEXXZ
       2737  AB0 0000CB49 ?_forceReleaseBufferCopies@HardwareBufferManager@Ogre@@UAEXABVHardwareVertexBufferSharedPtr@2@@Z
       2738  AB1 0001B4E1 ?_forceReleaseBufferCopies@HardwareBufferManager@Ogre@@UAEXPAVHardwareVertexBuffer@2@@Z
       2739  AB2 0000F781 ?_forceReleaseBufferCopies@HardwareBufferManagerBase@Ogre@@UAEXABVHardwareVertexBufferSharedPtr@2@@Z
       2740  AB3 00040197 ?_forceReleaseBufferCopies@HardwareBufferManagerBase@Ogre@@UAEXPAVHardwareVertexBuffer@2@@Z
       2741  AB4 00009494 ?_freeUnusedBufferCopies@HardwareBufferManager@Ogre@@UAEXXZ
       2742  AB5 0003B665 ?_freeUnusedBufferCopies@HardwareBufferManagerBase@Ogre@@UAEXXZ
       2743  AB6 0002119D ?_generateAST@ScriptCompiler@Ogre@@QAE?AV?$SharedPtr@V?$list@V?$SharedPtr@VAbstractNode@Ogre@@@Ogre@@V?$STLAllocator@V?$SharedPtr@VAbstractNode@Ogre@@@Ogre@@V?$CategorisedAllocPolicy@$0A@@2@@2@@std@@@2@ABV?$basic_string@DU?$char_traits@D@std@@V?$allocator@D@2@@std@@0_N11@Z
       2744  AB7 00020A77 ?_getActiveCompositorChain@SceneManager@Ogre@@UBEPAVCompositorChain@2@XZ
       2745  AB8 00013F52 ?_getActiveSchemeIndex@MaterialManager@Ogre@@UBEGXZ
       2746  AB9 0000C356 ?_getAnimController@TextureUnitState@Ogre@@QBEPAV?$Controller@M@2@XZ
       2747  ABA 0000CB9E ?_getAnimableValueNames@AnimableObject@Ogre@@IAEAAV?$vector@V?$basic_string@DU?$char_traits@D@std@@V?$allocator@D@2@@std@@V?$STLAllocator@V?$basic_string@DU?$char_traits@D@std@@V?$allocator@D@2@@std@@V?$CategorisedAllocPolicy@$0A@@Ogre@@@Ogre@@@std@@XZ
       2748  ABB 0002439D ?_getAnimationImpl@Mesh@Ogre@@UBEPAVAnimation@2@ABV?$basic_string@DU?$char_traits@D@std@@V?$allocator@D@2@@std@@@Z
       2749  ABC 0000E4DF ?_getAnimationImpl@Skeleton@Ogre@@UBEPAVAnimation@2@ABV?$basic_string@DU?$char_traits@D@std@@V?$allocator@D@2@@std@@PAPBULinkedSkeletonAnimationSource@2@@Z
       2750  ABD 000174FE ?_getAnimationImpl@SkeletonInstance@Ogre@@UBEPAVAnimation@2@ABV?$basic_string@DU?$char_traits@D@std@@V?$allocator@D@2@@std@@PAPBULinkedSkeletonAnimationSource@2@@Z
       2751  ABE 000308AA ?_getAnimationTypesDirty@Mesh@Ogre@@QBE_NXZ
       2752  ABF 000153BB ?_getBatchCount@RenderSystem@Ogre@@UBEIXZ
       2753  AC0 0000E3B3 ?_getBindingDelegate@GpuProgram@Ogre@@UAEPAV12@XZ
       2754  AC1 0002F49B ?_getBindingDelegate@HighLevelGpuProgram@Ogre@@UAEPAVGpuProgram@2@XZ
       2755  AC2 0000A547 ?_getBindingDelegate@UnifiedHighLevelGpuProgram@Ogre@@UAEPAVGpuProgram@2@XZ
       2756  AC3 0000AC59 ?_getBindingPoseInverseOrientation@Bone@Ogre@@QBEABVQuaternion@2@XZ
       2757  AC4 0001C83C ?_getBindingPoseInversePosition@Bone@Ogre@@QBEABVVector3@2@XZ
       2758  AC5 00028286 ?_getBindingPoseInverseScale@Bone@Ogre@@QBEABVVector3@2@XZ
       2759  AC6 0003F1ED ?_getBlendFlags@Pass@Ogre@@IAEXW4SceneBlendType@2@AAW4SceneBlendFactor@2@1@Z
       2760  AC7 00015627 ?_getBoneMatrices@Entity@Ogre@@QBEPBVMatrix4@2@XZ
       2761  AC8 0003DE79 ?_getBoneMatrices@Skeleton@Ogre@@UAEXPAVMatrix4@2@@Z
       2762  AC9 0000A128 ?_getBufferStr@UTFString@Ogre@@ABEXXZ
       2763  ACA 00022A25 ?_getBufferUTF32Str@UTFString@Ogre@@ABEXXZ
       2764  ACB 0003B53E ?_getBufferWStr@UTFString@Ogre@@ABEXXZ
       2765  ACC 00025590 ?_getBuffersMarkedForAnimation@Entity@Ogre@@QBE_NXZ
       2766  ACD 0003E02C ?_getBuffersMarkedForAnimation@SubEntity@Ogre@@QBE_NXZ
       2767  ACE 0002B8AF ?_getCharacter@_base_iterator@UTFString@Ogre@@IBEIXZ
       2768  ACF 0003CCDB ?_getCombinedVisibilityMask@SceneManager@Ogre@@QBEIXZ
       2769  AD0 0003620A ?_getCreator@MovableObject@Ogre@@UBEPAVMovableObjectFactory@2@XZ
       2770  AD1 00023C8B ?_getCullingMode@RenderSystem@Ogre@@UBE?AW4CullingMode@2@XZ
       2771  AD2 0003D7D5 ?_getCurrentRenderStage@SceneManager@Ogre@@QAE?AW4IlluminationRenderStage@12@XZ
       2772  AD3 0000DB5C ?_getCurrentSceneManager@Root@Ogre@@QBEPAVSceneManager@2@XZ
       2773  AD4 0003FB70 ?_getCustomParam@InstanceBatch@Ogre@@QAEABVVector4@2@PAVInstancedEntity@2@E@Z
       2774  AD5 00019079 ?_getDefaultViewportMaterialScheme@RenderSystem@Ogre@@UBEABV?$basic_string@DU?$char_traits@D@std@@V?$allocator@D@2@@std@@XZ
       2775  AD6 0003DE0B ?_getDelegate@UnifiedHighLevelGpuProgram@Ogre@@QBEABV?$SharedPtr@VHighLevelGpuProgram@Ogre@@@2@XZ
       2776  AD7 0003D410 ?_getDerivedOrientation@Node@Ogre@@UBEABVQuaternion@2@XZ
       2777  AD8 0003B359 ?_getDerivedPlane@MovablePlane@Ogre@@QBEABVPlane@2@XZ
       2778  AD9 00018606 ?_getDerivedPosition@InstancedEntity@Ogre@@QBEABVVector3@2@XZ
       2779  ADA 00002C20 ?_getDerivedPosition@Node@Ogre@@UBEABVVector3@2@XZ
       2780  ADB 00035995 ?_getDerivedScale@Node@Ogre@@UBEABVVector3@2@XZ
       2781  ADC 0001F302 ?_getDoubleConstantLogicalIndexUse@GpuProgramParameters@Ogre@@IAEPAUGpuLogicalIndexUse@2@IIG@Z
       2782  ADD 00015D1B ?_getDoubleConstantPhysicalIndex@GpuProgramParameters@Ogre@@QAEIIIG@Z
       2783  ADE 00006CC6 ?_getFaceCount@RenderSystem@Ogre@@UBEIXZ
       2784  ADF 0002B2A1 ?_getFactory@ParticleSystemManager@Ogre@@QAEPAVParticleSystemFactory@2@XZ
       2785  AE0 0001167B ?_getFloatConstantLogicalIndexUse@GpuProgramParameters@Ogre@@IAEPAUGpuLogicalIndexUse@2@IIG@Z
       2786  AE1 0000F975 ?_getFloatConstantPhysicalIndex@GpuProgramParameters@Ogre@@QAEIIIG@Z
       2787  AE2 000027A2 ?_getFrustumClipVolumes@Light@Ogre@@UBEABV?$vector@VPlaneBoundedVolume@Ogre@@V?$STLAllocator@VPlaneBoundedVolume@Ogre@@V?$CategorisedAllocPolicy@$0A@@2@@2@@std@@QBVCamera@2@@Z
       2788  AE3 00025C61 ?_getFullLocalTransform@TagPoint@Ogre@@QBEABVMatrix4@2@XZ
       2789  AE4 00033460 ?_getFullTransform@Node@Ogre@@UBEABVMatrix4@2@XZ
       2790  AE5 0002A39C ?_getHardwareVertexAnimVertexData@Entity@Ogre@@QBEPAVVertexData@2@XZ
       2791  AE6 00035274 ?_getHardwareVertexAnimVertexData@SubEntity@Ogre@@QAEPAVVertexData@2@XZ
       2792  AE7 00039D15 ?_getHardwareVertexBuffer@Pose@Ogre@@QBEABVHardwareVertexBufferSharedPtr@2@PBVVertexData@2@@Z
       2793  AE8 0002BE8B ?_getImpl@RenderTarget@Ogre@@UAEPAVImpl@12@XZ
       2794  AE9 00015663 ?_getIndexInFrame@Light@Ogre@@QBEIXZ
       2795  AEA 00022A89 ?_getIndexToBoneMap@InstanceBatch@Ogre@@QBEPBV?$vector@GV?$STLAllocator@GV?$CategorisedAllocPolicy@$0A@@Ogre@@@Ogre@@@std@@XZ
       2796  AEB 00026265 ?_getIntConstantLogicalIndexUse@GpuProgramParameters@Ogre@@IAEPAUGpuLogicalIndexUse@2@IIG@Z
       2797  AEC 0000AA10 ?_getIntConstantPhysicalIndex@GpuProgramParameters@Ogre@@QAEIIIG@Z
       2798  AED 00024398 ?_getIterator@ParticleSystem@Ogre@@QAE?AVParticleIterator@2@XZ
       2799  AEE 0003EF5E ?_getLightList@MovableObject@Ogre@@UAEPAV?$HashedVector@PAVLight@Ogre@@@2@XZ
       2800  AEF 00016E50 ?_getLightsAffectingFrustum@SceneManager@Ogre@@UBEABV?$HashedVector@PAVLight@Ogre@@@2@XZ
       2801  AF0 00007063 ?_getLightsDirtyCounter@SceneManager@Ogre@@QBEKXZ
       2802  AF1 00016F27 ?_getLodBiasInverse@Camera@Ogre@@QBEMXZ
       2803  AF2 0003432E ?_getManager@MovableObject@Ogre@@UBEPAVSceneManager@2@XZ
       2804  AF3 0003528D ?_getMeshLodFactorTransformed@Entity@Ogre@@QBEMXZ
       2805  AF4 0003C0DD ?_getMeshRef@InstanceBatch@Ogre@@QAEAAV?$SharedPtr@VMesh@Ogre@@@2@XZ
       2806  AF5 00026080 ?_getMeshReference@InstanceBatch@Ogre@@QBEABV?$SharedPtr@VMesh@Ogre@@@2@XZ
       2807  AF6 00017814 ?_getNearClipVolume@Light@Ogre@@UBEABVPlaneBoundedVolume@2@QBVCamera@2@@Z
       2808  AF7 00028240 ?_getNodeTrackList@Animation@Ogre@@QBEABV?$map@GPAVNodeAnimationTrack@Ogre@@U?$less@G@std@@V?$STLAllocator@U?$pair@$$CBGPAVNodeAnimationTrack@Ogre@@@std@@V?$CategorisedAllocPolicy@$0A@@Ogre@@@2@@std@@XZ
       2809  AF8 0001C9EA ?_getNumBoneMatrices@Entity@Ogre@@QBEGXZ
       2810  AF9 0003E10D ?_getNumRenderedBatches@Camera@Ogre@@QBEIXZ
       2811  AFA 00023D6C ?_getNumRenderedBatches@Viewport@Ogre@@QBEIXZ
       2812  AFB 0002FA36 ?_getNumRenderedFaces@Camera@Ogre@@QBEIXZ
       2813  AFC 000392FC ?_getNumRenderedFaces@Viewport@Ogre@@QBEIXZ
       2814  AFD 00037FB0 ?_getNumericTrackList@Animation@Ogre@@QBEABV?$map@GPAVNumericAnimationTrack@Ogre@@U?$less@G@std@@V?$STLAllocator@U?$pair@$$CBGPAVNumericAnimationTrack@Ogre@@@std@@V?$CategorisedAllocPolicy@$0A@@Ogre@@@2@@std@@XZ
       2815  AFE 0000E3A9 ?_getOffsetTransform@Bone@Ogre@@QBEXAAVMatrix4@2@@Z
       2816  AFF 00001D66 ?_getOriginalSceneCompositor@CompositorChain@Ogre@@QAEPAVCompositorInstance@2@XZ
       2817  B00 00020D79 ?_getOsHandle@ThreadHandle@Ogre@@QBEPAXXZ
       2818  B01 000137E1 ?_getOwner@InstancedEntity@Ogre@@QBEPAVInstanceBatch@2@XZ
       2819  B02 00010415 ?_getParentNodeFullTransform@InstancedEntity@Ogre@@UBEABVMatrix4@2@XZ
       2820  B03 0003DB86 ?_getParentNodeFullTransform@MovableObject@Ogre@@UBEABVMatrix4@2@XZ
       2821  B04 00010D4D ?_getQueueGroupIterator@RenderQueue@Ogre@@QAE?AV?$MapIterator@V?$map@EPAVRenderQueueGroup@Ogre@@U?$less@E@std@@V?$STLAllocator@U?$pair@$$CBEPAVRenderQueueGroup@Ogre@@@std@@V?$CategorisedAllocPolicy@$0A@@Ogre@@@2@@std@@@2@XZ
       2822  B05 00023623 ?_getQueueGroupIterator@RenderQueue@Ogre@@QBE?AV?$ConstMapIterator@V?$map@EPAVRenderQueueGroup@Ogre@@U?$less@E@std@@V?$STLAllocator@U?$pair@$$CBEPAVRenderQueueGroup@Ogre@@@std@@V?$CategorisedAllocPolicy@$0A@@Ogre@@@2@@std@@@2@XZ
       2823  B06 000197C2 ?_getRenderOperation@SubMesh@Ogre@@QAEXAAVRenderOperation@2@G@Z
       2824  B07 0000A871 ?_getRenderQueueInvocationSequence@Viewport@Ogre@@QAEPAVRenderQueueInvocationSequence@2@XZ
       2825  B08 00026E95 ?_getRenderSystemData@GpuProgramParameters@Ogre@@QBEABVAny@2@XZ
       2826  B09 00034EE6 ?_getRenderSystemData@GpuSharedParameters@Ogre@@QBEABVAny@2@XZ
       2827  B0A 0002F3A1 ?_getRenderSystemData@GpuSharedParametersUsage@Ogre@@QBEABVAny@2@XZ
       2828  B0B 00024DE8 ?_getResourceManager@ResourceGroupManager@Ogre@@QAEPAVResourceManager@2@ABV?$basic_string@DU?$char_traits@D@std@@V?$allocator@D@2@@std@@@Z
       2829  B0C 0003A152 ?_getSchemeIndex@MaterialManager@Ogre@@UAEGABV?$basic_string@DU?$char_traits@D@std@@V?$allocator@D@2@@std@@@Z
       2830  B0D 0000E43A ?_getSchemeIndex@Technique@Ogre@@QBEGXZ
       2831  B0E 000140BF ?_getSchemeName@MaterialManager@Ogre@@UAEABV?$basic_string@DU?$char_traits@D@std@@V?$allocator@D@2@@std@@G@Z
       2832  B0F 0001ED03 ?_getSkelAnimTempBufferInfo@Entity@Ogre@@QAEPAVTempBlendedBufferInfo@2@XZ
       2833  B10 00038721 ?_getSkelAnimTempBufferInfo@SubEntity@Ogre@@QAEPAVTempBlendedBufferInfo@2@XZ
       2834  B11 000084DB ?_getSkelAnimVertexData@Entity@Ogre@@QBEPAVVertexData@2@XZ
       2835  B12 00031048 ?_getSkelAnimVertexData@SubEntity@Ogre@@QAEPAVVertexData@2@XZ
       2836  B13 0002EAFF ?_getSoftwareVertexAnimVertexData@Entity@Ogre@@QBEPAVVertexData@2@XZ
       2837  B14 000087BF ?_getSoftwareVertexAnimVertexData@SubEntity@Ogre@@QAEPAVVertexData@2@XZ
       2838  B15 000113AB ?_getSortMode@BillboardParticleRenderer@Ogre@@UBE?AW4SortMode@2@XZ
       2839  B16 000175D5 ?_getSortMode@BillboardSet@Ogre@@UBE?AW4SortMode@2@XZ
       2840  B17 00025CA2 ?_getSubMeshIndex@Mesh@Ogre@@QBEGABV?$basic_string@DU?$char_traits@D@std@@V?$allocator@D@2@@std@@@Z
       2841  B18 00003468 ?_getTexturePtr@TextureUnitState@Ogre@@QBEABV?$SharedPtr@VTexture@Ogre@@@2@I@Z
       2842  B19 00022471 ?_getTexturePtr@TextureUnitState@Ogre@@QBEABV?$SharedPtr@VTexture@Ogre@@@2@XZ
       2843  B1A 000078BF ?_getTextureUnitWithContentTypeIndex@Pass@Ogre@@QBEGW4ContentType@TextureUnitState@2@G@Z
       2844  B1B 000041A1 ?_getTexturedRectangle2D@CompositorManager@Ogre@@QAEPAVRenderable@2@XZ
       2845  B1C 0002B341 ?_getTimeIndex@Animation@Ogre@@QBE?AVTimeIndex@2@M@Z
       2846  B1D 00024E0B ?_getUnsignedIntConstantLogicalIndexUse@GpuProgramParameters@Ogre@@IAEPAUGpuLogicalIndexUse@2@IIG@Z
       2847  B1E 00017F03 ?_getUnsignedIntConstantPhysicalIndex@GpuProgramParameters@Ogre@@QAEIIIG@Z
       2848  B1F 00015C62 ?_getVertexAnimTempBufferInfo@Entity@Ogre@@QAEPAVTempBlendedBufferInfo@2@XZ
       2849  B20 00002126 ?_getVertexAnimTempBufferInfo@SubEntity@Ogre@@QAEPAVTempBlendedBufferInfo@2@XZ
       2850  B21 000268B9 ?_getVertexCount@RenderSystem@Ogre@@UBEIXZ
       2851  B22 00037EF2 ?_getVertexTrackList@Animation@Ogre@@QBEABV?$map@GPAVVertexAnimationTrack@Ogre@@U?$less@G@std@@V?$STLAllocator@U?$pair@$$CBGPAVVertexAnimationTrack@Ogre@@@std@@V?$CategorisedAllocPolicy@$0A@@Ogre@@@2@@std@@XZ
       2852  B23 000369A3 ?_getViewport@RenderSystem@Ogre@@UAEPAVViewport@2@XZ
       2853  B24 0003CEA7 ?_getWorldAABB@SceneNode@Ogre@@UBEABVAxisAlignedBox@2@XZ
       2854  B25 00003F76 ?_get_index@_base_iterator@UTFString@Ogre@@IBEIXZ
       2855  B26 0003C0F1 ?_handleLodEvents@SceneManager@Ogre@@QAEXXZ
       2856  B27 00024046 ?_init@UTFString@Ogre@@AAEXXZ
       2857  B28 0002D2CC ?_initAnimationState@Mesh@Ogre@@QAEXPAVAnimationStateSet@2@@Z
       2858  B29 000386DB ?_initAnimationState@Skeleton@Ogre@@UAEXPAVAnimationStateSet@2@@Z
       2859  B2A 0000B08C ?_initAnimationState@SkeletonInstance@Ogre@@UAEXPAVAnimationStateSet@2@@Z
       2860  B2B 000017BC ?_initGeometryBucket@GeometryBucket@InstancedGeometry@Ogre@@IAEXPAV123@@Z
       2861  B2C 0001518B ?_initGeometryBucket@GeometryBucket@InstancedGeometry@Ogre@@IAEXPBVVertexData@3@PBVIndexData@3@@Z
       2862  B2D 000225F7 ?_initParticle@ParticleAffector@Ogre@@UAEXPAVParticle@2@@Z
       2863  B2E 0001639C ?_initParticle@ParticleEmitter@Ogre@@UAEXPAVParticle@2@@Z
       2864  B2F 000261C0 ?_initRectangle2D@Rectangle2D@Ogre@@IAEX_NW4Usage@HardwareBuffer@2@@Z
       2865  B30 00028A97 ?_initRenderTargets@RenderSystem@Ogre@@UAEXXZ
       2866  B31 000079BE ?_initWireBoundingBox@WireBoundingBox@Ogre@@IAEXXZ
       2867  B32 0003DB77 ?_initialise@Entity@Ogre@@QAEX_N@Z
       2868  B33 00018732 ?_initialise@MeshManager@Ogre@@QAEXXZ
       2869  B34 0002CF5C ?_initialise@ParticleSystemManager@Ogre@@QAEXXZ
       2870  B35 00013F5C ?_initialise@RenderSystem@Ogre@@UAEPAVRenderWindow@2@_NABV?$basic_string@DU?$char_traits@D@std@@V?$allocator@D@2@@std@@@Z
       2871  B36 00023D35 ?_initialisePool@ConvexBody@Ogre@@SAXXZ
       2872  B37 00020716 ?_injectRenderWithPass@SceneManager@Ogre@@UAEXPAVPass@2@PAVRenderable@2@_N2PBV?$HashedVector@PAVLight@Ogre@@@2@@Z
       2873  B38 0002EEB0 ?_invalidateCameraCache@SubEntity@Ogre@@QAEXXZ
       2874  B39 00005984 ?_isAnimated@Entity@Ogre@@QBE_NXZ
       2875  B3A 000294E7 ?_isManualLodLevel@Mesh@Ogre@@QBE_NG@Z
       2876  B3B 000030DA ?_isSkeletonAnimated@Entity@Ogre@@QBE_NXZ
       2877  B3C 0002F5EF ?_isSupported@CompositionPass@Ogre@@QAE_NXZ
       2878  B3D 0000C09A ?_isSupported@CompositionTargetPass@Ogre@@QAE_NXZ
       2879  B3E 0001228D ?_isUpdated@Viewport@Ogre@@QBE_NXZ
       2880  B3F 00013BA6 ?_issueRenderOp@SceneManager@Ogre@@UAEXPAVRenderable@2@PBVPass@2@@Z
       2881  B40 0001C6A2 ?_jump_to@_base_iterator@UTFString@Ogre@@IAEXI@Z
       2882  B41 0003BFCA ?_keyFrameDataChanged@AnimationTrack@Ogre@@UBEXXZ
       2883  B42 0002758E ?_keyFrameDataChanged@NodeAnimationTrack@Ogre@@UBEXXZ
       2884  B43 00011CA7 ?_keyFrameListChanged@Animation@Ogre@@QAEXXZ
       2885  B44 006F3E55 ?_lead1@UTFString@Ogre@@0EB
       2886  B45 006F3E56 ?_lead1_mask@UTFString@Ogre@@0EB
       2887  B46 006F3E57 ?_lead2@UTFString@Ogre@@0EB
       2888  B47 006F3E58 ?_lead2_mask@UTFString@Ogre@@0EB
       2889  B48 006F3E59 ?_lead3@UTFString@Ogre@@0EB
       2890  B49 006F3E5A ?_lead3_mask@UTFString@Ogre@@0EB
       2891  B4A 006F3E5B ?_lead4@UTFString@Ogre@@0EB
       2892  B4B 006F3E5C ?_lead4_mask@UTFString@Ogre@@0EB
       2893  B4C 006F3E5D ?_lead5@UTFString@Ogre@@0EB
       2894  B4D 006F3E5E ?_lead5_mask@UTFString@Ogre@@0EB
       2895  B4E 0000AE07 ?_load@GpuProgramUsage@Ogre@@QAEXXZ
       2896  B4F 0001BF5E ?_load@Pass@Ogre@@QAEXXZ
       2897  B50 000316EC ?_load@Technique@Ogre@@QAEXXZ
       2898  B51 0000E985 ?_load@TextureUnitState@Ogre@@QAEXXZ
       2899  B52 0001F55A ?_loadImages@Texture@Ogre@@UAEXABV?$vector@PBVImage@Ogre@@V?$STLAllocator@PBVImage@Ogre@@V?$CategorisedAllocPolicy@$0A@@2@@2@@std@@@Z
       2900  B53 00025ADB ?_load_buffer_UTF32@UTFString@Ogre@@ABEXXZ
       2901  B54 0000B66D ?_load_buffer_UTF8@UTFString@Ogre@@ABEXXZ
       2902  B55 00008A58 ?_load_buffer_WStr@UTFString@Ogre@@ABEXXZ
       2903  B56 000304F4 ?_markBuffersUnusedForAnimation@SubEntity@Ogre@@QAEXXZ
       2904  B57 00014C7C ?_markBuffersUsedForAnimation@Entity@Ogre@@QAEXXZ
       2905  B58 0000B20D ?_markBuffersUsedForAnimation@SubEntity@Ogre@@QAEXXZ
       2906  B59 000190EC ?_markClean@GpuSharedParameters@Ogre@@QAEXXZ
       2907  B5A 0003ABB1 ?_markDirty@CompositorChain@Ogre@@QAEXXZ
       2908  B5B 00010262 ?_markDirty@GpuSharedParameters@Ogre@@QAEXXZ
       2909  B5C 000038B4 ?_markGpuParamsDirty@SceneManager@Ogre@@UAEXG@Z
       2910  B5D 00033F2D ?_markTransformSharingDirty@InstanceBatch@Ogre@@QAEXXZ
       2911  B5E 0001B649 ?_mergeSkeletonAnimations@Skeleton@Ogre@@UAEXPBV12@ABV?$vector@GV?$STLAllocator@GV?$CategorisedAllocPolicy@$0A@@Ogre@@@Ogre@@@std@@ABV?$vector@V?$basic_string@DU?$char_traits@D@std@@V?$allocator@D@2@@std@@V?$STLAllocator@V?$basic_string@DU?$char_traits@D@std@@V?$allocator@D@2@@std@@V?$CategorisedAllocPolicy@$0A@@Ogre@@@Ogre@@@4@@Z
       2912  B5F 00014ECF ?_moveNext@_base_iterator@UTFString@Ogre@@IAEXXZ
       2913  B60 00024AEB ?_movePrev@_base_iterator@UTFString@Ogre@@IAEXXZ
       2914  B61 0095C13C ?_msListeners@WindowEventUtilities@Ogre@@2V?$multimap@PAVRenderWindow@Ogre@@PAVWindowEventListener@2@U?$less@PAVRenderWindow@Ogre@@@std@@V?$STLAllocator@U?$pair@QAVRenderWindow@Ogre@@PAVWindowEventListener@2@@std@@V?$CategorisedAllocPolicy@$0A@@Ogre@@@2@@std@@A
       2915  B62 0095C148 ?_msWindows@WindowEventUtilities@Ogre@@2V?$vector@PAVRenderWindow@Ogre@@V?$STLAllocator@PAVRenderWindow@Ogre@@V?$CategorisedAllocPolicy@$0A@@2@@2@@std@@A
       2916  B63 0000E7BE ?_notifyAfterIlluminationPassesCreated@MaterialManager@Ogre@@UAEXPAVTechnique@2@@Z
       2917  B64 0002755C ?_notifyAllResourcesRemoved@ResourceGroupManager@Ogre@@QAEXPAVResourceManager@2@@Z
       2918  B65 0001F776 ?_notifyAnimationStateEnabled@AnimationStateSet@Ogre@@QAEXPAVAnimationState@2@_N@Z
       2919  B66 00030512 ?_notifyAttached@BillboardParticleRenderer@Ogre@@UAEXPAVNode@2@_N@Z
       2920  B67 000208F1 ?_notifyAttached@Entity@Ogre@@UAEXPAVNode@2@_N@Z
       2921  B68 0002DEC0 ?_notifyAttached@InstancedEntity@Ogre@@UAEXPAVNode@2@_N@Z
       2922  B69 0000615E ?_notifyAttached@Light@Ogre@@UAEXPAVNode@2@_N@Z
       2923  B6A 0001E876 ?_notifyAttached@MovableObject@Ogre@@UAEXPAVNode@2@_N@Z
       2924  B6B 00014EED ?_notifyAttached@ParticleSystem@Ogre@@UAEXPAVNode@2@_N@Z
       2925  B6C 000073D8 ?_notifyAutotrackingSceneNode@SceneManager@Ogre@@UAEXPAVSceneNode@2@_N@Z
       2926  B6D 00022796 ?_notifyBeforeIlluminationPassesCleared@MaterialManager@Ogre@@UAEXPAVTechnique@2@@Z
       2927  B6E 000394A5 ?_notifyBillboardResized@BillboardSet@Ogre@@UAEXXZ
       2928  B6F 0003BABB ?_notifyBillboardRotated@BillboardSet@Ogre@@UAEXXZ
       2929  B70 00024519 ?_notifyCameraRemoved@RenderSystem@Ogre@@UAEXPBVCamera@2@@Z
       2930  B71 000338DE ?_notifyCameraRemoved@RenderTarget@Ogre@@UAEXPBVCamera@2@@Z
       2931  B72 00007153 ?_notifyContainer@Animation@Ogre@@QAEXPAVAnimationContainer@2@@Z
       2932  B73 0003C1E6 ?_notifyConterBufferDestroyed@HardwareBufferManager@Ogre@@QAEXPAVHardwareCounterBuffer@2@@Z
       2933  B74 0002F0B8 ?_notifyCounterBufferDestroyed@HardwareBufferManagerBase@Ogre@@QAEXPAVHardwareCounterBuffer@2@@Z
       2934  B75 00012B3E ?_notifyCreator@MovableObject@Ogre@@UAEXPAVMovableObjectFactory@2@@Z
       2935  B76 0000637F ?_notifyCurrentCamera@BatchInstance@InstancedGeometry@Ogre@@UAEXPAVCamera@3@@Z
       2936  B77 0002CC1E ?_notifyCurrentCamera@BillboardParticleRenderer@Ogre@@UAEXPAVCamera@2@@Z
       2937  B78 0003E94B ?_notifyCurrentCamera@BillboardSet@Ogre@@UAEXPAVCamera@2@@Z
       2938  B79 0001EA8D ?_notifyCurrentCamera@Entity@Ogre@@UAEXPAVCamera@2@@Z
       2939  B7A 0003D2DF ?_notifyCurrentCamera@Frustum@Ogre@@UAEXPAVCamera@2@@Z
       2940  B7B 00037C59 ?_notifyCurrentCamera@InstanceBatch@Ogre@@UAEXPAVCamera@2@@Z
       2941  B7C 000310C0 ?_notifyCurrentCamera@MovableObject@Ogre@@UAEXPAVCamera@2@@Z
       2942  B7D 0003021A ?_notifyCurrentCamera@MovablePlane@Ogre@@UAEXPAVCamera@2@@Z
       2943  B7E 00014970 ?_notifyCurrentCamera@ParticleSystem@Ogre@@UAEXPAVCamera@2@@Z
       2944  B7F 00011A63 ?_notifyCurrentCamera@Region@StaticGeometry@Ogre@@UAEXPAVCamera@3@@Z
       2945  B80 0002C688 ?_notifyCurrentCamera@SimpleRenderable@Ogre@@UAEXPAVCamera@2@@Z
       2946  B81 0000F853 ?_notifyDefaultDimensions@BillboardParticleRenderer@Ogre@@UAEXMM@Z
       2947  B82 0002D2E5 ?_notifyDirty@AnimationStateSet@Ogre@@QAEXXZ
       2948  B83 00027F48 ?_notifyEntityMaterialLodChanged@SceneManager@Ogre@@QAEXAAUEntityMaterialLodChangedEvent@2@@Z
       2949  B84 0003061B ?_notifyEntityMeshLodChanged@SceneManager@Ogre@@QAEXAAUEntityMeshLodChangedEvent@2@@Z
       2950  B85 000144AC ?_notifyIndex@Pass@Ogre@@QAEXG@Z
       2951  B86 000070D1 ?_notifyIndexBufferDestroyed@HardwareBufferManager@Ogre@@QAEXPAVHardwareIndexBuffer@2@@Z
       2952  B87 00003661 ?_notifyIndexBufferDestroyed@HardwareBufferManagerBase@Ogre@@QAEXPAVHardwareIndexBuffer@2@@Z
       2953  B88 0000FB46 ?_notifyIndexInFrame@Light@Ogre@@QAEXI@Z
       2954  B89 00003125 ?_notifyLightsDirty@SceneManager@Ogre@@UAEXXZ
       2955  B8A 0002C525 ?_notifyManager@MovableObject@Ogre@@UAEXPAVSceneManager@2@@Z
       2956  B8B 000185C5 ?_notifyManualBoneStateChange@Skeleton@Ogre@@UAEXPAVBone@2@@Z
       2957  B8C 0002D146 ?_notifyManualBonesDirty@Skeleton@Ogre@@UAEXXZ
       2958  B8D 0003211E ?_notifyMovableObjectLodChanged@SceneManager@Ogre@@QAEXAAUMovableObjectLodChangedEvent@2@@Z
       2959  B8E 00037E34 ?_notifyMoved@InstancedEntity@Ogre@@UAEXXZ
       2960  B8F 000068CF ?_notifyMoved@Light@Ogre@@UAEXXZ
       2961  B90 00023CEA ?_notifyMoved@MovableObject@Ogre@@UAEXXZ
       2962  B91 00025FEF ?_notifyNeedsRecompile@Material@Ogre@@QAEXXZ
       2963  B92 000129D1 ?_notifyNeedsRecompile@Pass@Ogre@@QAEXXZ
       2964  B93 00017CAB ?_notifyNeedsRecompile@Technique@Ogre@@QAEXXZ
       2965  B94 000125C6 ?_notifyNeedsRecompile@TextureUnitState@Ogre@@QAEXXZ
       2966  B95 00018BB0 ?_notifyOrigin@ParticleSystem@Ogre@@QAEXABV?$basic_string@DU?$char_traits@D@std@@V?$allocator@D@2@@std@@@Z
       2967  B96 00033B9A ?_notifyOrigin@Resource@Ogre@@UAEXABV?$basic_string@DU?$char_traits@D@std@@V?$allocator@D@2@@std@@@Z
       2968  B97 00016E05 ?_notifyOwner@Billboard@Ogre@@QAEXPAVBillboardSet@2@@Z
       2969  B98 00013075 ?_notifyOwner@Particle@Ogre@@QAEXPAVParticleSystem@2@@Z
       2970  B99 0002FD2E ?_notifyParent@TextureUnitState@Ogre@@QAEXPAVPass@2@@Z
       2971  B9A 0003F7A6 ?_notifyParticleCleared@ParticleSystemRenderer@Ogre@@UAEXAAV?$list@PAVParticle@Ogre@@V?$STLAllocator@PAVParticle@Ogre@@V?$CategorisedAllocPolicy@$0A@@2@@2@@std@@@Z
       2972  B9B 00008765 ?_notifyParticleEmitted@ParticleSystemRenderer@Ogre@@UAEXPAVParticle@2@@Z
       2973  B9C 00035A58 ?_notifyParticleExpired@ParticleSystemRenderer@Ogre@@UAEXPAVParticle@2@@Z
       2974  B9D 0001EF92 ?_notifyParticleMoved@ParticleSystemRenderer@Ogre@@UAEXAAV?$list@PAVParticle@Ogre@@V?$STLAllocator@PAVParticle@Ogre@@V?$CategorisedAllocPolicy@$0A@@2@@2@@std@@@Z
       2975  B9E 0003199E ?_notifyParticleQuota@BillboardParticleRenderer@Ogre@@UAEXI@Z
       2976  B9F 0000F673 ?_notifyParticleResized@BillboardParticleRenderer@Ogre@@UAEXXZ
       2977  BA0 00010DD4 ?_notifyParticleResized@ParticleSystem@Ogre@@UAEXXZ
       2978  BA1 00036E03 ?_notifyParticleResized@ParticleSystemRenderer@Ogre@@UAEXXZ
       2979  BA2 0000FDB2 ?_notifyParticleRotated@BillboardParticleRenderer@Ogre@@UAEXXZ
       2980  BA3 000332D5 ?_notifyParticleRotated@ParticleSystem@Ogre@@UAEXXZ
       2981  BA4 0003E658 ?_notifyParticleRotated@ParticleSystemRenderer@Ogre@@UAEXXZ
       2982  BA5 00028E3E ?_notifyRenderTargetAttached@DepthBuffer@Ogre@@UAEXPAVRenderTarget@2@@Z
       2983  BA6 0003A02B ?_notifyRenderTargetDetached@DepthBuffer@Ogre@@UAEXPAVRenderTarget@2@@Z
       2984  BA7 0000125D ?_notifyRenderedBatches@Camera@Ogre@@QAEXI@Z
       2985  BA8 0000444E ?_notifyRenderedFaces@Camera@Ogre@@QAEXI@Z
       2986  BA9 0000BF41 ?_notifyReorganiseEmittedEmitterData@ParticleSystem@Ogre@@IAEXXZ
       2987  BAA 00015D11 ?_notifyResourceCreated@ResourceGroupManager@Ogre@@QAEXAAV?$SharedPtr@VResource@Ogre@@@2@@Z
       2988  BAB 0000E69C ?_notifyResourceGroupChanged@ResourceGroupManager@Ogre@@QAEXABV?$basic_string@DU?$char_traits@D@std@@V?$allocator@D@2@@std@@PAVResource@2@@Z
       2989  BAC 0003B223 ?_notifyResourceLoaded@ResourceManager@Ogre@@UAEXPAVResource@2@@Z
       2990  BAD 0000C815 ?_notifyResourceRemoved@ResourceGroupManager@Ogre@@QAEXAAV?$SharedPtr@VResource@Ogre@@@2@@Z
       2991  BAE 000305D5 ?_notifyResourceTouched@ResourceManager@Ogre@@UAEXPAVResource@2@@Z
       2992  BAF 0000DEEA ?_notifyResourceUnloaded@ResourceManager@Ogre@@UAEXPAVResource@2@@Z
       2993  BB0 0000BB90 ?_notifyRootNode@SceneNode@Ogre@@UAEXXZ
       2994  BB1 000378F3 ?_notifySkeleton@Mesh@Ogre@@QAEXAAV?$SharedPtr@VSkeleton@Ogre@@@2@@Z
       2995  BB2 0002ED0C ?_notifyTypeFlags@MovableObjectFactory@Ogre@@QAEXI@Z
       2996  BB3 0001D60B ?_notifyUniformBufferDestroyed@HardwareBufferManager@Ogre@@QAEXPAVHardwareUniformBuffer@2@@Z
       2997  BB4 00035CBA ?_notifyUniformBufferDestroyed@HardwareBufferManagerBase@Ogre@@QAEXPAVHardwareUniformBuffer@2@@Z
       2998  BB5 0003072E ?_notifyVertexBufferDestroyed@HardwareBufferManager@Ogre@@QAEXPAVHardwareVertexBuffer@2@@Z
       2999  BB6 00034F4A ?_notifyVertexBufferDestroyed@HardwareBufferManagerBase@Ogre@@QAEXPAVHardwareVertexBuffer@2@@Z
       3000  BB7 0003AB1B ?_notifyViewport@Camera@Ogre@@QAEXPAVViewport@2@@Z
       3001  BB8 000322BD ?_notifyViewport@CompositorChain@Ogre@@QAEXPAVViewport@2@@Z
       3002  BB9 0001FFD2 ?_notifyVisualData@Particle@Ogre@@QAEXPAVParticleVisualData@2@@Z
       3003  BBA 0000ABBE ?_notifyWorldGeometryStageEnded@ResourceGroupManager@Ogre@@QAEXXZ
       3004  BBB 0000F092 ?_notifyWorldGeometryStageStarted@ResourceGroupManager@Ogre@@QAEXABV?$basic_string@DU?$char_traits@D@std@@V?$allocator@D@2@@std@@@Z
       3005  BBC 0001C846 ?_pauseFrame@RenderSystem@Ogre@@UAEPAURenderSystemContext@12@XZ
       3006  BBD 00006BF4 ?_pauseRendering@SceneManager@Ogre@@UAEPAURenderContext@12@XZ
       3007  BBE 000239D9 ?_popCurrentSceneManager@Root@Ogre@@QAEXPAVSceneManager@2@@Z
       3008  BBF 00029FB4 ?_populateLightList@SceneManager@Ogre@@UAEXABVVector3@2@MAAV?$HashedVector@PAVLight@Ogre@@@2@I@Z
       3009  BC0 00038C5D ?_populateLightList@SceneManager@Ogre@@UAEXPBVSceneNode@2@MAAV?$HashedVector@PAVLight@Ogre@@@2@I@Z
       3010  BC1 00019646 ?_prepare@Pass@Ogre@@QAEXXZ
       3011  BC2 00002676 ?_prepare@Technique@Ogre@@QAEXXZ
       3012  BC3 000273D6 ?_prepare@TextureUnitState@Ogre@@QAEXXZ
       3013  BC4 0000FF47 ?_processNextRequest@DefaultWorkQueueBase@Ogre@@UAEXXZ
       3014  BC5 0002A60D ?_pushCurrentSceneManager@Root@Ogre@@QAEXPAVSceneManager@2@@Z
       3015  BC6 0003F1D9 ?_queueSkiesForRendering@SceneManager@Ogre@@UAEXPAVCamera@2@@Z
       3016  BC7 00035DE6 ?_queuedOperation@CompositorChain@Ogre@@QAEXPAVRenderSystemOperation@CompositorInstance@2@@Z
       3017  BC8 0002248A ?_rationaliseBoneAssignments@Mesh@Ogre@@QAEGIAAV?$multimap@IUVertexBoneAssignment_s@Ogre@@U?$less@I@std@@V?$STLAllocator@U?$pair@$$CBIUVertexBoneAssignment_s@Ogre@@@std@@V?$CategorisedAllocPolicy@$0A@@Ogre@@@2@@std@@@Z
       3018  BC9 0001581B ?_readRawConstants@GpuProgramParameters@Ogre@@QAEXIIPAH@Z
       3019  BCA 000157DF ?_readRawConstants@GpuProgramParameters@Ogre@@QAEXIIPAM@Z
       3020  BCB 0002D03D ?_recalculateHash@Pass@Ogre@@QAEXXZ
       3021  BCC 0001210C ?_reconstructAllCompositorResources@CompositorManager@Ogre@@QAEXXZ
       3022  BCD 00004F07 ?_refreshAnimationState@Mesh@Ogre@@QAEXPAVAnimationStateSet@2@@Z
       3023  BCE 0000F501 ?_refreshAnimationState@Skeleton@Ogre@@UAEXPAVAnimationStateSet@2@@Z
       3024  BCF 0000580D ?_refreshAnimationState@SkeletonInstance@Ogre@@UAEXPAVAnimationStateSet@2@@Z
       3025  BD0 0002DAA6 ?_registerResourceManager@ResourceGroupManager@Ogre@@QAEXABV?$basic_string@DU?$char_traits@D@std@@V?$allocator@D@2@@std@@PAVResourceManager@2@@Z
       3026  BD1 0002F5D1 ?_registerScriptLoader@ResourceGroupManager@Ogre@@QAEXPAVScriptLoader@2@@Z
       3027  BD2 00033721 ?_releaseBufferCopies@HardwareBufferManager@Ogre@@UAEX_N@Z
       3028  BD3 0000B672 ?_releaseBufferCopies@HardwareBufferManagerBase@Ogre@@UAEX_N@Z
       3029  BD4 0003CD35 ?_releaseManualHardwareResources@BillboardSet@Ogre@@UAEXXZ
       3030  BD5 0000FB5A ?_releaseManualHardwareResources@Entity@Ogre@@UAEXXZ
       3031  BD6 0002450F ?_releaseManualHardwareResources@ManualObject@Ogre@@UAEXXZ
       3032  BD7 00014583 ?_releaseManualHardwareResources@MovableObject@Ogre@@UAEXXZ
       3033  BD8 0000D5F8 ?_releaseManualHardwareResources@Region@StaticGeometry@Ogre@@UAEXXZ
       3034  BD9 0003C786 ?_releaseManualHardwareResources@SceneManager@Ogre@@UAEXXZ
       3035  BDA 0001A7F8 ?_relocateChain@CompositorManager@Ogre@@QAEXPAVViewport@2@0@Z
       3036  BDB 00028FAB ?_removeInstance@CompositorChain@Ogre@@QAEXPAVCompositorInstance@2@@Z
       3037  BDC 00008265 ?_removeRenderWindow@WindowEventUtilities@Ogre@@SAXPAVRenderWindow@2@@Z
       3038  BDD 00029ED8 ?_render@RenderSystem@Ogre@@UAEXABVRenderOperation@2@@Z
       3039  BDE 00010767 ?_renderQueueGroupObjects@SceneManager@Ogre@@UAEXPAVRenderQueueGroup@2@W4OrganisationMode@QueuedRenderableCollection@2@@Z
       3040  BDF 00012AB2 ?_renderScene@Camera@Ogre@@QAEXPAVViewport@2@_N@Z
       3041  BE0 00006F0A ?_renderScene@SceneManager@Ogre@@UAEXPAVCamera@2@PAVViewport@2@_N@Z
       3042  BE1 00032687 ?_renderUsingReadBackAsTexture@RenderSystem@Ogre@@UAEXIV?$basic_string@DU?$char_traits@D@std@@V?$allocator@D@2@@std@@I@Z
       3043  BE2 0002C804 ?_renderVisibleObjects@SceneManager@Ogre@@UAEXXZ
       3044  BE3 00015B86 ?_restoreBuffersForUnusedAnimation@SubEntity@Ogre@@QAEX_N@Z
       3045  BE4 000183EF ?_restoreManualHardwareResources@Entity@Ogre@@UAEXXZ
       3046  BE5 00010393 ?_restoreManualHardwareResources@MovableObject@Ogre@@UAEXXZ
       3047  BE6 000357C4 ?_restoreManualHardwareResources@Region@StaticGeometry@Ogre@@UAEXXZ
       3048  BE7 000244F1 ?_restoreManualHardwareResources@SceneManager@Ogre@@UAEXXZ
       3049  BE8 000230EC ?_resumeFrame@RenderSystem@Ogre@@UAEXPAURenderSystemContext@12@@Z
       3050  BE9 0000FCF9 ?_resumeRendering@SceneManager@Ogre@@UAEXPAURenderContext@12@@Z
       3051  BEA 0000F894 ?_seekFwd@_base_iterator@UTFString@Ogre@@IAEXI@Z
       3052  BEB 0001307F ?_seekRev@_base_iterator@UTFString@Ogre@@IAEXI@Z
       3053  BEC 0000E6BA ?_setActiveCompositorChain@SceneManager@Ogre@@UAEXPAVCompositorChain@2@@Z
       3054  BED 0002AA63 ?_setBindingType@RenderSystem@Ogre@@UAEXW4BindingType@TextureUnitState@2@@Z
       3055  BEE 00034ECD ?_setBlendMask@AnimationState@Ogre@@QAEXPBV?$vector@MV?$STLAllocator@MV?$CategorisedAllocPolicy@$0A@@Ogre@@@Ogre@@@std@@@Z
       3056  BEF 00018E8F ?_setBlendMaskData@AnimationState@Ogre@@QAEXPBM@Z
       3057  BF0 00015A73 ?_setBoneBoundingRadius@Mesh@Ogre@@QAEXM@Z
       3058  BF1 000094C1 ?_setBoundingSphereRadius@Mesh@Ogre@@QAEXM@Z
       3059  BF2 000281B4 ?_setBounds@Mesh@Ogre@@QAEXABVAxisAlignedBox@2@_N@Z
       3060  BF3 000251A8 ?_setCameraRelative@Light@Ogre@@QAEXPAVCamera@2@@Z
       3061  BF4 00030332 ?_setCharacter@_base_iterator@UTFString@Ogre@@IAEHI@Z
       3062  BF5 0001E10A ?_setComputeTexture@RenderSystem@Ogre@@UAEXIABV?$SharedPtr@VTexture@Ogre@@@2@@Z
       3063  BF6 0003F86E ?_setCustomParam@InstanceBatch@Ogre@@QAEXPAVInstancedEntity@2@EABVVector4@2@@Z
       3064  BF7 0000F8BC ?_setDerivedOrientation@Node@Ogre@@UAEXABVQuaternion@2@@Z
       3065  BF8 0001F668 ?_setDerivedPosition@Node@Ogre@@UAEXABVVector3@2@@Z
       3066  BF9 0003C853 ?_setDestinationRenderSystem@SceneManager@Ogre@@UAEXPAVRenderSystem@2@@Z
       3067  BFA 000374CF ?_setGeometryTexture@RenderSystem@Ogre@@UAEXIABV?$SharedPtr@VTexture@Ogre@@@2@@Z
       3068  BFB 000152A8 ?_setInstancesPerBatch@InstanceBatch@Ogre@@QAEXI@Z
       3069  BFC 0001067C ?_setLodInfo@Mesh@Ogre@@QAEXG@Z
       3070  BFD 0000803A ?_setLodUsage@Mesh@Ogre@@QAEXGABUMeshLodUsage@2@@Z
       3071  BFE 0003F2D8 ?_setLogicalIndexes@GpuProgramParameters@Ogre@@QAEXABV?$SharedPtr@UGpuLogicalBufferStruct@Ogre@@@2@0000@Z
       3072  BFF 0002B166 ?_setMaterial@BillboardParticleRenderer@Ogre@@UAEXAAV?$SharedPtr@VMaterial@Ogre@@@2@@Z
       3073  C00 000066C7 ?_setNamedConstants@GpuProgramParameters@Ogre@@QAEXABV?$SharedPtr@UGpuNamedConstants@Ogre@@@2@@Z
       3074  C01 00027A07 ?_setOsHandle@ThreadHandle@Ogre@@QAEXPAX@Z
       3075  C02 00021003 ?_setPass@SceneManager@Ogre@@UAEPBVPass@2@PBV32@_N1@Z
       3076  C03 00009831 ?_setPoolId@DepthBuffer@Ogre@@QAEXG@Z
       3077  C04 00030B89 ?_setPrimary@RenderWindow@Ogre@@IAEXXZ
       3078  C05 0001D935 ?_setRawAutoConstant@GpuProgramParameters@Ogre@@QAEXIW4AutoConstantType@12@IGI@Z
       3079  C06 00020423 ?_setRawAutoConstantReal@GpuProgramParameters@Ogre@@QAEXIW4AutoConstantType@12@MGI@Z
       3080  C07 0001498E ?_setRenderSystemData@GpuProgramParameters@Ogre@@QBEXABVAny@2@@Z
       3081  C08 0002AB85 ?_setRenderSystemData@GpuSharedParameters@Ogre@@QBEXABVAny@2@@Z
       3082  C09 00015F3C ?_setRenderSystemData@GpuSharedParametersUsage@Ogre@@QBEXABVAny@2@@Z
       3083  C0A 0002F978 ?_setSkyBox@SceneManager@Ogre@@UAEX_NABV?$basic_string@DU?$char_traits@D@std@@V?$allocator@D@2@@std@@MEABVQuaternion@2@1@Z
       3084  C0B 00037BEB ?_setSkyDome@SceneManager@Ogre@@UAEX_NABV?$basic_string@DU?$char_traits@D@std@@V?$allocator@D@2@@std@@MMMEABVQuaternion@2@HHH1@Z
       3085  C0C 00036E5D ?_setSkyPlane@SceneManager@Ogre@@UAEX_NABVPlane@2@ABV?$basic_string@DU?$char_traits@D@std@@V?$allocator@D@2@@std@@MMEMHH2@Z
       3086  C0D 000345D1 ?_setSubMeshLodFaceList@Mesh@Ogre@@QAEXGGPAVIndexData@2@@Z
       3087  C0E 0001D98A ?_setTesselationDomainTexture@RenderSystem@Ogre@@UAEXIABV?$SharedPtr@VTexture@Ogre@@@2@@Z
       3088  C0F 0000E4F8 ?_setTesselationHullTexture@RenderSystem@Ogre@@UAEXIABV?$SharedPtr@VTexture@Ogre@@@2@@Z
       3089  C10 0001C454 ?_setTexture@RenderSystem@Ogre@@UAEXI_NABV?$basic_string@DU?$char_traits@D@std@@V?$allocator@D@2@@std@@@Z
       3090  C11 000162D4 ?_setTextureProjectionRelativeTo@RenderSystem@Ogre@@UAEX_NABVVector3@2@@Z
       3091  C12 00038758 ?_setTexturePtr@TextureUnitState@Ogre@@QAEXABV?$SharedPtr@VTexture@Ogre@@@2@@Z
       3092  C13 00025B94 ?_setTexturePtr@TextureUnitState@Ogre@@QAEXABV?$SharedPtr@VTexture@Ogre@@@2@I@Z
       3093  C14 00015190 ?_setTextureUnitFiltering@RenderSystem@Ogre@@UAEXIW4FilterOptions@2@00@Z
       3094  C15 0001E52E ?_setTextureUnitSettings@RenderSystem@Ogre@@UAEXIAAVTextureUnitState@2@@Z
       3095  C16 0002B21A ?_setVertexTexture@RenderSystem@Ogre@@UAEXIABV?$SharedPtr@VTexture@Ogre@@@2@@Z
       3096  C17 0003585A ?_setWorldMatrices@RenderSystem@Ogre@@UAEXPBVMatrix4@2@G@Z
       3097  C18 00021C60 ?_sortBillboards@BillboardSet@Ogre@@UAEXPAVCamera@2@@Z
       3098  C19 00037803 ?_sortParticles@ParticleSystem@Ogre@@IAEXPAVCamera@2@@Z
       3099  C1A 0003210F ?_split@Pass@Ogre@@QAEPAV12@G@Z
       3100  C1B 00014C27 ?_supportsSkeletalAnimation@InstanceBatch@Ogre@@QBE_NXZ
       3101  C1C 00017684 ?_suppressRenderStateChanges@SceneManager@Ogre@@UAEX_N@Z
       3102  C1D 0003989C ?_suppressShadows@SceneManager@Ogre@@UAEX_N@Z
       3103  C1E 00032614 ?_swapAllRenderTargetBuffers@RenderSystem@Ogre@@UAEXXZ
       3104  C1F 00039E91 ?_syncAddedRemovedFrameListeners@Root@Ogre@@IAEXXZ
       3105  C20 000396AD ?_test_begin@_base_iterator@UTFString@Ogre@@IBE_NXZ
       3106  C21 00005001 ?_test_end@_base_iterator@UTFString@Ogre@@IBE_NXZ
       3107  C22 0000406B ?_threadMain@DefaultWorkQueue@Ogre@@UAEXXZ
       3108  C23 00029D34 ?_timeUpdate@RibbonTrail@Ogre@@UAEXM@Z
       3109  C24 00026D50 ?_triggerAffectors@ParticleSystem@Ogre@@IAEXM@Z
       3110  C25 00022C82 ?_triggerEmitters@ParticleSystem@Ogre@@IAEXM@Z
       3111  C26 0003499B ?_unload@GpuProgramUsage@Ogre@@QAEXXZ
       3112  C27 00017CB0 ?_unload@Pass@Ogre@@QAEXXZ
       3113  C28 0002DFCE ?_unload@Technique@Ogre@@QAEXXZ
       3114  C29 0001EA9C ?_unload@TextureUnitState@Ogre@@QAEXXZ
       3115  C2A 00031D1D ?_unprepare@Pass@Ogre@@QAEXXZ
       3116  C2B 0001092E ?_unprepare@Technique@Ogre@@QAEXXZ
       3117  C2C 0001C41D ?_unprepare@TextureUnitState@Ogre@@QAEXXZ
       3118  C2D 00025716 ?_unregisterResourceManager@ResourceGroupManager@Ogre@@QAEXABV?$basic_string@DU?$char_traits@D@std@@V?$allocator@D@2@@std@@@Z
       3119  C2E 000191BE ?_unregisterScriptLoader@ResourceGroupManager@Ogre@@QAEXPAVScriptLoader@2@@Z
       3120  C2F 00036818 ?_update@Node@Ogre@@UAEX_N0@Z
       3121  C30 00018F70 ?_update@ParticleSystem@Ogre@@QAEXM@Z
       3122  C31 0002C093 ?_update@SceneNode@Ogre@@UAEX_N0@Z
       3123  C32 0001937B ?_updateAllRenderTargets@RenderSystem@Ogre@@UAEX_N@Z
       3124  C33 00020563 ?_updateAllRenderTargets@Root@Ogre@@QAE_NAAUFrameEvent@2@@Z
       3125  C34 00026F21 ?_updateAllRenderTargets@Root@Ogre@@QAE_NXZ
       3126  C35 0002BF3A ?_updateAnimation@Entity@Ogre@@QAEXXZ
       3127  C36 000345EF ?_updateAnimation@InstancedEntity@Ogre@@UAE_NXZ
       3128  C37 0000646F ?_updateAutoParams@GpuProgramParameters@Ogre@@QAEXPBVAutoParamDataSource@2@G@Z
       3129  C38 0003067A ?_updateAutoParams@Pass@Ogre@@QBEXPBVAutoParamDataSource@2@G@Z
       3130  C39 00015A46 ?_updateAutoUpdatedViewports@RenderTarget@Ogre@@UAEX_N@Z
       3131  C3A 00023B46 ?_updateBounds@BillboardSet@Ogre@@UAEXXZ
       3132  C3B 0002C787 ?_updateBounds@InstanceBatch@Ogre@@QAEXXZ
       3133  C3C 00037088 ?_updateBounds@ParticleSystem@Ogre@@QAEXXZ
       3134  C3D 000155F5 ?_updateBounds@SceneNode@Ogre@@UAEXXZ
       3135  C3E 0002B003 ?_updateBoundsFromVertexBuffers@Mesh@Ogre@@QAEX_N@Z
       3136  C3F 0001D3E5 ?_updateCompiledBoneAssignments@Mesh@Ogre@@QAEXXZ
       3137  C40 0002A13A ?_updateCustomGpuParameter@Light@Ogre@@UBEXGABVAutoConstantEntry@GpuProgramParameters@2@PAV42@@Z
       3138  C41 0002D8DF ?_updateCustomGpuParameter@Renderable@Ogre@@UBEXABVAutoConstantEntry@GpuProgramParameters@2@PAV42@@Z
       3139  C42 00030F35 ?_updateCustomGpuParameter@SubEntity@Ogre@@UBEXABVAutoConstantEntry@GpuProgramParameters@2@PAV42@@Z
       3140  C43 0003DAD7 ?_updateDimensions@Viewport@Ogre@@QAEXXZ
       3141  C44 0002878B ?_updateDirtyBatches@InstanceManager@Ogre@@QAEXXZ
       3142  C45 00034540 ?_updateFromParent@Node@Ogre@@MBEXXZ
       3143  C46 0003D758 ?_updateFromShadow@HardwareBuffer@Ogre@@UAEXXZ
       3144  C47 00013976 ?_updateRenderQueue@BaseInstanceBatchVTF@Ogre@@UAEXPAVRenderQueue@2@@Z
       3145  C48 0000DFAD ?_updateRenderQueue@BatchInstance@InstancedGeometry@Ogre@@UAEXPAVRenderQueue@3@@Z
       3146  C49 0002C714 ?_updateRenderQueue@BillboardChain@Ogre@@UAEXPAVRenderQueue@2@@Z
       3147  C4A 0001BD01 ?_updateRenderQueue@BillboardParticleRenderer@Ogre@@UAEXPAVRenderQueue@2@AAV?$list@PAVParticle@Ogre@@V?$STLAllocator@PAVParticle@Ogre@@V?$CategorisedAllocPolicy@$0A@@2@@2@@std@@_N@Z
       3148  C4B 000248C0 ?_updateRenderQueue@BillboardSet@Ogre@@UAEXPAVRenderQueue@2@@Z
       3149  C4C 0001611C ?_updateRenderQueue@Entity@Ogre@@UAEXPAVRenderQueue@2@@Z
       3150  C4D 00015221 ?_updateRenderQueue@Frustum@Ogre@@UAEXPAVRenderQueue@2@@Z
       3151  C4E 0002E72B ?_updateRenderQueue@InstanceBatch@Ogre@@UAEXPAVRenderQueue@2@@Z
       3152  C4F 0000786F ?_updateRenderQueue@InstanceBatchHW@Ogre@@UAEXPAVRenderQueue@2@@Z
       3153  C50 0002D4B1 ?_updateRenderQueue@InstanceBatchHW_VTF@Ogre@@UAEXPAVRenderQueue@2@@Z
       3154  C51 0003C58D ?_updateRenderQueue@InstancedEntity@Ogre@@UAEXPAVRenderQueue@2@@Z
       3155  C52 0001B7B1 ?_updateRenderQueue@Light@Ogre@@UAEXPAVRenderQueue@2@@Z
       3156  C53 0001C954 ?_updateRenderQueue@ManualObject@Ogre@@UAEXPAVRenderQueue@2@@Z
       3157  C54 0003027E ?_updateRenderQueue@MovablePlane@Ogre@@UAEXPAVRenderQueue@2@@Z
       3158  C55 00009363 ?_updateRenderQueue@ParticleSystem@Ogre@@UAEXPAVRenderQueue@2@@Z
       3159  C56 00020B99 ?_updateRenderQueue@Region@StaticGeometry@Ogre@@UAEXPAVRenderQueue@3@@Z
       3160  C57 00017FD0 ?_updateRenderQueue@SimpleRenderable@Ogre@@UAEXPAVRenderQueue@2@@Z
       3161  C58 0002E2DA ?_updateSceneGraph@SceneManager@Ogre@@UAEXPAVCamera@2@@Z
       3162  C59 0003D50F ?_updateTransforms@Skeleton@Ogre@@UAEXXZ
       3163  C5A 0003D749 ?_updateViewport@RenderTarget@Ogre@@UAEXH_N@Z
       3164  C5B 00013156 ?_updateViewport@RenderTarget@Ogre@@UAEXPAVViewport@2@_N@Z
       3165  C5C 00034A81 ?_utf16_char_length@UTFString@Ogre@@SAIG@Z
       3166  C5D 000346B2 ?_utf16_char_length@UTFString@Ogre@@SAII@Z
       3167  C5E 00021B43 ?_utf16_independent_char@UTFString@Ogre@@SA_NG@Z
       3168  C5F 000053C6 ?_utf16_surrogate_follow@UTFString@Ogre@@SA_NG@Z
       3169  C60 0002D9D9 ?_utf16_surrogate_lead@UTFString@Ogre@@SA_NG@Z
       3170  C61 000203E7 ?_utf16_to_utf32@UTFString@Ogre@@SAIQBGAAI@Z
       3171  C62 0000DDC8 ?_utf32_to_utf16@UTFString@Ogre@@SAIABIQAG@Z
       3172  C63 0003247A ?_utf32_to_utf8@UTFString@Ogre@@SAIABIQAE@Z
       3173  C64 00002EA5 ?_utf8_char_length@UTFString@Ogre@@SAIE@Z
       3174  C65 000038EB ?_utf8_char_length@UTFString@Ogre@@SAII@Z
       3175  C66 00020315 ?_utf8_start_char@UTFString@Ogre@@SA_NE@Z
       3176  C67 000049BC ?_utf8_to_utf32@UTFString@Ogre@@SAIQBEAAI@Z
       3177  C68 0002890C ?_verifyUTF8@UTFString@Ogre@@SAIABV?$basic_string@DU?$char_traits@D@std@@V?$allocator@D@2@@std@@@Z
       3178  C69 0001C2A6 ?_verifyUTF8@UTFString@Ogre@@SAIPBE@Z
       3179  C6A 00024E47 ?_writeRawConstant@GpuProgramParameters@Ogre@@QAEXIABVColourValue@2@I@Z
       3180  C6B 00016059 ?_writeRawConstant@GpuProgramParameters@Ogre@@QAEXIABVMatrix4@2@I@Z
       3181  C6C 00015366 ?_writeRawConstant@GpuProgramParameters@Ogre@@QAEXIABVVector2@2@@Z
       3182  C6D 000318E0 ?_writeRawConstant@GpuProgramParameters@Ogre@@QAEXIABVVector3@2@@Z
       3183  C6E 00009E44 ?_writeRawConstant@GpuProgramParameters@Ogre@@QAEXIABVVector4@2@I@Z
       3184  C6F 000011C2 ?_writeRawConstant@GpuProgramParameters@Ogre@@QAEXIH@Z
       3185  C70 000011DB ?_writeRawConstant@GpuProgramParameters@Ogre@@QAEXII@Z
       3186  C71 000010D7 ?_writeRawConstant@GpuProgramParameters@Ogre@@QAEXIM@Z
       3187  C72 000137FF ?_writeRawConstant@GpuProgramParameters@Ogre@@QAEXIMI@Z
       3188  C73 00008260 ?_writeRawConstant@GpuProgramParameters@Ogre@@QAEXIPBVMatrix4@2@I@Z
       3189  C74 00010BD6 ?_writeRawConstants@GpuProgramParameters@Ogre@@QAEXIPBHI@Z
       3190  C75 00010C76 ?_writeRawConstants@GpuProgramParameters@Ogre@@QAEXIPBII@Z
       3191  C76 00010D11 ?_writeRawConstants@GpuProgramParameters@Ogre@@QAEXIPBMI@Z
       3192  C77 00010D2A ?_writeRawConstants@GpuProgramParameters@Ogre@@QAEXIPBNI@Z
       3193  C78 00009E94 ?abortAllRequests@DefaultWorkQueueBase@Ogre@@UAEXXZ
       3194  C79 0000937C ?abortPendingRequestsByChannel@DefaultWorkQueueBase@Ogre@@UAEXG@Z
       3195  C7A 0001A81B ?abortRequest@DefaultWorkQueueBase@Ogre@@UAEX_K@Z
       3196  C7B 0001ACC6 ?abortRequest@Request@WorkQueue@Ogre@@QBEXXZ
       3197  C7C 00011748 ?abortRequest@ResourceBackgroundQueue@Ogre@@QAEX_K@Z
       3198  C7D 00011752 ?abortRequest@Response@WorkQueue@Ogre@@QAEXXZ
       3199  C7E 0003283A ?abortRequestsByChannel@DefaultWorkQueueBase@Ogre@@UAEXG@Z
       3200  C7F 000161DA ?absDotProduct@Vector3@Ogre@@QBEMABV12@@Z
       3201  C80 00021486 ?acceptVisitor@QueuedRenderableCollection@Ogre@@QBEXPAVQueuedRenderableVisitor@2@W4OrganisationMode@12@@Z
       3202  C81 00002B44 ?acceptVisitorAscending@QueuedRenderableCollection@Ogre@@IBEXPAVQueuedRenderableVisitor@2@@Z
       3203  C82 000215A8 ?acceptVisitorDescending@QueuedRenderableCollection@Ogre@@IBEXPAVQueuedRenderableVisitor@2@@Z
       3204  C83 0003BC78 ?acceptVisitorGrouped@QueuedRenderableCollection@Ogre@@IBEXPAVQueuedRenderableVisitor@2@@Z
       3205  C84 00008945 ?add@RenderQueueInvocationSequence@Ogre@@QAEPAVRenderQueueInvocation@2@EABV?$basic_string@DU?$char_traits@D@std@@V?$allocator@D@2@@std@@@Z
       3206  C85 0002D5E2 ?add@RenderQueueInvocationSequence@Ogre@@QAEXPAVRenderQueueInvocation@2@@Z
       3207  C86 00024028 ?addAAB@PointListBody@FocusedShadowCameraSetup@Ogre@@QAEXABVAxisAlignedBox@3@@Z
       3208  C87 0002062B ?addActiveEmittedEmittersToFreeList@ParticleSystem@Ogre@@IAEXXZ
       3209  C88 0003F5F8 ?addAffector@ParticleSystem@Ogre@@QAEPAVParticleAffector@2@ABV?$basic_string@DU?$char_traits@D@std@@V?$allocator@D@2@@std@@@Z
       3210  C89 0002BEEA ?addAffectorFactory@ParticleSystemManager@Ogre@@QAEXPAVParticleAffectorFactory@2@@Z
       3211  C8A 0002FDBA ?addArchiveFactory@ArchiveManager@Ogre@@QAEXPAVArchiveFactory@2@@Z
       3212  C8B 00011815 ?addBaseParameters@ParticleAffector@Ogre@@IAEXXZ
       3213  C8C 00021C92 ?addBaseParameters@ParticleEmitter@Ogre@@IAEXXZ
       3214  C8D 00004421 ?addBaseParams@ExternalTextureSource@Ogre@@QAEXXZ
       3215  C8E 0003925C ?addBatchInstance@InstancedGeometry@Ogre@@QAEXXZ
       3216  C8F 00014FE7 ?addBoneAssignment@Mesh@Ogre@@QAEXABUVertexBoneAssignment_s@2@@Z
       3217  C90 00012030 ?addBoneAssignment@SubMesh@Ogre@@QAEXABUVertexBoneAssignment_s@2@@Z
       3218  C91 00029F50 ?addBucketToList@InstancedObject@InstancedGeometry@Ogre@@QAEXPAVGeometryBucket@23@@Z
       3219  C92 0002A72F ?addCapabilitiesMapping@RenderSystemCapabilitiesSerializer@Ogre@@IAEXV?$basic_string@DU?$char_traits@D@std@@V?$allocator@D@2@@std@@W4Capabilities@2@@Z
       3220  C93 0003C029 ?addChainElement@BillboardChain@Ogre@@UAEXIABVElement@12@@Z
       3221  C94 00008E90 ?addChild@Node@Ogre@@UAEXPAV12@@Z
       3222  C95 0002224B ?addClipPlane@RenderSystem@Ogre@@UAEXABVPlane@2@@Z
       3223  C96 0001A5FF ?addClipPlane@RenderSystem@Ogre@@UAEXMMMM@Z
       3224  C97 0001283C ?addCompositor@CompositorChain@Ogre@@QAEPAVCompositorInstance@2@V?$SharedPtr@VCompositor@Ogre@@@2@IABV?$basic_string@DU?$char_traits@D@std@@V?$allocator@D@2@@std@@@Z
       3225  C98 0003FBFC ?addCompositor@CompositorManager@Ogre@@QAEPAVCompositorInstance@2@PAVViewport@2@ABV?$basic_string@DU?$char_traits@D@std@@V?$allocator@D@2@@std@@H@Z
       3226  C99 0003107F ?addConstantDefinition@GpuSharedParameters@Ogre@@QAEXABV?$basic_string@DU?$char_traits@D@std@@V?$allocator@D@2@@std@@W4GpuConstantType@2@I@Z
       3227  C9A 0003ABD4 ?addCreatedResource@ResourceGroupManager@Ogre@@IAEXAAV?$SharedPtr@VResource@Ogre@@@2@AAUResourceGroup@12@@Z
       3228  C9B 00018A98 ?addDelegateProgram@UnifiedHighLevelGpuProgram@Ogre@@QAEXABV?$basic_string@DU?$char_traits@D@std@@V?$allocator@D@2@@std@@@Z
       3229  C9C 0000AE5C ?addEffect@TextureUnitState@Ogre@@QAEXAAUTextureEffect@12@@Z
       3230  C9D 00015FB9 ?addElement@VertexDeclaration@Ogre@@UAEABVVertexElement@2@GIW4VertexElementType@2@W4VertexElementSemantic@2@G@Z
       3231  C9E 00005EC0 ?addEmbbeddedFile@EmbeddedZipArchiveFactory@Ogre@@SAXABV?$basic_string@DU?$char_traits@D@std@@V?$allocator@D@2@@std@@PBEIP6A_NIPAXI@Z@Z
       3232  C9F 00031566 ?addEmitter@ParticleSystem@Ogre@@QAEPAVParticleEmitter@2@ABV?$basic_string@DU?$char_traits@D@std@@V?$allocator@D@2@@std@@@Z
       3233  CA0 000155AA ?addEmitterFactory@ParticleSystemManager@Ogre@@QAEXPAVParticleEmitterFactory@2@@Z
       3234  CA1 0000B2EE ?addEntity@InstancedGeometry@Ogre@@UAEXPAVEntity@2@ABVVector3@2@ABVQuaternion@2@1@Z
       3235  CA2 0001B833 ?addEntity@StaticGeometry@Ogre@@UAEXPAVEntity@2@ABVVector3@2@ABVQuaternion@2@1@Z
       3236  CA3 00006F32 ?addError@ScriptCompiler@Ogre@@QAEXIABV?$basic_string@DU?$char_traits@D@std@@V?$allocator@D@2@@std@@H0@Z
       3237  CA4 0003B9DF ?addFaceTangentSpaceToVertices@TangentSpaceCalc@Ogre@@IAEXIIPAIABVVector3@2@11AAUResult@12@@Z
       3238  CA5 0003A102 ?addFactory@HighLevelGpuProgramManager@Ogre@@QAEXPAVHighLevelGpuProgramFactory@2@@Z
       3239  CA6 0003C943 ?addFactory@SceneManagerEnumerator@Ogre@@QAEXPAVSceneManagerFactory@2@@Z
       3240  CA7 00037FA6 ?addFrameListener@Root@Ogre@@QAEXPAVFrameListener@2@@Z
       3241  CA8 00019916 ?addFrameTextureName@TextureUnitState@Ogre@@QAEXABV?$basic_string@DU?$char_traits@D@std@@V?$allocator@D@2@@std@@@Z
       3242  CA9 0003B99E ?addFreeEmittedEmitters@ParticleSystem@Ogre@@IAEXXZ
       3243  CAA 0000AD99 ?addGPUDeviceNameRule@Technique@Ogre@@QAEXABUGPUDeviceNameRule@12@@Z
       3244  CAB 000028E7 ?addGPUDeviceNameRule@Technique@Ogre@@QAEXABV?$basic_string@DU?$char_traits@D@std@@V?$allocator@D@2@@std@@W4IncludeOrExclude@12@_N@Z
       3245  CAC 000334E7 ?addGPUVendorRule@Technique@Ogre@@QAEXABUGPUVendorRule@12@@Z
       3246  CAD 0001701C ?addGPUVendorRule@Technique@Ogre@@QAEXW4GPUVendor@2@W4IncludeOrExclude@12@@Z
       3247  CAE 00033735 ?addImpl@ResourceManager@Ogre@@MAEXAAV?$SharedPtr@VResource@Ogre@@@2@@Z
       3248  CAF 0000EC64 ?addIndexData@EdgeListBuilder@Ogre@@QAEXPBVIndexData@2@IW4OperationType@RenderOperation@2@@Z
       3249  CB0 00032DE4 ?addIndexData@TangentSpaceCalc@Ogre@@QAEXPAVIndexData@2@W4OperationType@RenderOperation@2@@Z
       3250  CB1 000099A8 ?addInstancedObject@BatchInstance@InstancedGeometry@Ogre@@QAEXGPAVInstancedObject@23@@Z
       3251  CB2 0000639D ?addItem@?$Pool@V?$SharedPtr@VResource@Ogre@@@Ogre@@@Ogre@@UAEXABV?$SharedPtr@VResource@Ogre@@@2@@Z
       3252  CB3 000385D2 ?addKeywordType@RenderSystemCapabilitiesSerializer@Ogre@@IAEXV?$basic_string@DU?$char_traits@D@std@@V?$allocator@D@2@@std@@W4CapabilityKeywordType@12@@Z
       3253  CB4 00029E10 ?addLinkedSkeletonAnimationSource@Skeleton@Ogre@@UAEXABV?$basic_string@DU?$char_traits@D@std@@V?$allocator@D@2@@std@@M@Z
       3254  CB5 0001C8BE ?addLinkedSkeletonAnimationSource@SkeletonInstance@Ogre@@UAEXABV?$basic_string@DU?$char_traits@D@std@@V?$allocator@D@2@@std@@M@Z
       3255  CB6 00025171 ?addListener@Camera@Ogre@@UAEXPAVListener@12@@Z
       3256  CB7 00006E6A ?addListener@CompositorInstance@Ogre@@QAEXPAVListener@12@@Z
       3257  CB8 00006974 ?addListener@Log@Ogre@@QAEXPAVLogListener@2@@Z
       3258  CB9 00002F59 ?addListener@MaterialManager@Ogre@@UAEXPAVListener@12@ABV?$basic_string@DU?$char_traits@D@std@@V?$allocator@D@2@@std@@@Z
       3259  CBA 00004A5C ?addListener@MaterialSerializer@Ogre@@QAEXPAVListener@12@@Z
       3260  CBB 0001CD0F ?addListener@Profiler@Ogre@@QAEXPAVProfileSessionListener@2@@Z
       3261  CBC 0001E3DF ?addListener@RenderSystem@Ogre@@UAEXPAVListener@12@@Z
       3262  CBD 00019F15 ?addListener@RenderTarget@Ogre@@UAEXPAVRenderTargetListener@2@@Z
       3263  CBE 0003AC42 ?addListener@Resource@Ogre@@UAEXPAVListener@12@@Z
       3264  CBF 0002FCCF ?addListener@SceneManager@Ogre@@UAEXPAVListener@12@@Z
       3265  CC0 00001F50 ?addListener@UnifiedHighLevelGpuProgram@Ogre@@UAEXPAVListener@Resource@2@@Z
       3266  CC1 0001F8CF ?addListener@Viewport@Ogre@@QAEXPAVListener@12@@Z
       3267  CC2 0002068F ?addLodListener@SceneManager@Ogre@@QAEXPAVLodListener@2@@Z
       3268  CC3 000180D9 ?addMicrocodeToCache@GpuProgramManager@Ogre@@UAEXABV?$basic_string@DU?$char_traits@D@std@@V?$allocator@D@2@@std@@ABV?$SharedPtr@VMemoryDataStream@Ogre@@@2@@Z
       3269  CC4 0000522C ?addMovableObjectFactory@Root@Ogre@@QAEXPAVMovableObjectFactory@2@_N@Z
       3270  CC5 00039996 ?addNode@RibbonTrail@Ogre@@UAEXPAVNode@2@@Z
       3271  CC6 00036566 ?addOrganisationMode@QueuedRenderableCollection@Ogre@@QAEXW4OrganisationMode@12@@Z
       3272  CC7 0000DD46 ?addOrganisationMode@RenderPriorityGroup@Ogre@@QAEXW4OrganisationMode@QueuedRenderableCollection@2@@Z
       3273  CC8 0001B315 ?addOrganisationMode@RenderQueueGroup@Ogre@@QAEXW4OrganisationMode@QueuedRenderableCollection@2@@Z
       3274  CC9 0003FFBC ?addParameter@ParamDictionary@Ogre@@QAEXABVParameterDef@2@PAVParamCommand@2@@Z
       3275  CCA 0003992D ?addPoint@PointListBody@FocusedShadowCameraSetup@Ogre@@QAEXABVVector3@3@@Z
       3276  CCB 0002DF2E ?addPoint@RotationalSpline@Ogre@@QAEXABVQuaternion@2@@Z
       3277  CCC 0000DFC1 ?addPoint@SimpleSpline@Ogre@@QAEXABVVector3@2@@Z
       3278  CCD 00019A74 ?addPoseReference@VertexPoseKeyFrame@Ogre@@QAEXGM@Z
       3279  CCE 0000C914 ?addQueryFlags@MovableObject@Ogre@@UAEXI@Z
       3280  CCF 0000B064 ?addRenderObjectListener@SceneManager@Ogre@@UAEXPAVRenderObjectListener@2@@Z
       3281  CD0 0001849E ?addRenderQueueListener@SceneManager@Ogre@@UAEXPAVRenderQueueListener@2@@Z
       3282  CD1 00015E8D ?addRenderSystem@Root@Ogre@@QAEXPAVRenderSystem@2@@Z
       3283  CD2 0003F927 ?addRenderSystemToName@GpuProgramManager@Ogre@@KA?AV?$basic_string@DU?$char_traits@D@std@@V?$allocator@D@2@@std@@ABV34@@Z
       3284  CD3 00016ED7 ?addRenderable@QueuedRenderableCollection@Ogre@@QAEXPAVPass@2@PAVRenderable@2@@Z
       3285  CD4 0002392A ?addRenderable@RenderPriorityGroup@Ogre@@QAEXPAVRenderable@2@PAVTechnique@2@@Z
       3286  CD5 0001375F ?addRenderable@RenderQueue@Ogre@@QAEXPAVRenderable@2@@Z
       3287  CD6 0001E44D ?addRenderable@RenderQueue@Ogre@@QAEXPAVRenderable@2@E@Z
       3288  CD7 00026850 ?addRenderable@RenderQueue@Ogre@@QAEXPAVRenderable@2@EG@Z
       3289  CD8 00018A8E ?addRenderable@RenderQueueGroup@Ogre@@QAEXPAVRenderable@2@PAVTechnique@2@G@Z
       3290  CD9 00018638 ?addRenderables@LODBucket@InstancedGeometry@Ogre@@QAEXPAVRenderQueue@3@EM@Z
       3291  CDA 00024D43 ?addRenderables@LODBucket@StaticGeometry@Ogre@@QAEXPAVRenderQueue@3@EM@Z
       3292  CDB 000029A0 ?addRenderables@MaterialBucket@InstancedGeometry@Ogre@@QAEXPAVRenderQueue@3@EM@Z
       3293  CDC 0001486C ?addRenderables@MaterialBucket@StaticGeometry@Ogre@@QAEXPAVRenderQueue@3@EM@Z
       3294  CDD 0003D091 ?addRendererFactory@ParticleSystemManager@Ogre@@QAEXPAVParticleSystemRendererFactory@2@@Z
       3295  CDE 0001ABDB ?addRequest@DefaultWorkQueueBase@Ogre@@UAE_KGGABVAny@2@E_N1@Z
       3296  CDF 000124A4 ?addRequest@ResourceBackgroundQueue@Ogre@@IAE_KAAUResourceRequest@12@@Z
       3297  CE0 0003E9FF ?addRequestHandler@DefaultWorkQueueBase@Ogre@@UAEXGPAVRequestHandler@WorkQueue@2@@Z
       3298  CE1 0001DF11 ?addRequestWithRID@DefaultWorkQueueBase@Ogre@@IAEX_KGGABVAny@2@E@Z
       3299  CE2 0002D1C3 ?addResourceGroupListener@ResourceGroupManager@Ogre@@QAEXPAVResourceGroupListener@2@@Z
       3300  CE3 00010C85 ?addResourceLocation@ResourceGroupManager@Ogre@@QAEXABV?$basic_string@DU?$char_traits@D@std@@V?$allocator@D@2@@std@@00_N1@Z
       3301  CE4 0002DB0F ?addResourceLocation@Root@Ogre@@QAEXABV?$basic_string@DU?$char_traits@D@std@@V?$allocator@D@2@@std@@00_N@Z
       3302  CE5 0000E57F ?addResponseHandler@DefaultWorkQueueBase@Ogre@@UAEXGPAVResponseHandler@WorkQueue@2@@Z
       3303  CE6 000335AA ?addSceneManagerFactory@Root@Ogre@@QAEXPAVSceneManagerFactory@2@@Z
       3304  CE7 00007E19 ?addSceneNode@InstancedGeometry@Ogre@@UAEXPBVSceneNode@2@@Z
       3305  CE8 00005420 ?addSceneNode@StaticGeometry@Ogre@@UAEXPBVSceneNode@2@@Z
       3306  CE9 000254C8 ?addScriptPattern@ScriptCompilerManager@Ogre@@QAEXABV?$basic_string@DU?$char_traits@D@std@@V?$allocator@D@2@@std@@@Z
       3307  CEA 0002F7E3 ?addSetBoolMethod@RenderSystemCapabilitiesSerializer@Ogre@@IAEXV?$basic_string@DU?$char_traits@D@std@@V?$allocator@D@2@@std@@P8RenderSystemCapabilities@2@AEX_N@Z@Z
       3308  CEB 000118D8 ?addSetIntMethod@RenderSystemCapabilitiesSerializer@Ogre@@IAEXV?$basic_string@DU?$char_traits@D@std@@V?$allocator@D@2@@std@@P8RenderSystemCapabilities@2@AEXG@Z@Z
       3309  CEC 0002559F ?addSetRealMethod@RenderSystemCapabilitiesSerializer@Ogre@@IAEXV?$basic_string@DU?$char_traits@D@std@@V?$allocator@D@2@@std@@P8RenderSystemCapabilities@2@AEXM@Z@Z
       3310  CED 0002A4F5 ?addSetStringMethod@RenderSystemCapabilitiesSerializer@Ogre@@IAEXV?$basic_string@DU?$char_traits@D@std@@V?$allocator@D@2@@std@@P8RenderSystemCapabilities@2@AEXABV34@@Z@Z
       3311  CEE 0001771F ?addShaderProfile@RenderSystemCapabilities@Ogre@@QAEXABV?$basic_string@DU?$char_traits@D@std@@V?$allocator@D@2@@std@@@Z
       3312  CEF 00011F7C ?addShaderProfile@RenderSystemCapabilitiesSerializer@Ogre@@IAEXAAV?$basic_string@DU?$char_traits@D@std@@V?$allocator@D@2@@std@@@Z
       3313  CF0 00018868 ?addSharedParameters@GpuProgramParameters@Ogre@@QAEXABV?$basic_string@DU?$char_traits@D@std@@V?$allocator@D@2@@std@@@Z
       3314  CF1 00003C7E ?addSharedParameters@GpuProgramParameters@Ogre@@QAEXV?$SharedPtr@VGpuSharedParameters@Ogre@@@2@@Z
       3315  CF2 00013052 ?addSoftwareAnimationRequest@Entity@Ogre@@QAEX_N@Z
       3316  CF3 00017535 ?addSolidRenderable@RenderPriorityGroup@Ogre@@IAEXPAVTechnique@2@PAVRenderable@2@_N@Z
       3317  CF4 0000BD5C ?addSolidRenderableSplitByLightType@RenderPriorityGroup@Ogre@@IAEXPAVTechnique@2@PAVRenderable@2@@Z
       3318  CF5 0001050F ?addSpecialCaseRenderQueue@SceneManager@Ogre@@UAEXE@Z
       3319  CF6 0002094B ?addStrategy@LodStrategyManager@Ogre@@QAEXPAVLodStrategy@2@@Z
       3320  CF7 0001F889 ?addTemplate@ParticleSystemManager@Ogre@@QAEXABV?$basic_string@DU?$char_traits@D@std@@V?$allocator@D@2@@std@@PAVParticleSystem@2@@Z
       3321  CF8 00029DD4 ?addTextureAlias@SubMesh@Ogre@@QAEXABV?$basic_string@DU?$char_traits@D@std@@V?$allocator@D@2@@std@@0@Z
       3322  CF9 00012E2C ?addTextureUnitState@Pass@Ogre@@QAEXPAVTextureUnitState@2@@Z
       3323  CFA 00003E0E ?addTime@AnimationState@Ogre@@QAEXM@Z
       3324  CFB 00018A11 ?addTranslatorManager@ScriptCompilerManager@Ogre@@QAEXPAVScriptTranslatorManager@2@@Z
       3325  CFC 0000CB58 ?addTransparentRenderable@RenderPriorityGroup@Ogre@@IAEXPAVTechnique@2@PAVRenderable@2@@Z
       3326  CFD 00023998 ?addUnsortedTransparentRenderable@RenderPriorityGroup@Ogre@@IAEXPAVTechnique@2@PAVRenderable@2@@Z
       3327  CFE 000243B1 ?addVariable@ObjectAbstractNode@Ogre@@QAEXABV?$basic_string@DU?$char_traits@D@std@@V?$allocator@D@2@@std@@@Z
       3328  CFF 0003696C ?addVertex@Pose@Ogre@@QAEXIABVVector3@2@0@Z
       3329  D00 000290AF ?addVertex@Pose@Ogre@@QAEXIABVVector3@2@@Z
       3330  D01 00019B7D ?addVertexData@EdgeListBuilder@Ogre@@QAEXPBVVertexData@2@@Z
       3331  D02 00001AC3 ?addViewport@RenderTarget@Ogre@@UAEPAVViewport@2@PAVCamera@2@HMMMM@Z
       3332  D03 0003D36B ?addVisibilityFlags@MovableObject@Ogre@@UAEXI@Z
       3333  D04 00016B3F ?addWindowEventListener@WindowEventUtilities@Ogre@@SAXPAVRenderWindow@2@PAVWindowEventListener@2@@Z
       3334  D05 0000700E ?adjoint@Matrix4@Ogre@@QBE?AV12@XZ
       3335  D06 000118BF ?allocate@AlignedMemory@Ogre@@SAPAXI@Z
       3336  D07 0002603A ?allocate@AlignedMemory@Ogre@@SAPAXII@Z
       3337  D08 0002E389 ?allocateBytes@StdAllocPolicy@Ogre@@SAPAXIPBDH0@Z
       3338  D09 00028B0A ?allocateHardwareAnimationElements@VertexData@Ogre@@QAEGG_N@Z
       3339  D0A 00035346 ?allocatePolygon@ConvexBody@Ogre@@KAPAVPolygon@2@XZ
       3340  D0B 0000ECE1 ?allocateSpace@ConvexBody@Ogre@@IAEXII@Z
       3341  D0C 00028CE0 ?allocateVertexBufferCopy@HardwareBufferManager@Ogre@@UAE?AVHardwareVertexBufferSharedPtr@2@ABV32@W4BufferLicenseType@HardwareBufferManagerBase@2@PAVHardwareBufferLicensee@2@_N@Z
       3342  D0D 000138EA ?allocateVertexBufferCopy@HardwareBufferManagerBase@Ogre@@UAE?AVHardwareVertexBufferSharedPtr@2@ABV32@W4BufferLicenseType@12@PAVHardwareBufferLicensee@2@_N@Z
       3343  D0E 00039EC3 ?angleBetween@Vector2@Ogre@@QBE?AVRadian@2@ABV12@@Z
       3344  D0F 0002BE3B ?angleBetween@Vector3@Ogre@@QBE?AVRadian@2@ABV12@@Z
       3345  D10 00003F9E ?angleTo@Vector2@Ogre@@QBE?AVRadian@2@ABV12@@Z
       3346  D11 0001C116 ?append@UTFString@Ogre@@QAEAAV12@ABV12@@Z
       3347  D12 0003EF4F ?append@UTFString@Ogre@@QAEAAV12@ABV12@II@Z
       3348  D13 00011DCE ?append@UTFString@Ogre@@QAEAAV12@ID@Z
       3349  D14 00011E19 ?append@UTFString@Ogre@@QAEAAV12@IG@Z
       3350  D15 00011E14 ?append@UTFString@Ogre@@QAEAAV12@II@Z
       3351  D16 00009F9D ?append@UTFString@Ogre@@QAEAAV12@I_W@Z
       3352  D17 000176B1 ?append@UTFString@Ogre@@QAEAAV12@PBDI@Z
       3353  D18 00036133 ?append@UTFString@Ogre@@QAEAAV12@PBG@Z
       3354  D19 000176AC ?append@UTFString@Ogre@@QAEAAV12@PBGI@Z
       3355  D1A 0000C653 ?append@UTFString@Ogre@@QAEAAV12@PB_WI@Z
       3356  D1B 00035260 ?append@UTFString@Ogre@@QAEAAV12@V_fwd_iterator@12@0@Z
       3357  D1C 00035F08 ?apply@Animation@Ogre@@QAEXMMM@Z
       3358  D1D 0000C559 ?apply@Animation@Ogre@@QAEXPAVEntity@2@MM_N1@Z
       3359  D1E 00038F32 ?apply@Animation@Ogre@@QAEXPAVSkeleton@2@MMM@Z
       3360  D1F 0000A3D5 ?apply@Animation@Ogre@@QAEXPAVSkeleton@2@MMPBV?$vector@MV?$STLAllocator@MV?$CategorisedAllocPolicy@$0A@@Ogre@@@Ogre@@@std@@M@Z
       3361  D20 00035BAC ?apply@NodeAnimationTrack@Ogre@@UAEXABVTimeIndex@2@MM@Z
       3362  D21 0002AAB3 ?apply@NumericAnimationTrack@Ogre@@UAEXABVTimeIndex@2@MM@Z
       3363  D22 00004723 ?apply@VertexAnimationTrack@Ogre@@UAEXABVTimeIndex@2@MM@Z
       3364  D23 00023BB9 ?applyDefaults@Material@Ogre@@IAEXXZ
       3365  D24 00021FD0 ?applyDeltaValue@AnimableValue@Ogre@@UAEXABVAny@2@@Z
       3366  D25 0000119A ?applyDeltaValue@AnimableValue@Ogre@@UAEXABVColourValue@2@@Z
       3367  D26 0000C59F ?applyDeltaValue@AnimableValue@Ogre@@UAEXABVDegree@2@@Z
       3368  D27 00031BCE ?applyDeltaValue@AnimableValue@Ogre@@UAEXABVQuaternion@2@@Z
       3369  D28 0003C8A8 ?applyDeltaValue@AnimableValue@Ogre@@UAEXABVRadian@2@@Z
       3370  D29 000055FB ?applyDeltaValue@AnimableValue@Ogre@@UAEXABVVector2@2@@Z
       3371  D2A 0001743B ?applyDeltaValue@AnimableValue@Ogre@@UAEXABVVector3@2@@Z
       3372  D2B 000329C0 ?applyDeltaValue@AnimableValue@Ogre@@UAEXABVVector4@2@@Z
       3373  D2C 0003AAFD ?applyDeltaValue@AnimableValue@Ogre@@UAEXH@Z
       3374  D2D 0003AABC ?applyDeltaValue@AnimableValue@Ogre@@UAEXM@Z
       3375  D2E 00034B03 ?applyGamma@Image@Ogre@@SAXPAEMIE@Z
       3376  D2F 0003EC43 ?applyPoseToVertexData@VertexAnimationTrack@Ogre@@IAEXPBVPose@2@PAVVertexData@2@M@Z
       3377  D30 000379F7 ?applySettingToBatches@InstanceManager@Ogre@@AAEXW4BatchSettingId@12@_NABV?$vector@PAVInstanceBatch@Ogre@@V?$STLAllocator@PAVInstanceBatch@Ogre@@V?$CategorisedAllocPolicy@$0A@@2@@2@@std@@@Z
       3378  D31 0001856B ?applyTextureAliases@Material@Ogre@@QBE_NABV?$map@V?$basic_string@DU?$char_traits@D@std@@V?$allocator@D@2@@std@@V12@U?$less@V?$basic_string@DU?$char_traits@D@std@@V?$allocator@D@2@@std@@@2@V?$STLAllocator@U?$pair@$$CBV?$basic_string@DU?$char_traits@D@std@@V?$allocator@D@2@@std@@V12@@std@@V?$CategorisedAllocPolicy@$0A@@Ogre@@@Ogre@@@std@@_N@Z
       3379  D32 000286AA ?applyTextureAliases@Pass@Ogre@@QBE_NABV?$map@V?$basic_string@DU?$char_traits@D@std@@V?$allocator@D@2@@std@@V12@U?$less@V?$basic_string@DU?$char_traits@D@std@@V?$allocator@D@2@@std@@@2@V?$STLAllocator@U?$pair@$$CBV?$basic_string@DU?$char_traits@D@std@@V?$allocator@D@2@@std@@V12@@std@@V?$CategorisedAllocPolicy@$0A@@Ogre@@@Ogre@@@std@@_N@Z
       3380  D33 000123B4 ?applyTextureAliases@Technique@Ogre@@QBE_NABV?$map@V?$basic_string@DU?$char_traits@D@std@@V?$allocator@D@2@@std@@V12@U?$less@V?$basic_string@DU?$char_traits@D@std@@V?$allocator@D@2@@std@@@2@V?$STLAllocator@U?$pair@$$CBV?$basic_string@DU?$char_traits@D@std@@V?$allocator@D@2@@std@@V12@@std@@V?$CategorisedAllocPolicy@$0A@@Ogre@@@Ogre@@@std@@_N@Z
       3381  D34 000238AD ?applyTextureAliases@TextureUnitState@Ogre@@QAE_NABV?$map@V?$basic_string@DU?$char_traits@D@std@@V?$allocator@D@2@@std@@V12@U?$less@V?$basic_string@DU?$char_traits@D@std@@V?$allocator@D@2@@std@@@2@V?$STLAllocator@U?$pair@$$CBV?$basic_string@DU?$char_traits@D@std@@V?$allocator@D@2@@std@@V12@@std@@V?$CategorisedAllocPolicy@$0A@@Ogre@@@Ogre@@@std@@_N@Z
       3382  D35 0002C336 ?applyToAnimable@Animation@Ogre@@QAEXABV?$SharedPtr@VAnimableValue@Ogre@@@2@MMM@Z
       3383  D36 000043EA ?applyToAnimable@NumericAnimationTrack@Ogre@@QAEXABV?$SharedPtr@VAnimableValue@Ogre@@@2@ABVTimeIndex@2@MM@Z
       3384  D37 0000DD69 ?applyToNode@Animation@Ogre@@QAEXPAVNode@2@MMM@Z
       3385  D38 00020E41 ?applyToNode@NodeAnimationTrack@Ogre@@UAEXPAVNode@2@ABVTimeIndex@2@MM@Z
       3386  D39 0001F3DE ?applyToVertexData@Animation@Ogre@@QAEXPAVVertexData@2@MM@Z
       3387  D3A 0003F30A ?applyToVertexData@VertexAnimationTrack@Ogre@@UAEXPAVVertexData@2@ABVTimeIndex@2@MPBV?$vector@PAVPose@Ogre@@V?$STLAllocator@PAVPose@Ogre@@V?$CategorisedAllocPolicy@$0A@@2@@2@@std@@@Z
       3388  D3B 000201DF ?applyVertexAnimation@Entity@Ogre@@IAEX_N0@Z
       3389  D3C 00003611 ?areFixedFunctionLightsInViewSpace@RenderSystem@Ogre@@UBE_NXZ
       3390  D3D 0000D41D ?asUTF32@UTFString@Ogre@@QBEABV?$basic_string@IU?$char_traits@I@std@@V?$allocator@I@2@@std@@XZ
       3391  D3E 0002FB58 ?asUTF32_c_str@UTFString@Ogre@@QBEPBIXZ
       3392  D3F 0000C7ED ?asUTF8@UTFString@Ogre@@QBEABV?$basic_string@DU?$char_traits@D@std@@V?$allocator@D@2@@std@@XZ
       3393  D40 0001D043 ?asUTF8_c_str@UTFString@Ogre@@QBEPBDXZ
       3394  D41 000083C8 ?asWStr@UTFString@Ogre@@QBEABV?$basic_string@_WU?$char_traits@_W@std@@V?$allocator@_W@2@@std@@XZ
       3395  D42 0000322E ?asWStr_c_str@UTFString@Ogre@@QBEPB_WXZ
       3396  D43 00005452 ?assertSorted@LodStrategy@Ogre@@QBEXABV?$vector@MV?$STLAllocator@MV?$CategorisedAllocPolicy@$0A@@Ogre@@@Ogre@@@std@@@Z
       3397  D44 0002650D ?assign@BatchInstance@InstancedGeometry@Ogre@@QAEXPAUQueuedSubMesh@23@@Z
       3398  D45 00032ECA ?assign@GeometryBucket@InstancedGeometry@Ogre@@QAE_NPAUQueuedGeometry@23@@Z
       3399  D46 00033B9F ?assign@GeometryBucket@StaticGeometry@Ogre@@QAE_NPAUQueuedGeometry@23@@Z
       3400  D47 0000BE6A ?assign@LODBucket@InstancedGeometry@Ogre@@QAEXPAUQueuedSubMesh@23@G@Z
       3401  D48 0002190E ?assign@LODBucket@StaticGeometry@Ogre@@QAEXPAUQueuedSubMesh@23@G@Z
       3402  D49 000088A0 ?assign@MaterialBucket@InstancedGeometry@Ogre@@QAEXPAUQueuedGeometry@23@@Z
       3403  D4A 0003D0EB ?assign@MaterialBucket@StaticGeometry@Ogre@@QAEXPAUQueuedGeometry@23@@Z
       3404  D4B 000021C6 ?assign@Region@StaticGeometry@Ogre@@QAEXPAUQueuedSubMesh@23@@Z
       3405  D4C 00035BE8 ?assign@UTFString@Ogre@@QAEAAV12@ABV12@@Z
       3406  D4D 00021BCA ?assign@UTFString@Ogre@@QAEAAV12@ABV12@II@Z
       3407  D4E 0003596D ?assign@UTFString@Ogre@@QAEAAV12@ABV?$basic_string@DU?$char_traits@D@std@@V?$allocator@D@2@@std@@@Z
       3408  D4F 0002B896 ?assign@UTFString@Ogre@@QAEAAV12@ABV?$basic_string@_WU?$char_traits@_W@std@@V?$allocator@_W@2@@std@@@Z
       3409  D50 0001EE2F ?assign@UTFString@Ogre@@QAEAAV12@IABG@Z
       3410  D51 0000116D ?assign@UTFString@Ogre@@QAEAAV12@PBD@Z
       3411  D52 0003921B ?assign@UTFString@Ogre@@QAEAAV12@PBDI@Z
       3412  D53 00001168 ?assign@UTFString@Ogre@@QAEAAV12@PBG@Z
       3413  D54 0003913A ?assign@UTFString@Ogre@@QAEAAV12@PBGI@Z
       3414  D55 00009322 ?assign@UTFString@Ogre@@QAEAAV12@PB_W@Z
       3415  D56 0000B834 ?assign@UTFString@Ogre@@QAEAAV12@PB_WI@Z
       3416  D57 00028BB4 ?assign@UTFString@Ogre@@QAEAAV12@V_fwd_iterator@12@0@Z
       3417  D58 00026300 ?at@UTFString@Ogre@@QAEAAGI@Z
       3418  D59 00008D3C ?at@UTFString@Ogre@@QBEABGI@Z
       3419  D5A 0002D452 ?attachDepthBuffer@RenderTarget@Ogre@@UAE_NPAVDepthBuffer@2@@Z
       3420  D5B 00017053 ?attachObject@SceneNode@Ogre@@UAEXPAVMovableObject@2@@Z
       3421  D5C 0001CF67 ?attachObjectImpl@Entity@Ogre@@IAEXPAVMovableObject@2@PAVTagPoint@2@@Z
       3422  D5D 00039491 ?attachObjectToBone@Entity@Ogre@@QAEPAVTagPoint@2@ABV?$basic_string@DU?$char_traits@D@std@@V?$allocator@D@2@@std@@PAVMovableObject@2@ABVQuaternion@2@ABVVector3@2@@Z
       3423  D5E 00036921 ?attachRenderTarget@RenderSystem@Ogre@@UAEXAAVRenderTarget@2@@Z
       3424  D5F 00005033 ?attachToScene@BatchInstance@InstancedGeometry@Ogre@@QAEXXZ
       3425  D60 0003C8DA ?backgroundLoadingComplete@Entity@Ogre@@UAEXPAVResource@2@@Z
       3426  D61 0001953D ?backpedalChunkHeader@Serializer@Ogre@@MAEXAAV?$SharedPtr@VDataStream@Ogre@@@2@@Z
       3427  D62 000324C0 ?baseVertexPointerToElement@VertexElement@Ogre@@QBEXPAXPAPAE@Z
       3428  D63 00032E2F ?baseVertexPointerToElement@VertexElement@Ogre@@QBEXPAXPAPAG@Z
       3429  D64 00032E84 ?baseVertexPointerToElement@VertexElement@Ogre@@QBEXPAXPAPAI@Z
       3430  D65 00032F06 ?baseVertexPointerToElement@VertexElement@Ogre@@QBEXPAXPAPAM@Z
       3431  D66 00033159 ?baseVertexPointerToElement@VertexElement@Ogre@@QBEXPAXPAPAX@Z
       3432  D67 0002C881 ?begin@ManualObject@Ogre@@UAEXABV?$basic_string@DU?$char_traits@D@std@@V?$allocator@D@2@@std@@W4OperationType@RenderOperation@2@0@Z
       3433  D68 0002E217 ?begin@UTFString@Ogre@@QAE?AV_fwd_iterator@12@XZ
       3434  D69 000370FB ?begin@UTFString@Ogre@@QBE?AV_const_fwd_iterator@12@XZ
       3435  D6A 000387AD ?beginBillboards@BillboardSet@Ogre@@QAEXI@Z
       3436  D6B 00004011 ?beginGPUEvent@Profiler@Ogre@@QAEXABV?$basic_string@DU?$char_traits@D@std@@V?$allocator@D@2@@std@@@Z
       3437  D6C 00007F1D ?beginProfile@Profiler@Ogre@@QAEXABV?$basic_string@DU?$char_traits@D@std@@V?$allocator@D@2@@std@@I@Z
       3438  D6D 000159C9 ?beginSection@MaterialSerializer@Ogre@@QAEXG_N@Z
       3439  D6E 00013A43 ?beginUpdate@ManualObject@Ogre@@UAEXI@Z
       3440  D6F 00032128 ?billboardVisible@BillboardSet@Ogre@@IAE_NPAVCamera@2@ABVBillboard@2@@Z
       3441  D70 00016CBB ?bind@?$SharedPtr@VHardwareCounterBuffer@Ogre@@@Ogre@@QAEXPAVHardwareCounterBuffer@2@W4SharedPtrFreeMethod@2@@Z
       3442  D71 000316B0 ?bind@?$SharedPtr@VHardwareIndexBuffer@Ogre@@@Ogre@@QAEXPAVHardwareIndexBuffer@2@W4SharedPtrFreeMethod@2@@Z
       3443  D72 00022B0B ?bind@?$SharedPtr@VHardwarePixelBuffer@Ogre@@@Ogre@@QAEXPAVHardwarePixelBuffer@2@W4SharedPtrFreeMethod@2@@Z
       3444  D73 0002C3DB ?bind@?$SharedPtr@VHardwareUniformBuffer@Ogre@@@Ogre@@QAEXPAVHardwareUniformBuffer@2@W4SharedPtrFreeMethod@2@@Z
       3445  D74 0001C747 ?bind@?$SharedPtr@VHardwareVertexBuffer@Ogre@@@Ogre@@QAEXPAVHardwareVertexBuffer@2@W4SharedPtrFreeMethod@2@@Z
       3446  D75 0003A53F ?bindGpuProgram@RenderSystem@Ogre@@UAEXPAVGpuProgram@2@@Z
       3447  D76 00006FC3 ?bindGpuProgram@SceneManager@Ogre@@MAEXPAVGpuProgram@2@@Z
       3448  D77 0001D7AF ?bindMissingHardwarePoseBuffers@Entity@Ogre@@IAEXPBVVertexData@2@PAV32@@Z
       3449  D78 0003166A ?bindSurface@MultiRenderTarget@Ogre@@UAEXIPAVRenderTexture@2@@Z
       3450  D79 0002569E ?bindTempCopies@TempBlendedBufferInfo@Ogre@@QAEXPAVVertexData@2@_N@Z
       3451  D7A 0003F8CD ?blit@HardwarePixelBuffer@Ogre@@QAEXABVHardwarePixelBufferSharedPtr@2@@Z
       3452  D7B 0002ACFC ?blit@HardwarePixelBuffer@Ogre@@UAEXABVHardwarePixelBufferSharedPtr@2@ABUBox@2@1@Z
       3453  D7C 000302E2 ?blitFromMemory@HardwarePixelBuffer@Ogre@@QAEXABVPixelBox@2@@Z
       3454  D7D 00033703 ?blitToMemory@HardwarePixelBuffer@Ogre@@QAEXABVPixelBox@2@@Z
       3455  D7E 000162BB ?boundingRadiusFromAABB@Math@Ogre@@SAMABVAxisAlignedBox@2@@Z
       3456  D7F 0003E2F7 ?buffersCheckedOut@TempBlendedBufferInfo@Ogre@@QBE_N_N0@Z
       3457  D80 00005D1C ?build@BatchInstance@InstancedGeometry@Ogre@@QAEXXZ
       3458  D81 00010AC3 ?build@EdgeListBuilder@Ogre@@QAEPAVEdgeData@2@XZ
       3459  D82 0003E022 ?build@GeometryBucket@InstancedGeometry@Ogre@@QAEXXZ
       3460  D83 0002AFC7 ?build@GeometryBucket@StaticGeometry@Ogre@@QAEX_N@Z
       3461  D84 0002E73F ?build@InstanceBatch@Ogre@@UAE?AVRenderOperation@2@PBVSubMesh@2@@Z
       3462  D85 00027B97 ?build@InstancedGeometry@Ogre@@UAEXXZ
       3463  D86 00019BE1 ?build@LODBucket@InstancedGeometry@Ogre@@QAEXXZ
       3464  D87 0001140F ?build@LODBucket@StaticGeometry@Ogre@@QAEX_N@Z
       3465  D88 0001B23E ?build@MaterialBucket@InstancedGeometry@Ogre@@QAEXXZ
       3466  D89 0003A5F8 ?build@MaterialBucket@StaticGeometry@Ogre@@QAEX_N@Z
       3467  D8A 00015ED8 ?build@PatchSurface@Ogre@@QAEXVHardwareVertexBufferSharedPtr@2@IVHardwareIndexBufferSharedPtr@2@I@Z
       3468  D8B 00012148 ?build@PointListBody@FocusedShadowCameraSetup@Ogre@@QAEXABVConvexBody@3@_N@Z
       3469  D8C 000135A2 ?build@Region@StaticGeometry@Ogre@@QAEX_N@Z
       3470  D8D 00038CBC ?build@StaticGeometry@Ogre@@UAEXXZ
       3471  D8E 00011081 ?build@TangentSpaceCalc@Ogre@@QAE?AUResult@12@W4VertexElementSemantic@2@GG@Z
       3472  D8F 00024366 ?buildAndIncludeDirection@PointListBody@FocusedShadowCameraSetup@Ogre@@QAEXABVConvexBody@3@MABVVector3@3@@Z
       3473  D90 0003F58A ?buildAndSetLightClip@SceneManager@Ogre@@MAE?AW4ClipResult@2@ABV?$HashedVector@PAVLight@Ogre@@@2@@Z
       3474  D91 0002B148 ?buildAndSetScissor@SceneManager@Ogre@@MAE?AW4ClipResult@2@ABV?$HashedVector@PAVLight@Ogre@@@2@PBVCamera@2@@Z
       3475  D92 0003C88A ?buildConstantDefinitions@UnifiedHighLevelGpuProgram@Ogre@@MBEXXZ
       3476  D93 0001DB5B ?buildEdgeList@Mesh@Ogre@@QAEXXZ
       3477  D94 00023C59 ?buildFrom@BaseInstanceBatchVTF@Ogre@@UAEXPBVSubMesh@2@ABVRenderOperation@2@@Z
       3478  D95 0001658B ?buildFrom@InstanceBatch@Ogre@@UAEXPBVSubMesh@2@ABVRenderOperation@2@@Z
       3479  D96 00025E6E ?buildFrom@InstanceBatchHW@Ogre@@UAEXPBVSubMesh@2@ABVRenderOperation@2@@Z
       3480  D97 00003251 ?buildFrom@InstanceBatchShader@Ogre@@UAEXPBVSubMesh@2@ABVRenderOperation@2@@Z
       3481  D98 0003CC59 ?buildFrustumProjection@LiSPSMShadowCameraSetup@Ogre@@IBE?AVMatrix4@2@MMMMMM@Z
       3482  D99 0001CA49 ?buildIndexMap@Mesh@Ogre@@IAEXABV?$multimap@IUVertexBoneAssignment_s@Ogre@@U?$less@I@std@@V?$STLAllocator@U?$pair@$$CBIUVertexBoneAssignment_s@Ogre@@@std@@V?$CategorisedAllocPolicy@$0A@@Ogre@@@2@@std@@AAV?$vector@GV?$STLAllocator@GV?$CategorisedAllocPolicy@$0A@@Ogre@@@Ogre@@@4@1@Z
       3483  D9A 00036FCA ?buildInterpolationSplines@NodeAnimationTrack@Ogre@@MBEXXZ
       3484  D9B 0003272C ?buildKeyFrameTimeList@Animation@Ogre@@IBEXXZ
       3485  D9C 00012DA0 ?buildLightClip@SceneManager@Ogre@@MAEXPBVLight@2@AAV?$vector@VPlane@Ogre@@V?$STLAllocator@VPlane@Ogre@@V?$CategorisedAllocPolicy@$0A@@2@@2@@std@@@Z
       3486  D9D 00007397 ?buildNewBatch@InstanceManager@Ogre@@AAEPAVInstanceBatch@2@ABV?$basic_string@DU?$char_traits@D@std@@V?$allocator@D@2@@std@@_N@Z
       3487  D9E 0003775E ?buildReflectionMatrix@Math@Ogre@@SA?AVMatrix4@2@ABVPlane@2@@Z
       3488  D9F 00005196 ?buildScissor@SceneManager@Ogre@@MAEXPBVLight@2@PBVCamera@2@AAU?$TRect@M@2@@Z
       3489  DA0 0001BD3D ?buildSubEntityList@Entity@Ogre@@IAEXAAV?$SharedPtr@VMesh@Ogre@@@2@PAV?$vector@PAVSubEntity@Ogre@@V?$STLAllocator@PAVSubEntity@Ogre@@V?$CategorisedAllocPolicy@$0A@@2@@2@@std@@@Z
       3490  DA1 00009AE3 ?buildTangentVectors@Mesh@Ogre@@QAEXW4VertexElementSemantic@2@GG_N11@Z
       3491  DA2 00003A5D ?buildTrianglesEdges@EdgeListBuilder@Ogre@@IAEXABUGeometry@12@@Z
       3492  DA3 0001DA8E ?buildTrigTables@Math@Ogre@@IAEXXZ
       3493  DA4 0003FBB6 ?buildViewMatrix@FocusedShadowCameraSetup@Ogre@@IBE?AVMatrix4@2@ABVVector3@2@00@Z
       3494  DA5 0002C7C3 ?bulkPixelConversion@PixelUtil@Ogre@@SAXABVPixelBox@2@0@Z
       3495  DA6 0003EF18 ?bulkPixelConversion@PixelUtil@Ogre@@SAXPAXW4PixelFormat@2@01I@Z
       3496  DA7 0002B8F0 ?bulkPixelVerticalFlip@PixelUtil@Ogre@@SAXABVPixelBox@2@@Z
       3497  DA8 0002FCFC ?c_str@UTFString@Ogre@@QBEPBGXZ
       3498  DA9 00033ECE ?cacheBoneMatrices@Entity@Ogre@@IAE_NXZ
       3499  DAA 0002C976 ?calcAnimationSize@SkeletonSerializer@Ogre@@IAEIPBVSkeleton@2@PBVAnimation@2@W4SkeletonVersion@2@@Z
       3500  DAB 00026BA7 ?calcAnimationTrackSize@SkeletonSerializer@Ogre@@IAEIPBVSkeleton@2@PBVNodeAnimationTrack@2@@Z
       3501  DAC 0002DA8D ?calcBoneParentSize@SkeletonSerializer@Ogre@@IAEIPBVSkeleton@2@@Z
       3502  DAD 00017EAE ?calcBoneSize@SkeletonSerializer@Ogre@@IAEIPBVSkeleton@2@PBVBone@2@@Z
       3503  DAE 00015FBE ?calcBoneSizeWithoutScale@SkeletonSerializer@Ogre@@IAEIPBVSkeleton@2@PBVBone@2@@Z
       3504  DAF 0000145B ?calcChunkHeaderSize@Serializer@Ogre@@MAEIXZ
       3505  DB0 000207C0 ?calcKeyFrameSize@SkeletonSerializer@Ogre@@IAEIPBVSkeleton@2@PBVTransformKeyFrame@2@@Z
       3506  DB1 0000E237 ?calcKeyFrameSizeWithoutScale@SkeletonSerializer@Ogre@@IAEIPBVSkeleton@2@PBVTransformKeyFrame@2@@Z
       3507  DB2 0001B874 ?calcProjectionParameters@Frustum@Ogre@@MBEXAAM000@Z
       3508  DB3 000265F8 ?calcSkeletonAnimationLinkSize@SkeletonSerializer@Ogre@@IAEIPBVSkeleton@2@ABULinkedSkeletonAnimationSource@2@@Z
       3509  DB4 0001CB16 ?calcStringSize@Serializer@Ogre@@IAEIABV?$basic_string@DU?$char_traits@D@std@@V?$allocator@D@2@@std@@@Z
       3510  DB5 00022787 ?calcVertexProcessing@Entity@Ogre@@IAE_NXZ
       3511  DB6 0003D09B ?calcViewMatrixRelative@Frustum@Ogre@@UBEXABVVector3@2@AAVMatrix4@2@@Z
       3512  DB7 0000EAFC ?calculate@AnimationControllerFunction@Ogre@@UAEMM@Z
       3513  DB8 000241DB ?calculate@LinearControllerFunction@Ogre@@UAEMM@Z
       3514  DB9 00006906 ?calculate@PassthroughControllerFunction@Ogre@@UAEMM@Z
       3515  DBA 000327DB ?calculate@ScaleControllerFunction@Ogre@@UAEMM@Z
       3516  DBB 0001A06E ?calculate@WaveformControllerFunction@Ogre@@UAEMM@Z
       3517  DBC 0003D267 ?calculateAngleWeight@TangentSpaceCalc@Ogre@@IAEMIII@Z
       3518  DBD 00031507 ?calculateB@FocusedShadowCameraSetup@Ogre@@IBEXABVSceneManager@2@ABVCamera@2@ABVLight@2@ABVAxisAlignedBox@2@3PAVPointListBody@12@@Z
       3519  DBE 0003A936 ?calculateBasicFaceNormal@Math@Ogre@@SA?AVVector3@2@ABV32@00@Z
       3520  DBF 00039072 ?calculateBasicFaceNormalWithoutNormalize@Math@Ogre@@SA?AVVector3@2@ABV32@00@Z
       3521  DC0 00001C5D ?calculateBounds@InstancedGeometry@Ogre@@MAE?AVAxisAlignedBox@2@PAVVertexData@2@ABVVector3@2@ABVQuaternion@2@1@Z
       3522  DC1 00021788 ?calculateBounds@StaticGeometry@Ogre@@MAE?AVAxisAlignedBox@2@PAVVertexData@2@ABVVector3@2@ABVQuaternion@2@1@Z
       3523  DC2 0001FBCC ?calculateChecksum@StreamSerialiser@Ogre@@MAEIPAUChunk@12@@Z
       3524  DC3 00039478 ?calculateEventTime@Root@Ogre@@IAEMKW4FrameEventTimeType@12@@Z
       3525  DC4 0001DD9A ?calculateFaceNormal@Math@Ogre@@SA?AVVector4@2@ABVVector3@2@00@Z
       3526  DC5 000207A7 ?calculateFaceNormalWithoutNormalize@Math@Ogre@@SA?AVVector4@2@ABVVector3@2@00@Z
       3527  DC6 000012CB ?calculateFaceTangentSpace@TangentSpaceCalc@Ogre@@IAEXPBIAAVVector3@2@11@Z
       3528  DC7 0001E632 ?calculateLVS@FocusedShadowCameraSetup@Ogre@@IBEXABVSceneManager@2@ABVCamera@2@ABVLight@2@ABVAxisAlignedBox@2@PAVPointListBody@12@@Z
       3529  DC8 0001D0AC ?calculateLiSPSM@LiSPSMShadowCameraSetup@Ogre@@IBE?AVMatrix4@2@ABV32@ABVPointListBody@FocusedShadowCameraSetup@2@1ABVSceneManager@2@ABVCamera@2@ABVLight@2@@Z
       3530  DC9 000130ED ?calculateMaxNumInstances@InstanceBatchHW@Ogre@@UBEIPBVSubMesh@2@G@Z
       3531  DCA 00012035 ?calculateMaxNumInstances@InstanceBatchHW_VTF@Ogre@@UBEIPBVSubMesh@2@G@Z
       3532  DCB 0002BBDE ?calculateMaxNumInstances@InstanceBatchShader@Ogre@@UBEIPBVSubMesh@2@G@Z
       3533  DCC 0001846C ?calculateMaxNumInstances@InstanceBatchVTF@Ogre@@UBEIPBVSubMesh@2@G@Z
       3534  DCD 00020B2B ?calculateNOpt@LiSPSMShadowCameraSetup@Ogre@@IBEMABVMatrix4@2@ABVAxisAlignedBox@2@ABVPointListBody@FocusedShadowCameraSetup@2@ABVCamera@2@@Z
       3535  DCE 00022CD2 ?calculateNOptSimple@LiSPSMShadowCameraSetup@Ogre@@IBEMABVPointListBody@FocusedShadowCameraSetup@2@ABVCamera@2@@Z
       3536  DCF 0001C193 ?calculateParity@TangentSpaceCalc@Ogre@@IAEHABVVector3@2@00@Z
       3537  DD0 000118E2 ?calculateShadowMappingMatrix@FocusedShadowCameraSetup@Ogre@@IBEXABVSceneManager@2@ABVCamera@2@ABVLight@2@PAVMatrix4@2@3PAV42@@Z
       3538  DD1 0001FB2C ?calculateSize@Compositor@Ogre@@MBEIXZ
       3539  DD2 0000FFA6 ?calculateSize@GpuNamedConstants@Ogre@@QBEIXZ
       3540  DD3 0002DEC5 ?calculateSize@GpuProgram@Ogre@@UBEIXZ
       3541  DD4 0001AEE7 ?calculateSize@GpuProgramParameters@Ogre@@QBEIXZ
       3542  DD5 0000927D ?calculateSize@GpuProgramUsage@Ogre@@QBEIXZ
       3543  DD6 000092D7 ?calculateSize@GpuSharedParameters@Ogre@@QBEIXZ
       3544  DD7 0003D3A7 ?calculateSize@HighLevelGpuProgram@Ogre@@UBEIXZ
       3545  DD8 00014FF6 ?calculateSize@Image@Ogre@@SAIIIIIIW4PixelFormat@2@@Z
       3546  DD9 0001B379 ?calculateSize@Material@Ogre@@MBEIXZ
       3547  DDA 00030B93 ?calculateSize@Mesh@Ogre@@MBEIXZ
       3548  DDB 0001F15E ?calculateSize@Pass@Ogre@@QBEIXZ
       3549  DDC 000018A7 ?calculateSize@RenderSystemCapabilities@Ogre@@UBEIXZ
       3550  DDD 0002B7B0 ?calculateSize@Resource@Ogre@@UBEIXZ
       3551  DDE 0001B2A2 ?calculateSize@Skeleton@Ogre@@MBEIXZ
       3552  DDF 00027D27 ?calculateSize@Technique@Ogre@@QBEIXZ
       3553  DE0 00035B20 ?calculateSize@Texture@Ogre@@MBEIXZ
       3554  DE1 0002BD64 ?calculateSize@TextureUnitState@Ogre@@QBEIXZ
       3555  DE2 0002263D ?calculateSize@UnifiedHighLevelGpuProgram@Ogre@@UBEIXZ
       3556  DE3 00011E2D ?calculateSplitPoints@PSSMShadowCameraSetup@Ogre@@QAEXIMMM@Z
       3557  DE4 00019B32 ?calculateTangentSpaceVector@Math@Ogre@@SA?AVVector3@2@ABV32@00MMMMMM@Z
       3558  DE5 00037B0F ?calculateZ0_ls@LiSPSMShadowCameraSetup@Ogre@@IBE?AVVector3@2@ABVMatrix4@2@ABV32@MABVCamera@2@@Z
       3559  DE6 00036F84 ?callSetBoolMethod@RenderSystemCapabilitiesSerializer@Ogre@@IAEXAAV?$basic_string@DU?$char_traits@D@std@@V?$allocator@D@2@@std@@_N@Z
       3560  DE7 0001CC42 ?callSetIntMethod@RenderSystemCapabilitiesSerializer@Ogre@@IAEXAAV?$basic_string@DU?$char_traits@D@std@@V?$allocator@D@2@@std@@G@Z
       3561  DE8 00038172 ?callSetRealMethod@RenderSystemCapabilitiesSerializer@Ogre@@IAEXAAV?$basic_string@DU?$char_traits@D@std@@V?$allocator@D@2@@std@@M@Z
       3562  DE9 00019614 ?callSetStringMethod@RenderSystemCapabilitiesSerializer@Ogre@@IAEXAAV?$basic_string@DU?$char_traits@D@std@@V?$allocator@D@2@@std@@0@Z
       3563  DEA 00008FB7 ?cameraDestroyed@Listener@Camera@Ogre@@UAEXPAV23@@Z
       3564  DEB 0001DCA0 ?cameraPostRenderScene@Listener@Camera@Ogre@@UAEXPAV23@@Z
       3565  DEC 0001B928 ?cameraPreRenderScene@Listener@Camera@Ogre@@UAEXPAV23@@Z
       3566  DED 00019C95 ?canGetCompiledShaderBuffer@GpuProgramManager@Ogre@@QAE_NXZ
       3567  DEE 00014619 ?canHandleRequest@RequestHandler@WorkQueue@Ogre@@UAE_NPBVRequest@23@PBV23@@Z
       3568  DEF 0002960E ?canHandleRequest@ResourceBackgroundQueue@Ogre@@UAE_NPBVRequest@WorkQueue@2@PBV42@@Z
       3569  DF0 0001E1E1 ?canHandleResponse@ResourceBackgroundQueue@Ogre@@UAE_NPBUResponse@WorkQueue@2@PBV42@@Z
       3570  DF1 00001E38 ?canHandleResponse@ResponseHandler@WorkQueue@Ogre@@UAE_NPBUResponse@23@PBV23@@Z
       3571  DF2 0003EAFE ?cancelUpdate@Node@Ogre@@UAEXPAV12@@Z
       3572  DF3 0001B905 ?capacity@UTFString@Ogre@@QBEIXZ
       3573  DF4 0000BB40 ?changeEnableState@ProfileSessionListener@Ogre@@UAEX_N@Z
       3574  DF5 000214FE ?changeEnableState@Profiler@Ogre@@IAEXXZ
       3575  DF6 00036714 ?changeGroupOwnership@Resource@Ogre@@UAEXABV?$basic_string@DU?$char_traits@D@std@@V?$allocator@D@2@@std@@@Z
       3576  DF7 00027A11 ?checkCachedLightClippingInfo@SceneManager@Ogre@@MAEX_N@Z
       3577  DF8 0003AFEE ?checkGPURules@Technique@Ogre@@QAE_NAAV?$basic_stringstream@DU?$char_traits@D@std@@V?$allocator@D@2@@std@@@Z
       3578  DF9 0003873A ?checkHardwareSupport@Technique@Ogre@@QAE_N_NAAV?$basic_stringstream@DU?$char_traits@D@std@@V?$allocator@D@2@@std@@@Z
       3579  DFA 00018C3C ?checkIfVertexInstanceDataIsSupported@HardwareVertexBuffer@Ogre@@MAE_NXZ
       3580  DFB 00039B62 ?checkManuallyOrganisedIlluminationPasses@Technique@Ogre@@IAE_NXZ
       3581  DFC 0000B622 ?checkStream@StreamSerialiser@Ogre@@MBEX_N00@Z
       3582  DFD 0003C51F ?checkSubMeshCompatibility@InstanceBatch@Ogre@@MAE_NPBVSubMesh@2@@Z
       3583  DFE 000351ED ?checkSubMeshCompatibility@InstanceBatchHW@Ogre@@EAE_NPBVSubMesh@2@@Z
       3584  DFF 00003CE7 ?checkSubMeshCompatibility@InstanceBatchHW_VTF@Ogre@@MAE_NPBVSubMesh@2@@Z
       3585  E00 00014259 ?checkUsage@ResourceManager@Ogre@@MAEXXZ
       3586  E01 000087A6 ?checkZzipError@ZipArchive@Ogre@@IBEXHABV?$basic_string@DU?$char_traits@D@std@@V?$allocator@D@2@@std@@@Z
       3587  E02 00017625 ?checkoutTempCopies@TempBlendedBufferInfo@Ogre@@QAEX_N0@Z
       3588  E03 000313CC ?chooseDelegate@UnifiedHighLevelGpuProgram@Ogre@@IBEXXZ
       3589  E04 00025347 ?chooseVertexDataForBinding@Entity@Ogre@@QAE?AW4VertexDataBindChoice@12@_N@Z
       3590  E05 0002217E ?cleanupDictionary@StringInterface@Ogre@@SAXXZ
       3591  E06 00039CF2 ?cleanupEmptyBatches@InstanceManager@Ogre@@QAEXXZ
       3592  E07 0002593C ?clear@?$Pool@V?$SharedPtr@VResource@Ogre@@@Ogre@@@Ogre@@UAEXXZ
       3593  E08 00033D75 ?clear@BillboardSet@Ogre@@UAEXXZ
       3594  E09 0003EF72 ?clear@ConfigFile@Ogre@@QAEXXZ
       3595  E0A 0003EF6D ?clear@ManualObject@Ogre@@UAEXXZ
       3596  E0B 00001230 ?clear@ParticleSystem@Ogre@@QAEXXZ
       3597  E0C 00009444 ?clear@QueuedRenderableCollection@Ogre@@QAEXXZ
       3598  E0D 000123EB ?clear@RenderPriorityGroup@Ogre@@QAEXXZ
       3599  E0E 0000E250 ?clear@RenderQueue@Ogre@@QAEX_N@Z
       3600  E0F 00034E7D ?clear@RenderQueueGroup@Ogre@@QAEX_N@Z
       3601  E10 0000F4FC ?clear@RenderQueueInvocationSequence@Ogre@@QAEXXZ
       3602  E11 000343FB ?clear@ResourcePool@ResourceManager@Ogre@@UAEXXZ
       3603  E12 00024A69 ?clear@RotationalSpline@Ogre@@QAEXXZ
       3604  E13 00039720 ?clear@ShadowTextureManager@Ogre@@UAEXXZ
       3605  E14 00038A5F ?clear@SimpleSpline@Ogre@@QAEXXZ
       3606  E15 00022462 ?clear@TangentSpaceCalc@Ogre@@QAEXXZ
       3607  E16 00014786 ?clear@UTFString@Ogre@@QAEXXZ
       3608  E17 0002C6EC ?clear@UserObjectBindings@Ogre@@QBEXXZ
       3609  E18 0001496B ?clear@Viewport@Ogre@@QAEXIABVColourValue@2@MG@Z
       3610  E19 00013A39 ?clearAllChains@BillboardChain@Ogre@@UAEXXZ
       3611  E1A 000179C7 ?clearAllInputs@CompositionPass@Ogre@@QAEXXZ
       3612  E1B 0002EC0D ?clearAutoConstant@GpuProgramParameters@Ogre@@QAEXI@Z
       3613  E1C 000249B5 ?clearAutoConstants@GpuProgramParameters@Ogre@@QAEXXZ
       3614  E1D 0003E7C5 ?clearBestTechniqueList@Material@Ogre@@IAEXXZ
       3615  E1E 00037AA1 ?clearBoneAssignments@Mesh@Ogre@@QAEXXZ
       3616  E1F 00029929 ?clearBoneAssignments@SubMesh@Ogre@@QAEXXZ
       3617  E20 0002B436 ?clearChain@BillboardChain@Ogre@@UAEXI@Z
       3618  E21 0000573B ?clearChain@RibbonTrail@Ogre@@UAEXI@Z
       3619  E22 000288DA ?clearCompiledState@CompositorChain@Ogre@@IAEXXZ
       3620  E23 00038E7E ?clearControllers@ControllerManager@Ogre@@QAEXXZ
       3621  E24 000120DA ?clearDelegatePrograms@UnifiedHighLevelGpuProgram@Ogre@@QAEXXZ
       3622  E25 0001F80C ?clearDirtyHashList@Pass@Ogre@@SAXXZ
       3623  E26 0000E22D ?clearEventTimes@Root@Ogre@@QAEXXZ
       3624  E27 00016630 ?clearIlluminationPasses@Technique@Ogre@@IAEXXZ
       3625  E28 00005C77 ?clearNamedAutoConstant@GpuProgramParameters@Ogre@@QAEXABV?$basic_string@DU?$char_traits@D@std@@V?$allocator@D@2@@std@@@Z
       3626  E29 0003D35C ?clearQueue@MaterialSerializer@Ogre@@QAEXXZ
       3627  E2A 0002C449 ?clearResourceGroup@ResourceGroupManager@Ogre@@QAEXABV?$basic_string@DU?$char_traits@D@std@@V?$allocator@D@2@@std@@@Z
       3628  E2B 0002C656 ?clearResults@IntersectionSceneQuery@Ogre@@UAEXXZ
       3629  E2C 000300CB ?clearResults@RaySceneQuery@Ogre@@UAEXXZ
       3630  E2D 00018237 ?clearResults@RegionSceneQuery@Ogre@@UAEXXZ
       3631  E2E 0002E514 ?clearScene@SceneManager@Ogre@@UAEXXZ
       3632  E2F 0000FFC9 ?clearShadowRenderableList@ShadowCaster@Ogre@@SAXAAV?$vector@PAVShadowRenderable@Ogre@@V?$STLAllocator@PAVShadowRenderable@Ogre@@V?$CategorisedAllocPolicy@$0A@@2@@2@@std@@@Z
       3633  E30 0002AA4F ?clearSpecialCaseRenderQueues@SceneManager@Ogre@@UAEXXZ
       3634  E31 00004D3B ?clearTranslatorManagers@ScriptCompilerManager@Ogre@@QAEXXZ
       3635  E32 0000DF8A ?clearUnused@ShadowTextureManager@Ogre@@UAEXXZ
       3636  E33 00015B6D ?clearVertices@Pose@Ogre@@QAEXXZ
       3637  E34 0003EDFB ?clip@ConvexBody@Ogre@@QAEXABV12@@Z
       3638  E35 0002739F ?clip@ConvexBody@Ogre@@QAEXABVAxisAlignedBox@2@@Z
       3639  E36 0001FB90 ?clip@ConvexBody@Ogre@@QAEXABVFrustum@2@@Z
       3640  E37 0001E560 ?clip@ConvexBody@Ogre@@QAEXABVPlane@2@_N@Z
       3641  E38 0000CB03 ?clone@Animation@Ogre@@QBEPAV12@ABV?$basic_string@DU?$char_traits@D@std@@V?$allocator@D@2@@std@@@Z
       3642  E39 00027066 ?clone@AtomAbstractNode@Ogre@@UBEPAVAbstractNode@2@XZ
       3643  E3A 0000E282 ?clone@EdgeData@Ogre@@QAEPAV12@XZ
       3644  E3B 0002BC88 ?clone@Entity@Ogre@@QBEPAV12@ABV?$basic_string@DU?$char_traits@D@std@@V?$allocator@D@2@@std@@@Z
       3645  E3C 0003B732 ?clone@ImportAbstractNode@Ogre@@UBEPAVAbstractNode@2@XZ
       3646  E3D 0001B0C2 ?clone@IndexData@Ogre@@QBEPAV12@_NPAVHardwareBufferManagerBase@2@@Z
       3647  E3E 00029B63 ?clone@Material@Ogre@@QBE?AV?$SharedPtr@VMaterial@Ogre@@@2@ABV?$basic_string@DU?$char_traits@D@std@@V?$allocator@D@2@@std@@_N0@Z
       3648  E3F 0001C229 ?clone@Mesh@Ogre@@QAE?AV?$SharedPtr@VMesh@Ogre@@@2@ABV?$basic_string@DU?$char_traits@D@std@@V?$allocator@D@2@@std@@0@Z
       3649  E40 000088D7 ?clone@ObjectAbstractNode@Ogre@@UBEPAVAbstractNode@2@XZ
       3650  E41 00011F1D ?clone@Pose@Ogre@@QBEPAV12@XZ
       3651  E42 0002A79D ?clone@PropertyAbstractNode@Ogre@@UBEPAVAbstractNode@2@XZ
       3652  E43 0001E029 ?clone@SubMesh@Ogre@@QAEPAV12@ABV?$basic_string@DU?$char_traits@D@std@@V?$allocator@D@2@@std@@PAVMesh@2@@Z
       3653  E44 0002C42B ?clone@VariableAccessAbstractNode@Ogre@@UBEPAVAbstractNode@2@XZ
       3654  E45 00022CAF ?clone@VertexData@Ogre@@QBEPAV12@_NPAVHardwareBufferManagerBase@2@@Z
       3655  E46 0000675D ?clone@VertexDeclaration@Ogre@@UBEPAV12@PAVHardwareBufferManagerBase@2@@Z
       3656  E47 0003616A ?cloneBoneAndChildren@SkeletonInstance@Ogre@@IAEXPAVBone@2@0@Z
       3657  E48 00003C5B ?cloneMaterial@BaseInstanceBatchVTF@Ogre@@IAEXABV?$SharedPtr@VMaterial@Ogre@@@2@@Z
       3658  E49 0000CA18 ?cloneVertexDataRemoveBlendInfo@Entity@Ogre@@IAEPAVVertexData@2@PBV32@@Z
       3659  E4A 0000BC2B ?close@DeflateStream@Ogre@@UAEXXZ
       3660  E4B 00008BE8 ?close@FileHandleDataStream@Ogre@@UAEXXZ
       3661  E4C 00011A6D ?close@FileStreamDataStream@Ogre@@UAEXXZ
       3662  E4D 0002CA6B ?close@MemoryDataStream@Ogre@@UAEXXZ
       3663  E4E 0002DBA5 ?closeGaps@VertexBufferBinding@Ogre@@UAEXAAV?$map@GGU?$less@G@std@@V?$STLAllocator@U?$pair@$$CBGG@std@@V?$CategorisedAllocPolicy@$0A@@Ogre@@@Ogre@@@std@@@Z
       3664  E4F 00009B33 ?closeGapsInBindings@VertexData@Ogre@@QAEXXZ
       3665  E50 00039FB8 ?closeGapsInSource@VertexDeclaration@Ogre@@QAEXXZ
       3666  E51 00021477 ?collectPasses@CompositorInstance@Ogre@@EAEXAAVTargetOperation@12@PAVCompositionTargetPass@2@@Z
       3667  E52 000224D5 ?colour@ManualObject@Ogre@@UAEXABVColourValue@2@@Z
       3668  E53 0001AD2F ?colour@ManualObject@Ogre@@UAEXMMMM@Z
       3669  E54 000051EB ?combineTwoImagesAsRGBA@Image@Ogre@@QAEAAV12@ABV12@0W4PixelFormat@2@@Z
       3670  E55 0002141D ?compare@UTFString@Ogre@@QBEHABV12@@Z
       3671  E56 0003020B ?compare@UTFString@Ogre@@QBEHIIABV12@@Z
       3672  E57 00017A5D ?compare@UTFString@Ogre@@QBEHIIABV12@II@Z
       3673  E58 000143C6 ?compare@UTFString@Ogre@@QBEHIIPBDI@Z
       3674  E59 000144C0 ?compare@UTFString@Ogre@@QBEHIIPBGI@Z
       3675  E5A 00018A39 ?compare@UTFString@Ogre@@QBEHIIPB_WI@Z
       3676  E5B 000277CD ?compare@UTFString@Ogre@@QBEHPBG@Z
       3677  E5C 0001C5B2 ?compile@Compositor@Ogre@@IAEXXZ
       3678  E5D 00001D93 ?compile@Material@Ogre@@QAEX_N@Z
       3679  E5E 0003826C ?compile@ScriptCompiler@Ogre@@QAE_NABV?$SharedPtr@V?$list@V?$SharedPtr@UConcreteNode@Ogre@@@Ogre@@V?$STLAllocator@V?$SharedPtr@UConcreteNode@Ogre@@@Ogre@@V?$CategorisedAllocPolicy@$0A@@2@@2@@std@@@2@ABV?$basic_string@DU?$char_traits@D@std@@V?$allocator@D@2@@std@@@Z
       3680  E5F 00001357 ?compile@ScriptCompiler@Ogre@@QAE_NABV?$basic_string@DU?$char_traits@D@std@@V?$allocator@D@2@@std@@00@Z
       3681  E60 00017A12 ?compileBoneAssignments@Mesh@Ogre@@IAEXABV?$multimap@IUVertexBoneAssignment_s@Ogre@@U?$less@I@std@@V?$STLAllocator@U?$pair@$$CBIUVertexBoneAssignment_s@Ogre@@@std@@V?$CategorisedAllocPolicy@$0A@@Ogre@@@2@@std@@GAAV?$vector@GV?$STLAllocator@GV?$CategorisedAllocPolicy@$0A@@Ogre@@@Ogre@@@4@PAVVertexData@2@@Z
       3682  E61 0000B339 ?compositorInstanceCreated@CompositorLogic@Ogre@@UAEXPAVCompositorInstance@2@@Z
       3683  E62 0002F7D9 ?compositorInstanceDestroyed@CompositorLogic@Ogre@@UAEXPAVCompositorInstance@2@@Z
       3684  E63 0002B23D ?compressFinal@DeflateStream@Ogre@@IAEXXZ
       3685  E64 0000AC3B ?computeConstrainedProjection@PlaneOptimalShadowCameraSetup@Ogre@@ABE?AVMatrix4@2@ABVVector4@2@ABV?$vector@VVector4@Ogre@@V?$STLAllocator@VVector4@Ogre@@V?$CategorisedAllocPolicy@$0A@@2@@2@@std@@ABV?$vector@VVector2@Ogre@@V?$STLAllocator@VVector2@Ogre@@V?$CategorisedAllocPolicy@$0A@@2@@2@@6@@Z
       3686  E65 00005817 ?concatenate@Matrix4@Ogre@@QBE?AV12@ABV12@@Z
       3687  E66 0003DEF1 ?concatenateAffine@Matrix4@Ogre@@QBE?AV12@ABV12@@Z
       3688  E67 0001DD68 ?configureRenderer@ParticleSystem@Ogre@@IAEXXZ
       3689  E68 0000F885 ?connectOrCreateEdge@EdgeListBuilder@Ogre@@IAEXIIIIII@Z
       3690  E69 000361A1 ?contains@AxisAlignedBox@Ogre@@QBE_NABV12@@Z
       3691  E6A 0003973E ?contains@AxisAlignedBox@Ogre@@QBE_NABVVector3@2@@Z
       3692  E6B 0003F2D3 ?convert3x4MatricesToDualQuaternions@BaseInstanceBatchVTF@Ogre@@IAEIPAMI0@Z
       3693  E6C 000323B2 ?convertColourValue@RenderSystem@Ogre@@UAEXABVColourValue@2@PAI@Z
       3694  E6D 0003DAF5 ?convertColourValue@Root@Ogre@@QAEXABVColourValue@2@PAI@Z
       3695  E6E 0001B22F ?convertColourValue@VertexElement@Ogre@@SAIABVColourValue@2@W4VertexElementType@2@@Z
       3696  E6F 000257B1 ?convertColourValue@VertexElement@Ogre@@SAXW4VertexElementType@2@0PAI@Z
       3697  E70 0002FA54 ?convertDXToOgreFormat@DDSCodec@Ogre@@ABE?AW4PixelFormat@2@I@Z
       3698  E71 0002A80B ?convertFiltering@MaterialSerializer@Ogre@@IAE?AV?$basic_string@DU?$char_traits@D@std@@V?$allocator@D@2@@std@@W4FilterOptions@2@@Z
       3699  E72 00027F6B ?convertFourCCFormat@DDSCodec@Ogre@@ABE?AW4PixelFormat@2@I@Z
       3700  E73 0000EDEA ?convertLocalToWorldDirection@Node@Ogre@@UAE?AVVector3@2@ABV32@_N@Z
       3701  E74 0001DCF5 ?convertLocalToWorldOrientation@Node@Ogre@@UAE?AVQuaternion@2@ABV32@@Z
       3702  E75 00023C0E ?convertLocalToWorldPosition@Node@Ogre@@UAE?AVVector3@2@ABV32@@Z
       3703  E76 0003C05B ?convertPackedColour@VertexData@Ogre@@QAEXW4VertexElementType@2@0@Z
       3704  E77 00022D77 ?convertPixelFormat@DDSCodec@Ogre@@ABE?AW4PixelFormat@2@IIIII@Z
       3705  E78 000211ED ?convertToAST@ScriptCompiler@Ogre@@AAE?AV?$SharedPtr@V?$list@V?$SharedPtr@VAbstractNode@Ogre@@@Ogre@@V?$STLAllocator@V?$SharedPtr@VAbstractNode@Ogre@@@Ogre@@V?$CategorisedAllocPolicy@$0A@@2@@2@@std@@@2@ABV?$SharedPtr@V?$list@V?$SharedPtr@UConcreteNode@Ogre@@@Ogre@@V?$STLAllocator@V?$SharedPtr@UConcreteNode@Ogre@@@Ogre@@V?$CategorisedAllocPolicy@$0A@@2@@2@@std@@@2@@Z
       3706  E79 0003F8AF ?convertToImage@Texture@Ogre@@UAEXAAVImage@2@_N@Z
       3707  E7A 00032853 ?convertToMesh@ManualObject@Ogre@@UAE?AV?$SharedPtr@VMesh@Ogre@@@2@ABV?$basic_string@DU?$char_traits@D@std@@V?$allocator@D@2@@std@@0@Z
       3708  E7B 00014DD0 ?convertWorldToLocalDirection@Node@Ogre@@UAE?AVVector3@2@ABV32@_N@Z
       3709  E7C 0001C7BA ?convertWorldToLocalOrientation@Node@Ogre@@UAE?AVQuaternion@2@ABV32@@Z
       3710  E7D 0003AE22 ?convertWorldToLocalPosition@Node@Ogre@@UAE?AVVector3@2@ABV32@@Z
       3711  E7E 00018EC6 ?copyConstantsFrom@GpuProgramParameters@Ogre@@QAEXABV12@@Z
       3712  E7F 0000C8D8 ?copyContentsToMemory@MultiRenderTarget@Ogre@@UAEXABUBox@2@ABVPixelBox@2@W4FrameBuffer@RenderTarget@2@@Z
       3713  E80 0000CB2B ?copyContentsToMemory@RenderTarget@Ogre@@QAEXABVPixelBox@2@W4FrameBuffer@12@@Z
       3714  E81 0002C606 ?copyContentsToMemory@RenderTexture@Ogre@@UAEXABUBox@2@ABVPixelBox@2@W4FrameBuffer@RenderTarget@2@@Z
       3715  E82 00036534 ?copyData@HardwareBuffer@Ogre@@UAEXAAV12@@Z
       3716  E83 00003EFE ?copyData@HardwareBuffer@Ogre@@UAEXAAV12@III_N@Z
       3717  E84 00037290 ?copyDetailsTo@Material@Ogre@@QBEXAAV?$SharedPtr@VMaterial@Ogre@@@2@@Z
       3718  E85 0002018A ?copyMatchingNamedConstantsFrom@GpuProgramParameters@Ogre@@QAEXABV12@@Z
       3719  E86 0002C2A5 ?copyMatchingState@AnimationStateSet@Ogre@@QBEXPAV12@@Z
       3720  E87 00022A66 ?copyParametersTo@StringInterface@Ogre@@UBEXPAV12@@Z
       3721  E88 00008F71 ?copySharedParamSetUsage@GpuProgramParameters@Ogre@@IAEXABV?$vector@VGpuSharedParametersUsage@Ogre@@V?$STLAllocator@VGpuSharedParametersUsage@Ogre@@V?$CategorisedAllocPolicy@$0A@@2@@2@@std@@@Z
       3722  E89 00016A86 ?copyStateFrom@AnimationState@Ogre@@QAEXABV12@@Z
       3723  E8A 00017DFF ?copyTempVertexToBuffer@ManualObject@Ogre@@MAEXXZ
       3724  E8B 0002B5C1 ?copyToTexture@Texture@Ogre@@UAEXAAV?$SharedPtr@VTexture@Ogre@@@2@@Z
       3725  E8C 000161E9 ?create@Archive@Ogre@@UAE?AV?$SharedPtr@VDataStream@Ogre@@@2@ABV?$basic_string@DU?$char_traits@D@std@@V?$allocator@D@2@@std@@@Z
       3726  E8D 0002142C ?create@CompositorManager@Ogre@@QAE?AV?$SharedPtr@VCompositor@Ogre@@@2@ABV?$basic_string@DU?$char_traits@D@std@@V?$allocator@D@2@@std@@0_NPAVManualResourceLoader@2@PBV?$map@V?$basic_string@DU?$char_traits@D@std@@V?$allocator@D@2@@std@@V12@U?$less@V?$basic_string@DU?$char_traits@D@std@@V?$allocator@D@2@@std@@@2@V?$STLAllocator@U?$pair@$$CBV?$basic_string@DU?$char_traits@D@std@@V?$allocator@D@2@@std@@V12@@std@@V?$CategorisedAllocPolicy@$0A@@Ogre@@@Ogre@@@5@@Z
       3727  E8E 0000AFBF ?create@FileSystemArchive@Ogre@@UAE?AV?$SharedPtr@VDataStream@Ogre@@@2@ABV?$basic_string@DU?$char_traits@D@std@@V?$allocator@D@2@@std@@@Z
       3728  E8F 0001ACAD ?create@GpuProgramManager@Ogre@@UAE?AV?$SharedPtr@VResource@Ogre@@@2@ABV?$basic_string@DU?$char_traits@D@std@@V?$allocator@D@2@@std@@0W4GpuProgramType@2@0_NPAVManualResourceLoader@2@@Z
       3729  E90 000363B3 ?create@MaterialManager@Ogre@@QAE?AV?$SharedPtr@VMaterial@Ogre@@@2@ABV?$basic_string@DU?$char_traits@D@std@@V?$allocator@D@2@@std@@0_NPAVManualResourceLoader@2@PBV?$map@V?$basic_string@DU?$char_traits@D@std@@V?$allocator@D@2@@std@@V12@U?$less@V?$basic_string@DU?$char_traits@D@std@@V?$allocator@D@2@@std@@@2@V?$STLAllocator@U?$pair@$$CBV?$basic_string@DU?$char_traits@D@std@@V?$allocator@D@2@@std@@V12@@std@@V?$CategorisedAllocPolicy@$0A@@Ogre@@@Ogre@@@5@@Z
       3730  E91 0001ECEF ?create@MeshManager@Ogre@@QAE?AV?$SharedPtr@VMesh@Ogre@@@2@ABV?$basic_string@DU?$char_traits@D@std@@V?$allocator@D@2@@std@@0_NPAVManualResourceLoader@2@PBV?$map@V?$basic_string@DU?$char_traits@D@std@@V?$allocator@D@2@@std@@V12@U?$less@V?$basic_string@DU?$char_traits@D@std@@V?$allocator@D@2@@std@@@2@V?$STLAllocator@U?$pair@$$CBV?$basic_string@DU?$char_traits@D@std@@V?$allocator@D@2@@std@@V12@@std@@V?$CategorisedAllocPolicy@$0A@@Ogre@@@Ogre@@@5@@Z
       3731  E92 00030837 ?create@SkeletonManager@Ogre@@QAE?AV?$SharedPtr@VSkeleton@Ogre@@@2@ABV?$basic_string@DU?$char_traits@D@std@@V?$allocator@D@2@@std@@0_NPAVManualResourceLoader@2@PBV?$map@V?$basic_string@DU?$char_traits@D@std@@V?$allocator@D@2@@std@@V12@U?$less@V?$basic_string@DU?$char_traits@D@std@@V?$allocator@D@2@@std@@@2@V?$STLAllocator@U?$pair@$$CBV?$basic_string@DU?$char_traits@D@std@@V?$allocator@D@2@@std@@V12@@std@@V?$CategorisedAllocPolicy@$0A@@Ogre@@@Ogre@@@5@@Z
       3732  E93 00027688 ?create@TextureManager@Ogre@@QAE?AV?$SharedPtr@VTexture@Ogre@@@2@ABV?$basic_string@DU?$char_traits@D@std@@V?$allocator@D@2@@std@@0_NPAVManualResourceLoader@2@PBV?$map@V?$basic_string@DU?$char_traits@D@std@@V?$allocator@D@2@@std@@V12@U?$less@V?$basic_string@DU?$char_traits@D@std@@V?$allocator@D@2@@std@@@2@V?$STLAllocator@U?$pair@$$CBV?$basic_string@DU?$char_traits@D@std@@V?$allocator@D@2@@std@@V12@@std@@V?$CategorisedAllocPolicy@$0A@@Ogre@@@Ogre@@@5@@Z
       3733  E94 000071AD ?create@ZipArchive@Ogre@@UAE?AV?$SharedPtr@VDataStream@Ogre@@@2@ABV?$basic_string@DU?$char_traits@D@std@@V?$allocator@D@2@@std@@@Z
       3734  E95 0002B89B ?createAABBQuery@SceneManager@Ogre@@UAEPAVAxisAlignedBoxSceneQuery@2@ABVAxisAlignedBox@2@I@Z
       3735  E96 000276BA ?createAllInstancedEntities@InstanceBatch@Ogre@@MAEXXZ
       3736  E97 00027ADE ?createAnimController@TextureUnitState@Ogre@@IAEXXZ
       3737  E98 0001CBAC ?createAnimableDictionary@AnimableObject@Ogre@@IBEXXZ
       3738  E99 0000E98A ?createAnimableValue@AnimableObject@Ogre@@UAE?AV?$SharedPtr@VAnimableValue@Ogre@@@2@ABV?$basic_string@DU?$char_traits@D@std@@V?$allocator@D@2@@std@@@Z
       3739  E9A 00012BC0 ?createAnimableValue@Light@Ogre@@UAE?AV?$SharedPtr@VAnimableValue@Ogre@@@2@ABV?$basic_string@DU?$char_traits@D@std@@V?$allocator@D@2@@std@@@Z
       3740  E9B 0001ED44 ?createAnimation@Mesh@Ogre@@UAEPAVAnimation@2@ABV?$basic_string@DU?$char_traits@D@std@@V?$allocator@D@2@@std@@M@Z
       3741  E9C 0000C56D ?createAnimation@SceneManager@Ogre@@UAEPAVAnimation@2@ABV?$basic_string@DU?$char_traits@D@std@@V?$allocator@D@2@@std@@M@Z
       3742  E9D 00004EF8 ?createAnimation@Skeleton@Ogre@@UAEPAVAnimation@2@ABV?$basic_string@DU?$char_traits@D@std@@V?$allocator@D@2@@std@@M@Z
       3743  E9E 0002B5DF ?createAnimation@SkeletonInstance@Ogre@@UAEPAVAnimation@2@ABV?$basic_string@DU?$char_traits@D@std@@V?$allocator@D@2@@std@@M@Z
       3744  E9F 0003C3A8 ?createAnimationState@AnimationStateSet@Ogre@@QAEPAVAnimationState@2@ABV?$basic_string@DU?$char_traits@D@std@@V?$allocator@D@2@@std@@MMM_N@Z
       3745  EA0 0003F22E ?createAnimationState@SceneManager@Ogre@@UAEPAVAnimationState@2@ABV?$basic_string@DU?$char_traits@D@std@@V?$allocator@D@2@@std@@@Z
       3746  EA1 00030981 ?createAutoParamDataSource@SceneManager@Ogre@@MBEPAVAutoParamDataSource@2@XZ
       3747  EA2 00025478 ?createBezierPatch@MeshManager@Ogre@@QAE?AV?$SharedPtr@VPatchMesh@Ogre@@@2@ABV?$basic_string@DU?$char_traits@D@std@@V?$allocator@D@2@@std@@0PAXPAVVertexDeclaration@2@IIIIW4VisibleSide@PatchSurface@2@W4Usage@HardwareBuffer@2@4_N5@Z
       3748  EA3 00014876 ?createBillboard@BillboardSet@Ogre@@QAEPAVBillboard@2@ABVVector3@2@ABVColourValue@2@@Z
       3749  EA4 000335FA ?createBillboard@BillboardSet@Ogre@@QAEPAVBillboard@2@MMMABVColourValue@2@@Z
       3750  EA5 00037123 ?createBillboardChain@SceneManager@Ogre@@UAEPAVBillboardChain@2@ABV?$basic_string@DU?$char_traits@D@std@@V?$allocator@D@2@@std@@@Z
       3751  EA6 000148B7 ?createBillboardChain@SceneManager@Ogre@@UAEPAVBillboardChain@2@XZ
       3752  EA7 00021CFB ?createBillboardSet@SceneManager@Ogre@@UAEPAVBillboardSet@2@ABV?$basic_string@DU?$char_traits@D@std@@V?$allocator@D@2@@std@@I@Z
       3753  EA8 000314A8 ?createBillboardSet@SceneManager@Ogre@@UAEPAVBillboardSet@2@I@Z
       3754  EA9 000062AD ?createBlendMask@AnimationState@Ogre@@QAEXIM@Z
       3755  EAA 000027FC ?createBone@Skeleton@Ogre@@UAEPAVBone@2@ABV?$basic_string@DU?$char_traits@D@std@@V?$allocator@D@2@@std@@@Z
       3756  EAB 000341AD ?createBone@Skeleton@Ogre@@UAEPAVBone@2@ABV?$basic_string@DU?$char_traits@D@std@@V?$allocator@D@2@@std@@G@Z
       3757  EAC 000265CB ?createBone@Skeleton@Ogre@@UAEPAVBone@2@G@Z
       3758  EAD 0001AFEB ?createBone@Skeleton@Ogre@@UAEPAVBone@2@XZ
       3759  EAE 0001F11D ?createCamera@SceneManager@Ogre@@UAEPAVCamera@2@ABV?$basic_string@DU?$char_traits@D@std@@V?$allocator@D@2@@std@@@Z
       3760  EAF 0003B5AC ?createChild@Bone@Ogre@@QAEPAV12@GABVVector3@2@ABVQuaternion@2@@Z
       3761  EB0 0000B8A2 ?createChild@Node@Ogre@@UAEPAV12@ABV?$basic_string@DU?$char_traits@D@std@@V?$allocator@D@2@@std@@ABVVector3@2@ABVQuaternion@2@@Z
       3762  EB1 0000FF24 ?createChild@Node@Ogre@@UAEPAV12@ABVVector3@2@ABVQuaternion@2@@Z
       3763  EB2 000326B9 ?createChildImpl@Bone@Ogre@@MAEPAVNode@2@ABV?$basic_string@DU?$char_traits@D@std@@V?$allocator@D@2@@std@@@Z
       3764  EB3 0000A1D2 ?createChildImpl@Bone@Ogre@@MAEPAVNode@2@XZ
       3765  EB4 0002BB2F ?createChildImpl@SceneNode@Ogre@@MAEPAVNode@2@ABV?$basic_string@DU?$char_traits@D@std@@V?$allocator@D@2@@std@@@Z
       3766  EB5 00026BB6 ?createChildImpl@SceneNode@Ogre@@MAEPAVNode@2@XZ
       3767  EB6 00036E30 ?createChildSceneNode@SceneNode@Ogre@@UAEPAV12@ABV?$basic_string@DU?$char_traits@D@std@@V?$allocator@D@2@@std@@ABVVector3@2@ABVQuaternion@2@@Z
       3768  EB7 000330EB ?createChildSceneNode@SceneNode@Ogre@@UAEPAV12@ABVVector3@2@ABVQuaternion@2@@Z
       3769  EB8 00033366 ?createController@ControllerManager@Ogre@@QAEPAV?$Controller@M@2@ABV?$SharedPtr@V?$ControllerValue@M@Ogre@@@2@0ABV?$SharedPtr@V?$ControllerFunction@M@Ogre@@@2@@Z
       3770  EB9 0003EB3F ?createCounterBuffer@DefaultHardwareBufferManagerBase@Ogre@@UAE?AVHardwareCounterBufferSharedPtr@2@IW4Usage@HardwareBuffer@2@_NABV?$basic_string@DU?$char_traits@D@std@@V?$allocator@D@2@@std@@@Z
       3771  EBA 000347A2 ?createCounterBuffer@HardwareBufferManager@Ogre@@UAE?AVHardwareCounterBufferSharedPtr@2@IW4Usage@HardwareBuffer@2@_NABV?$basic_string@DU?$char_traits@D@std@@V?$allocator@D@2@@std@@@Z
       3772  EBB 00020644 ?createCube@PrefabFactory@Ogre@@CAXPAVMesh@2@@Z
       3773  EBC 00002FEF ?createCurvedIllusionPlane@MeshManager@Ogre@@QAE?AV?$SharedPtr@VMesh@Ogre@@@2@ABV?$basic_string@DU?$char_traits@D@std@@V?$allocator@D@2@@std@@0ABVPlane@2@MMMHH_NGMMABVVector3@2@ABVQuaternion@2@W4Usage@HardwareBuffer@2@522H@Z
       3774  EBD 0001B581 ?createCurvedPlane@MeshManager@Ogre@@QAE?AV?$SharedPtr@VMesh@Ogre@@@2@ABV?$basic_string@DU?$char_traits@D@std@@V?$allocator@D@2@@std@@0ABVPlane@2@MMMHH_NGMMABVVector3@2@W4Usage@HardwareBuffer@2@422@Z
       3775  EBE 0003A03A ?createDeclaredResources@ResourceGroupManager@Ogre@@IAEXPAUResourceGroup@12@@Z
       3776  EBF 0002F55E ?createDirectory@FileSystemLayer@Ogre@@SA_NABV?$basic_string@DU?$char_traits@D@std@@V?$allocator@D@2@@std@@@Z
       3777  EC0 0002D362 ?createEffectController@TextureUnitState@Ogre@@IAEXAAUTextureEffect@12@@Z
       3778  EC1 000304FE ?createEmitterParticle@ParticleSystem@Ogre@@QAEPAVParticle@2@ABV?$basic_string@DU?$char_traits@D@std@@V?$allocator@D@2@@std@@@Z
       3779  EC2 0002F9FF ?createEntity@SceneManager@Ogre@@UAEPAVEntity@2@ABV?$SharedPtr@VMesh@Ogre@@@2@@Z
       3780  EC3 00023CCC ?createEntity@SceneManager@Ogre@@UAEPAVEntity@2@ABV?$basic_string@DU?$char_traits@D@std@@V?$allocator@D@2@@std@@00@Z
       3781  EC4 0002257F ?createEntity@SceneManager@Ogre@@UAEPAVEntity@2@ABV?$basic_string@DU?$char_traits@D@std@@V?$allocator@D@2@@std@@@Z
       3782  EC5 0001D025 ?createEntity@SceneManager@Ogre@@UAEPAVEntity@2@ABV?$basic_string@DU?$char_traits@D@std@@V?$allocator@D@2@@std@@ABV?$SharedPtr@VMesh@Ogre@@@2@@Z
       3783  EC6 0003C533 ?createEntity@SceneManager@Ogre@@UAEPAVEntity@2@ABV?$basic_string@DU?$char_traits@D@std@@V?$allocator@D@2@@std@@W4PrefabType@12@@Z
       3784  EC7 0001CD41 ?createEntity@SceneManager@Ogre@@UAEPAVEntity@2@W4PrefabType@12@@Z
       3785  EC8 0003BF0C ?createFileStream@Root@Ogre@@QAE?AV?$SharedPtr@VDataStream@Ogre@@@2@ABV?$basic_string@DU?$char_traits@D@std@@V?$allocator@D@2@@std@@0_N0@Z
       3786  EC9 00020EDC ?createFrameTimePassthroughController@ControllerManager@Ogre@@QAEPAV?$Controller@M@2@ABV?$SharedPtr@V?$ControllerValue@M@Ogre@@@2@@Z
       3787  ECA 00008EA9 ?createGlobalTextures@Compositor@Ogre@@AAEXXZ
       3788  ECB 00024AA0 ?createGpuProgramTimerParam@ControllerManager@Ogre@@QAEPAV?$Controller@M@2@V?$SharedPtr@VGpuProgramParameters@Ogre@@@2@IM@Z
       3789  ECC 0003A75B ?createImpl@CompositorManager@Ogre@@UAEPAVResource@2@ABV?$basic_string@DU?$char_traits@D@std@@V?$allocator@D@2@@std@@_K0_NPAVManualResourceLoader@2@PBV?$map@V?$basic_string@DU?$char_traits@D@std@@V?$allocator@D@2@@std@@V12@U?$less@V?$basic_string@DU?$char_traits@D@std@@V?$allocator@D@2@@std@@@2@V?$STLAllocator@U?$pair@$$CBV?$basic_string@DU?$char_traits@D@std@@V?$allocator@D@2@@std@@V12@@std@@V?$CategorisedAllocPolicy@$0A@@Ogre@@@Ogre@@@5@@Z
       3790  ECD 00005600 ?createImpl@HighLevelGpuProgramManager@Ogre@@MAEPAVResource@2@ABV?$basic_string@DU?$char_traits@D@std@@V?$allocator@D@2@@std@@_K0_NPAVManualResourceLoader@2@PBV?$map@V?$basic_string@DU?$char_traits@D@std@@V?$allocator@D@2@@std@@V12@U?$less@V?$basic_string@DU?$char_traits@D@std@@V?$allocator@D@2@@std@@@2@V?$STLAllocator@U?$pair@$$CBV?$basic_string@DU?$char_traits@D@std@@V?$allocator@D@2@@std@@V12@@std@@V?$CategorisedAllocPolicy@$0A@@Ogre@@@Ogre@@@5@@Z
       3791  ECE 00013F11 ?createImpl@MaterialManager@Ogre@@MAEPAVResource@2@ABV?$basic_string@DU?$char_traits@D@std@@V?$allocator@D@2@@std@@_K0_NPAVManualResourceLoader@2@PBV?$map@V?$basic_string@DU?$char_traits@D@std@@V?$allocator@D@2@@std@@V12@U?$less@V?$basic_string@DU?$char_traits@D@std@@V?$allocator@D@2@@std@@@2@V?$STLAllocator@U?$pair@$$CBV?$basic_string@DU?$char_traits@D@std@@V?$allocator@D@2@@std@@V12@@std@@V?$CategorisedAllocPolicy@$0A@@Ogre@@@Ogre@@@5@@Z
       3792  ECF 00015573 ?createImpl@MeshManager@Ogre@@MAEPAVResource@2@ABV?$basic_string@DU?$char_traits@D@std@@V?$allocator@D@2@@std@@_K0_NPAVManualResourceLoader@2@PBV?$map@V?$basic_string@DU?$char_traits@D@std@@V?$allocator@D@2@@std@@V12@U?$less@V?$basic_string@DU?$char_traits@D@std@@V?$allocator@D@2@@std@@@2@V?$STLAllocator@U?$pair@$$CBV?$basic_string@DU?$char_traits@D@std@@V?$allocator@D@2@@std@@V12@@std@@V?$CategorisedAllocPolicy@$0A@@Ogre@@@Ogre@@@5@@Z
       3793  ED0 0003D01E ?createImpl@SkeletonManager@Ogre@@MAEPAVResource@2@ABV?$basic_string@DU?$char_traits@D@std@@V?$allocator@D@2@@std@@_K0_NPAVManualResourceLoader@2@PBV?$map@V?$basic_string@DU?$char_traits@D@std@@V?$allocator@D@2@@std@@V12@U?$less@V?$basic_string@DU?$char_traits@D@std@@V?$allocator@D@2@@std@@@2@V?$STLAllocator@U?$pair@$$CBV?$basic_string@DU?$char_traits@D@std@@V?$allocator@D@2@@std@@V12@@std@@V?$CategorisedAllocPolicy@$0A@@Ogre@@@Ogre@@@5@@Z
       3794  ED1 00035963 ?createIndexBuffer@DefaultHardwareBufferManagerBase@Ogre@@UAE?AVHardwareIndexBufferSharedPtr@2@W4IndexType@HardwareIndexBuffer@2@IW4Usage@HardwareBuffer@2@_N@Z
       3795  ED2 0000A961 ?createIndexBuffer@HardwareBufferManager@Ogre@@UAE?AVHardwareIndexBufferSharedPtr@2@W4IndexType@HardwareIndexBuffer@2@IW4Usage@HardwareBuffer@2@_N@Z
       3796  ED3 000146FA ?createInfoForMethod@?$SharedPtr@VHardwareCounterBuffer@Ogre@@@Ogre@@CAPAUSharedPtrInfo@2@PAVHardwareCounterBuffer@2@W4SharedPtrFreeMethod@2@@Z
       3797  ED4 0001CD5A ?createInfoForMethod@?$SharedPtr@VHardwareIndexBuffer@Ogre@@@Ogre@@CAPAUSharedPtrInfo@2@PAVHardwareIndexBuffer@2@W4SharedPtrFreeMethod@2@@Z
       3798  ED5 0001636A ?createInfoForMethod@?$SharedPtr@VHardwarePixelBuffer@Ogre@@@Ogre@@CAPAUSharedPtrInfo@2@PAVHardwarePixelBuffer@2@W4SharedPtrFreeMethod@2@@Z
       3799  ED6 0000ECCD ?createInfoForMethod@?$SharedPtr@VHardwareUniformBuffer@Ogre@@@Ogre@@CAPAUSharedPtrInfo@2@PAVHardwareUniformBuffer@2@W4SharedPtrFreeMethod@2@@Z
       3800  ED7 0002B11B ?createInfoForMethod@?$SharedPtr@VHardwareVertexBuffer@Ogre@@@Ogre@@CAPAUSharedPtrInfo@2@PAVHardwareVertexBuffer@2@W4SharedPtrFreeMethod@2@@Z
       3801  ED8 000263F5 ?createInstance@ArchiveFactory@Ogre@@UAEPAVArchive@2@ABV?$basic_string@DU?$char_traits@D@std@@V?$allocator@D@2@@std@@@Z
       3802  ED9 0003EF45 ?createInstance@BillboardParticleRendererFactory@Ogre@@UAEPAVParticleSystemRenderer@2@ABV?$basic_string@DU?$char_traits@D@std@@V?$allocator@D@2@@std@@@Z
       3803  EDA 0000E47B ?createInstance@DefaultSceneManagerFactory@Ogre@@UAEPAVSceneManager@2@ABV?$basic_string@DU?$char_traits@D@std@@V?$allocator@D@2@@std@@@Z
       3804  EDB 00025883 ?createInstance@EmbeddedZipArchiveFactory@Ogre@@UAEPAVArchive@2@ABV?$basic_string@DU?$char_traits@D@std@@V?$allocator@D@2@@std@@_N@Z
       3805  EDC 0003BBA6 ?createInstance@FileSystemArchiveFactory@Ogre@@UAEPAVArchive@2@ABV?$basic_string@DU?$char_traits@D@std@@V?$allocator@D@2@@std@@_N@Z
       3806  EDD 00016C66 ?createInstance@MovableObjectFactory@Ogre@@UAEPAVMovableObject@2@ABV?$basic_string@DU?$char_traits@D@std@@V?$allocator@D@2@@std@@PAVSceneManager@2@PBV?$map@V?$basic_string@DU?$char_traits@D@std@@V?$allocator@D@2@@std@@V12@U?$less@V?$basic_string@DU?$char_traits@D@std@@V?$allocator@D@2@@std@@@2@V?$STLAllocator@U?$pair@$$CBV?$basic_string@DU?$char_traits@D@std@@V?$allocator@D@2@@std@@V12@@std@@V?$CategorisedAllocPolicy@$0A@@Ogre@@@Ogre@@@5@@Z
       3807  EDE 00035D9B ?createInstanceImpl@BillboardChainFactory@Ogre@@MAEPAVMovableObject@2@ABV?$basic_string@DU?$char_traits@D@std@@V?$allocator@D@2@@std@@PBV?$map@V?$basic_string@DU?$char_traits@D@std@@V?$allocator@D@2@@std@@V12@U?$less@V?$basic_string@DU?$char_traits@D@std@@V?$allocator@D@2@@std@@@2@V?$STLAllocator@U?$pair@$$CBV?$basic_string@DU?$char_traits@D@std@@V?$allocator@D@2@@std@@V12@@std@@V?$CategorisedAllocPolicy@$0A@@Ogre@@@Ogre@@@5@@Z
       3808  EDF 00040057 ?createInstanceImpl@BillboardSetFactory@Ogre@@MAEPAVMovableObject@2@ABV?$basic_string@DU?$char_traits@D@std@@V?$allocator@D@2@@std@@PBV?$map@V?$basic_string@DU?$char_traits@D@std@@V?$allocator@D@2@@std@@V12@U?$less@V?$basic_string@DU?$char_traits@D@std@@V?$allocator@D@2@@std@@@2@V?$STLAllocator@U?$pair@$$CBV?$basic_string@DU?$char_traits@D@std@@V?$allocator@D@2@@std@@V12@@std@@V?$CategorisedAllocPolicy@$0A@@Ogre@@@Ogre@@@5@@Z
       3809  EE0 00033A5F ?createInstanceImpl@EntityFactory@Ogre@@MAEPAVMovableObject@2@ABV?$basic_string@DU?$char_traits@D@std@@V?$allocator@D@2@@std@@PBV?$map@V?$basic_string@DU?$char_traits@D@std@@V?$allocator@D@2@@std@@V12@U?$less@V?$basic_string@DU?$char_traits@D@std@@V?$allocator@D@2@@std@@@2@V?$STLAllocator@U?$pair@$$CBV?$basic_string@DU?$char_traits@D@std@@V?$allocator@D@2@@std@@V12@@std@@V?$CategorisedAllocPolicy@$0A@@Ogre@@@Ogre@@@5@@Z
       3810  EE1 00038CEE ?createInstanceImpl@LightFactory@Ogre@@MAEPAVMovableObject@2@ABV?$basic_string@DU?$char_traits@D@std@@V?$allocator@D@2@@std@@PBV?$map@V?$basic_string@DU?$char_traits@D@std@@V?$allocator@D@2@@std@@V12@U?$less@V?$basic_string@DU?$char_traits@D@std@@V?$allocator@D@2@@std@@@2@V?$STLAllocator@U?$pair@$$CBV?$basic_string@DU?$char_traits@D@std@@V?$allocator@D@2@@std@@V12@@std@@V?$CategorisedAllocPolicy@$0A@@Ogre@@@Ogre@@@5@@Z
       3811  EE2 0003C44D ?createInstanceImpl@ManualObjectFactory@Ogre@@MAEPAVMovableObject@2@ABV?$basic_string@DU?$char_traits@D@std@@V?$allocator@D@2@@std@@PBV?$map@V?$basic_string@DU?$char_traits@D@std@@V?$allocator@D@2@@std@@V12@U?$less@V?$basic_string@DU?$char_traits@D@std@@V?$allocator@D@2@@std@@@2@V?$STLAllocator@U?$pair@$$CBV?$basic_string@DU?$char_traits@D@std@@V?$allocator@D@2@@std@@V12@@std@@V?$CategorisedAllocPolicy@$0A@@Ogre@@@Ogre@@@5@@Z
       3812  EE3 0000FB50 ?createInstanceImpl@ParticleSystemFactory@Ogre@@MAEPAVMovableObject@2@ABV?$basic_string@DU?$char_traits@D@std@@V?$allocator@D@2@@std@@PBV?$map@V?$basic_string@DU?$char_traits@D@std@@V?$allocator@D@2@@std@@V12@U?$less@V?$basic_string@DU?$char_traits@D@std@@V?$allocator@D@2@@std@@@2@V?$STLAllocator@U?$pair@$$CBV?$basic_string@DU?$char_traits@D@std@@V?$allocator@D@2@@std@@V12@@std@@V?$CategorisedAllocPolicy@$0A@@Ogre@@@Ogre@@@5@@Z
       3813  EE4 000043DB ?createInstanceImpl@RibbonTrailFactory@Ogre@@MAEPAVMovableObject@2@ABV?$basic_string@DU?$char_traits@D@std@@V?$allocator@D@2@@std@@PBV?$map@V?$basic_string@DU?$char_traits@D@std@@V?$allocator@D@2@@std@@V12@U?$less@V?$basic_string@DU?$char_traits@D@std@@V?$allocator@D@2@@std@@@2@V?$STLAllocator@U?$pair@$$CBV?$basic_string@DU?$char_traits@D@std@@V?$allocator@D@2@@std@@V12@@std@@V?$CategorisedAllocPolicy@$0A@@Ogre@@@Ogre@@@5@@Z
       3814  EE5 0001ABE0 ?createInstanceManager@SceneManager@Ogre@@UAEPAVInstanceManager@2@ABV?$basic_string@DU?$char_traits@D@std@@V?$allocator@D@2@@std@@00W4InstancingTechnique@32@IGG@Z
       3815  EE6 0001203A ?createInstancedEntity@InstanceBatch@Ogre@@QAEPAVInstancedEntity@2@XZ
       3816  EE7 0000E895 ?createInstancedEntity@InstanceManager@Ogre@@QAEPAVInstancedEntity@2@ABV?$basic_string@DU?$char_traits@D@std@@V?$allocator@D@2@@std@@@Z
       3817  EE8 000096E2 ?createInstancedEntity@SceneManager@Ogre@@UAEPAVInstancedEntity@2@ABV?$basic_string@DU?$char_traits@D@std@@V?$allocator@D@2@@std@@0@Z
       3818  EE9 00020B03 ?createInstancedGeometry@SceneManager@Ogre@@UAEPAVInstancedGeometry@2@ABV?$basic_string@DU?$char_traits@D@std@@V?$allocator@D@2@@std@@@Z
       3819  EEA 00018B74 ?createInternalResources@Texture@Ogre@@UAEXXZ
       3820  EEB 0003C24A ?createIntersectionQuery@SceneManager@Ogre@@UAEPAVIntersectionSceneQuery@2@I@Z
       3821  EEC 0003B679 ?createKeyFrame@AnimationTrack@Ogre@@UAEPAVKeyFrame@2@M@Z
       3822  EED 0003021F ?createKeyFrameImpl@NodeAnimationTrack@Ogre@@MAEPAVKeyFrame@2@M@Z
       3823  EEE 00015BEF ?createKeyFrameImpl@NumericAnimationTrack@Ogre@@MAEPAVKeyFrame@2@M@Z
       3824  EEF 0003A8AF ?createKeyFrameImpl@VertexAnimationTrack@Ogre@@MAEPAVKeyFrame@2@M@Z
       3825  EF0 00002E7D ?createLight@SceneManager@Ogre@@UAEPAVLight@2@ABV?$basic_string@DU?$char_traits@D@std@@V?$allocator@D@2@@std@@@Z
       3826  EF1 00037033 ?createLight@SceneManager@Ogre@@UAEPAVLight@2@XZ
       3827  EF2 00029893 ?createLocalMaterial@CompositorInstance@Ogre@@AAE?AV?$SharedPtr@VMaterial@Ogre@@@2@ABV?$basic_string@DU?$char_traits@D@std@@V?$allocator@D@2@@std@@@Z
       3828  EF3 00009124 ?createLog@LogManager@Ogre@@QAEPAVLog@2@ABV?$basic_string@DU?$char_traits@D@std@@V?$allocator@D@2@@std@@_N11@Z
       3829  EF4 00016B12 ?createLogicalParameterMappingStructures@GpuProgram@Ogre@@IBEX_N@Z
       3830  EF5 0003B057 ?createLowLevelImpl@UnifiedHighLevelGpuProgram@Ogre@@MAEXXZ
       3831  EF6 00032DF8 ?createManual@MeshManager@Ogre@@QAE?AV?$SharedPtr@VMesh@Ogre@@@2@ABV?$basic_string@DU?$char_traits@D@std@@V?$allocator@D@2@@std@@0PAVManualResourceLoader@2@@Z
       3832  EF7 00003B4D ?createManual@TextureManager@Ogre@@QAE?AV?$SharedPtr@VTexture@Ogre@@@2@ABV?$basic_string@DU?$char_traits@D@std@@V?$allocator@D@2@@std@@0W4TextureType@2@IIHW4PixelFormat@2@HPAVManualResourceLoader@2@_NI0@Z
       3833  EF8 00001352 ?createManual@TextureManager@Ogre@@UAE?AV?$SharedPtr@VTexture@Ogre@@@2@ABV?$basic_string@DU?$char_traits@D@std@@V?$allocator@D@2@@std@@0W4TextureType@2@IIIHW4PixelFormat@2@HPAVManualResourceLoader@2@_NI0@Z
       3834  EF9 00013AC0 ?createManualObject@SceneManager@Ogre@@UAEPAVManualObject@2@ABV?$basic_string@DU?$char_traits@D@std@@V?$allocator@D@2@@std@@@Z
       3835  EFA 0001FD11 ?createManualObject@SceneManager@Ogre@@UAEPAVManualObject@2@XZ
       3836  EFB 000332BC ?createMicrocode@GpuProgramManager@Ogre@@UBE?AV?$SharedPtr@VMemoryDataStream@Ogre@@@2@I@Z
       3837  EFC 00033FAF ?createMovableObject@SceneManager@Ogre@@UAEPAVMovableObject@2@ABV?$basic_string@DU?$char_traits@D@std@@V?$allocator@D@2@@std@@0PBV?$map@V?$basic_string@DU?$char_traits@D@std@@V?$allocator@D@2@@std@@V12@U?$less@V?$basic_string@DU?$char_traits@D@std@@V?$allocator@D@2@@std@@@2@V?$STLAllocator@U?$pair@$$CBV?$basic_string@DU?$char_traits@D@std@@V?$allocator@D@2@@std@@V12@@std@@V?$CategorisedAllocPolicy@$0A@@Ogre@@@Ogre@@@5@@Z
       3838  EFD 00039176 ?createMovableObject@SceneManager@Ogre@@UAEPAVMovableObject@2@ABV?$basic_string@DU?$char_traits@D@std@@V?$allocator@D@2@@std@@PBV?$map@V?$basic_string@DU?$char_traits@D@std@@V?$allocator@D@2@@std@@V12@U?$less@V?$basic_string@DU?$char_traits@D@std@@V?$allocator@D@2@@std@@@2@V?$STLAllocator@U?$pair@$$CBV?$basic_string@DU?$char_traits@D@std@@V?$allocator@D@2@@std@@V12@@std@@V?$CategorisedAllocPolicy@$0A@@Ogre@@@Ogre@@@5@@Z
       3839  EFE 00015A28 ?createNamedParameterMappingStructures@GpuProgram@Ogre@@IBEX_N@Z
       3840  EFF 000085AD ?createNodeKeyFrame@NodeAnimationTrack@Ogre@@UAEPAVTransformKeyFrame@2@M@Z
       3841  F00 00020A2C ?createNodeTrack@Animation@Ogre@@QAEPAVNodeAnimationTrack@2@G@Z
       3842  F01 00024BB3 ?createNodeTrack@Animation@Ogre@@QAEPAVNodeAnimationTrack@2@GPAVNode@2@@Z
       3843  F02 00033717 ?createNumericKeyFrame@NumericAnimationTrack@Ogre@@UAEPAVNumericKeyFrame@2@M@Z
       3844  F03 000311D8 ?createNumericTrack@Animation@Ogre@@QAEPAVNumericAnimationTrack@2@G@Z
       3845  F04 00039BDF ?createNumericTrack@Animation@Ogre@@QAEPAVNumericAnimationTrack@2@GABV?$SharedPtr@VAnimableValue@Ogre@@@2@@Z
       3846  F05 000084F4 ?createOrRetrieve@MeshManager@Ogre@@QAE?AU?$pair@V?$SharedPtr@VResource@Ogre@@@Ogre@@_N@std@@ABV?$basic_string@DU?$char_traits@D@std@@V?$allocator@D@2@@4@0_NPAVManualResourceLoader@2@PBV?$map@V?$basic_string@DU?$char_traits@D@std@@V?$allocator@D@2@@std@@V12@U?$less@V?$basic_string@DU?$char_traits@D@std@@V?$allocator@D@2@@std@@@2@V?$STLAllocator@U?$pair@$$CBV?$basic_string@DU?$char_traits@D@std@@V?$allocator@D@2@@std@@V12@@std@@V?$CategorisedAllocPolicy@$0A@@Ogre@@@Ogre@@@4@W4Usage@HardwareBuffer@2@411@Z
       3847  F06 00016EAA ?createOrRetrieve@ResourceManager@Ogre@@UAE?AU?$pair@V?$SharedPtr@VResource@Ogre@@@Ogre@@_N@std@@ABV?$basic_string@DU?$char_traits@D@std@@V?$allocator@D@2@@4@0_NPAVManualResourceLoader@2@PBV?$map@V?$basic_string@DU?$char_traits@D@std@@V?$allocator@D@2@@std@@V12@U?$less@V?$basic_string@DU?$char_traits@D@std@@V?$allocator@D@2@@std@@@2@V?$STLAllocator@U?$pair@$$CBV?$basic_string@DU?$char_traits@D@std@@V?$allocator@D@2@@std@@V12@@std@@V?$CategorisedAllocPolicy@$0A@@Ogre@@@Ogre@@@4@@Z
       3848  F07 0002DE07 ?createOrRetrieve@TextureManager@Ogre@@UAE?AU?$pair@V?$SharedPtr@VResource@Ogre@@@Ogre@@_N@std@@ABV?$basic_string@DU?$char_traits@D@std@@V?$allocator@D@2@@4@0_NPAVManualResourceLoader@2@PBV?$map@V?$basic_string@DU?$char_traits@D@std@@V?$allocator@D@2@@std@@V12@U?$less@V?$basic_string@DU?$char_traits@D@std@@V?$allocator@D@2@@std@@@2@V?$STLAllocator@U?$pair@$$CBV?$basic_string@DU?$char_traits@D@std@@V?$allocator@D@2@@std@@V12@@std@@V?$CategorisedAllocPolicy@$0A@@Ogre@@@Ogre@@@4@W4TextureType@2@HM1W4PixelFormat@2@1@Z
       3849  F08 00022DCC ?createOriginalScene@CompositorChain@Ogre@@IAEXXZ
       3850  F09 000140C4 ?createParamDictionary@StringInterface@Ogre@@IAE_NABV?$basic_string@DU?$char_traits@D@std@@V?$allocator@D@2@@std@@@Z
       3851  F0A 00037F79 ?createParameterMappingStructures@GpuProgram@Ogre@@IBEX_N@Z
       3852  F0B 00021634 ?createParameters@GpuProgram@Ogre@@UAE?AV?$SharedPtr@VGpuProgramParameters@Ogre@@@2@XZ
       3853  F0C 00028D8F ?createParameters@GpuProgramManager@Ogre@@UAE?AV?$SharedPtr@VGpuProgramParameters@Ogre@@@2@XZ
       3854  F0D 000343DD ?createParameters@HighLevelGpuProgram@Ogre@@UAE?AV?$SharedPtr@VGpuProgramParameters@Ogre@@@2@XZ
       3855  F0E 0002F856 ?createParameters@UnifiedHighLevelGpuProgram@Ogre@@UAE?AV?$SharedPtr@VGpuProgramParameters@Ogre@@@2@XZ
       3856  F0F 0000E4DA ?createParticle@ParticleSystem@Ogre@@QAEPAVParticle@2@XZ
       3857  F10 0003BFDE ?createParticleSystem@SceneManager@Ogre@@UAEPAVParticleSystem@2@ABV?$basic_string@DU?$char_traits@D@std@@V?$allocator@D@2@@std@@0@Z
       3858  F11 0002F9CD ?createParticleSystem@SceneManager@Ogre@@UAEPAVParticleSystem@2@ABV?$basic_string@DU?$char_traits@D@std@@V?$allocator@D@2@@std@@I0@Z
       3859  F12 000322D6 ?createParticleSystem@SceneManager@Ogre@@UAEPAVParticleSystem@2@IABV?$basic_string@DU?$char_traits@D@std@@V?$allocator@D@2@@std@@@Z
       3860  F13 00032722 ?createPass@CompositionTargetPass@Ogre@@QAEPAVCompositionPass@2@XZ
       3861  F14 0002E7CB ?createPass@Technique@Ogre@@QAEPAVPass@2@XZ
       3862  F15 0001D34A ?createPlane@MeshManager@Ogre@@QAE?AV?$SharedPtr@VMesh@Ogre@@@2@ABV?$basic_string@DU?$char_traits@D@std@@V?$allocator@D@2@@std@@0ABVPlane@2@MMHH_NGMMABVVector3@2@W4Usage@HardwareBuffer@2@422@Z
       3863  F16 0003AA5D ?createPlane@PrefabFactory@Ogre@@CAXPAVMesh@2@@Z
       3864  F17 00031FED ?createPlaneBoundedVolumeQuery@SceneManager@Ogre@@UAEPAVPlaneBoundedVolumeListSceneQuery@2@ABV?$vector@VPlaneBoundedVolume@Ogre@@V?$STLAllocator@VPlaneBoundedVolume@Ogre@@V?$CategorisedAllocPolicy@$0A@@2@@2@@std@@I@Z
       3865  F18 00011595 ?createPose@Mesh@Ogre@@QAEPAVPose@2@GABV?$basic_string@DU?$char_traits@D@std@@V?$allocator@D@2@@std@@@Z
       3866  F19 00017229 ?createPrefab@PrefabFactory@Ogre@@SA_NPAVMesh@2@@Z
       3867  F1A 00028A06 ?createPrefabCube@MeshManager@Ogre@@IAEXXZ
       3868  F1B 0002E0A5 ?createPrefabPlane@MeshManager@Ogre@@IAEXXZ
       3869  F1C 000282DB ?createPrefabSphere@MeshManager@Ogre@@IAEXXZ
       3870  F1D 0003CC4A ?createProgram@GpuProgramManager@Ogre@@UAE?AV?$SharedPtr@VGpuProgram@Ogre@@@2@ABV?$basic_string@DU?$char_traits@D@std@@V?$allocator@D@2@@std@@00W4GpuProgramType@2@0@Z
       3871  F1E 00020180 ?createProgram@HighLevelGpuProgramManager@Ogre@@QAE?AV?$SharedPtr@VHighLevelGpuProgram@Ogre@@@2@ABV?$basic_string@DU?$char_traits@D@std@@V?$allocator@D@2@@std@@00W4GpuProgramType@2@@Z
       3872  F1F 0003BF43 ?createProgramFromString@GpuProgramManager@Ogre@@UAE?AV?$SharedPtr@VGpuProgram@Ogre@@@2@ABV?$basic_string@DU?$char_traits@D@std@@V?$allocator@D@2@@std@@00W4GpuProgramType@2@0@Z
       3873  F20 00007D97 ?createRayQuery@SceneManager@Ogre@@UAEPAVRaySceneQuery@2@ABVRay@2@I@Z
       3874  F21 00039649 ?createRenderQueueInvocationSequence@Root@Ogre@@QAEPAVRenderQueueInvocationSequence@2@ABV?$basic_string@DU?$char_traits@D@std@@V?$allocator@D@2@@std@@@Z
       3875  F22 00036EC1 ?createRenderToVertexBuffer@DefaultHardwareBufferManagerBase@Ogre@@UAE?AV?$SharedPtr@VRenderToVertexBuffer@Ogre@@@2@XZ
       3876  F23 0002B0B7 ?createRenderToVertexBuffer@HardwareBufferManager@Ogre@@UAE?AV?$SharedPtr@VRenderToVertexBuffer@Ogre@@@2@XZ
       3877  F24 00006A37 ?createRenderWindow@Root@Ogre@@QAEPAVRenderWindow@2@ABV?$basic_string@DU?$char_traits@D@std@@V?$allocator@D@2@@std@@II_NPBV?$map@V?$basic_string@DU?$char_traits@D@std@@V?$allocator@D@2@@std@@V12@U?$less@V?$basic_string@DU?$char_traits@D@std@@V?$allocator@D@2@@std@@@2@V?$STLAllocator@U?$pair@$$CBV?$basic_string@DU?$char_traits@D@std@@V?$allocator@D@2@@std@@V12@@std@@V?$CategorisedAllocPolicy@$0A@@Ogre@@@Ogre@@@5@@Z
       3878  F25 0002010D ?createRenderWindows@Root@Ogre@@QAE_NABV?$vector@URenderWindowDescription@Ogre@@V?$STLAllocator@URenderWindowDescription@Ogre@@V?$CategorisedAllocPolicy@$0A@@2@@2@@std@@AAV?$vector@PAVRenderWindow@Ogre@@V?$STLAllocator@PAVRenderWindow@Ogre@@V?$CategorisedAllocPolicy@$0A@@2@@2@@4@@Z
       3879  F26 0003FC74 ?createResource@ResourceGroupManager@Ogre@@QAE?AV?$SharedPtr@VDataStream@Ogre@@@2@ABV?$basic_string@DU?$char_traits@D@std@@V?$allocator@D@2@@std@@0_N0@Z
       3880  F27 00034487 ?createResource@ResourceManager@Ogre@@UAE?AV?$SharedPtr@VResource@Ogre@@@2@ABV?$basic_string@DU?$char_traits@D@std@@V?$allocator@D@2@@std@@0_NPAVManualResourceLoader@2@PBV?$map@V?$basic_string@DU?$char_traits@D@std@@V?$allocator@D@2@@std@@V12@U?$less@V?$basic_string@DU?$char_traits@D@std@@V?$allocator@D@2@@std@@@2@V?$STLAllocator@U?$pair@$$CBV?$basic_string@DU?$char_traits@D@std@@V?$allocator@D@2@@std@@V12@@std@@V?$CategorisedAllocPolicy@$0A@@Ogre@@@Ogre@@@5@@Z
       3881  F28 0002D5F1 ?createResourceGroup@ResourceGroupManager@Ogre@@QAEXABV?$basic_string@DU?$char_traits@D@std@@V?$allocator@D@2@@std@@_N@Z
       3882  F29 0003B2AA ?createResources@CompositorInstance@Ogre@@AAEX_N@Z
       3883  F2A 0003A8FA ?createRibbonTrail@SceneManager@Ogre@@UAEPAVRibbonTrail@2@ABV?$basic_string@DU?$char_traits@D@std@@V?$allocator@D@2@@std@@@Z
       3884  F2B 00003C2E ?createRibbonTrail@SceneManager@Ogre@@UAEPAVRibbonTrail@2@XZ
       3885  F2C 00037763 ?createSceneManager@Root@Ogre@@QAEPAVSceneManager@2@ABV?$basic_string@DU?$char_traits@D@std@@V?$allocator@D@2@@std@@0@Z
       3886  F2D 000115B8 ?createSceneManager@Root@Ogre@@QAEPAVSceneManager@2@GABV?$basic_string@DU?$char_traits@D@std@@V?$allocator@D@2@@std@@@Z
       3887  F2E 0001FA37 ?createSceneManager@SceneManagerEnumerator@Ogre@@QAEPAVSceneManager@2@ABV?$basic_string@DU?$char_traits@D@std@@V?$allocator@D@2@@std@@0@Z
       3888  F2F 000190FB ?createSceneManager@SceneManagerEnumerator@Ogre@@QAEPAVSceneManager@2@GABV?$basic_string@DU?$char_traits@D@std@@V?$allocator@D@2@@std@@@Z
       3889  F30 00020AEF ?createSceneNode@SceneManager@Ogre@@UAEPAVSceneNode@2@ABV?$basic_string@DU?$char_traits@D@std@@V?$allocator@D@2@@std@@@Z
       3890  F31 0001733C ?createSceneNode@SceneManager@Ogre@@UAEPAVSceneNode@2@XZ
       3891  F32 0001D002 ?createSceneNodeImpl@SceneManager@Ogre@@MAEPAVSceneNode@2@ABV?$basic_string@DU?$char_traits@D@std@@V?$allocator@D@2@@std@@@Z
       3892  F33 00007F0E ?createSceneNodeImpl@SceneManager@Ogre@@MAEPAVSceneNode@2@XZ
       3893  F34 00006A6E ?createShaderAccessPoint@Texture@Ogre@@UAEXIW4TextureAccess@2@HHPAW4PixelFormat@2@@Z
       3894  F35 0003DC8A ?createSharedParameters@GpuProgramManager@Ogre@@UAE?AV?$SharedPtr@VGpuSharedParameters@Ogre@@@2@ABV?$basic_string@DU?$char_traits@D@std@@V?$allocator@D@2@@std@@@Z
       3895  F36 0000D6C0 ?createSkeletonInstance@InstancedEntity@Ogre@@IAEXXZ
       3896  F37 000382EE ?createSkyboxPlane@SceneManager@Ogre@@MAE?AV?$SharedPtr@VMesh@Ogre@@@2@W4BoxPlane@12@MABVQuaternion@2@ABV?$basic_string@DU?$char_traits@D@std@@V?$allocator@D@2@@std@@@Z
       3897  F38 000227B4 ?createSkydomePlane@SceneManager@Ogre@@MAE?AV?$SharedPtr@VMesh@Ogre@@@2@W4BoxPlane@12@MMMABVQuaternion@2@HHHABV?$basic_string@DU?$char_traits@D@std@@V?$allocator@D@2@@std@@@Z
       3898  F39 00023D5D ?createSphere@PrefabFactory@Ogre@@CAXPAVMesh@2@@Z
       3899  F3A 00019204 ?createSphereQuery@SceneManager@Ogre@@UAEPAVSphereSceneQuery@2@ABVSphere@2@I@Z
       3900  F3B 0003AAA8 ?createStaticGeometry@SceneManager@Ogre@@UAEPAVStaticGeometry@2@ABV?$basic_string@DU?$char_traits@D@std@@V?$allocator@D@2@@std@@@Z
       3901  F3C 0003A828 ?createSubMesh@Mesh@Ogre@@QAEPAVSubMesh@2@ABV?$basic_string@DU?$char_traits@D@std@@V?$allocator@D@2@@std@@@Z
       3902  F3D 000100B4 ?createSubMesh@Mesh@Ogre@@QAEPAVSubMesh@2@XZ
       3903  F3E 00007347 ?createSystemImpl@ParticleSystemManager@Ogre@@IAEPAVParticleSystem@2@ABV?$basic_string@DU?$char_traits@D@std@@V?$allocator@D@2@@std@@0@Z
       3904  F3F 00018804 ?createSystemImpl@ParticleSystemManager@Ogre@@IAEPAVParticleSystem@2@ABV?$basic_string@DU?$char_traits@D@std@@V?$allocator@D@2@@std@@I0@Z
       3905  F40 0001154A ?createTagPointOnBone@SkeletonInstance@Ogre@@QAEPAVTagPoint@2@PAVBone@2@ABVQuaternion@2@ABVVector3@2@@Z
       3906  F41 0000A81C ?createTargetPass@CompositionTechnique@Ogre@@QAEPAVCompositionTargetPass@2@XZ
       3907  F42 0003A89B ?createTechnique@Compositor@Ogre@@QAEPAVCompositionTechnique@2@XZ
       3908  F43 00033177 ?createTechnique@Material@Ogre@@QAEPAVTechnique@2@XZ
       3909  F44 00005DA8 ?createTemplate@ParticleSystemManager@Ogre@@QAEPAVParticleSystem@2@ABV?$basic_string@DU?$char_traits@D@std@@V?$allocator@D@2@@std@@0@Z
       3910  F45 0000B361 ?createTextureAnimator@ControllerManager@Ogre@@QAEPAV?$Controller@M@2@PAVTextureUnitState@2@M@Z
       3911  F46 00019A92 ?createTextureDefinition@CompositionTechnique@Ogre@@QAEPAVTextureDefinition@12@ABV?$basic_string@DU?$char_traits@D@std@@V?$allocator@D@2@@std@@@Z
       3912  F47 00005D35 ?createTextureRotater@ControllerManager@Ogre@@QAEPAV?$Controller@M@2@PAVTextureUnitState@2@M@Z
       3913  F48 00005722 ?createTextureUScroller@ControllerManager@Ogre@@QAEPAV?$Controller@M@2@PAVTextureUnitState@2@M@Z
       3914  F49 000142C7 ?createTextureUVScroller@ControllerManager@Ogre@@QAEPAV?$Controller@M@2@PAVTextureUnitState@2@M@Z
       3915  F4A 0001CB02 ?createTextureUnitState@Pass@Ogre@@QAEPAVTextureUnitState@2@ABV?$basic_string@DU?$char_traits@D@std@@V?$allocator@D@2@@std@@G@Z
       3916  F4B 00011C66 ?createTextureUnitState@Pass@Ogre@@QAEPAVTextureUnitState@2@XZ
       3917  F4C 0000AE89 ?createTextureVScroller@ControllerManager@Ogre@@QAEPAV?$Controller@M@2@PAVTextureUnitState@2@M@Z
       3918  F4D 00037051 ?createTextureWaveTransformer@ControllerManager@Ogre@@QAEPAV?$Controller@M@2@PAVTextureUnitState@2@W4TextureTransformType@42@W4WaveformType@2@MMMM@Z
       3919  F4E 0001E0C4 ?createUniformBuffer@DefaultHardwareBufferManagerBase@Ogre@@UAE?AVHardwareUniformBufferSharedPtr@2@IW4Usage@HardwareBuffer@2@_NABV?$basic_string@DU?$char_traits@D@std@@V?$allocator@D@2@@std@@@Z
       3920  F4F 000374B6 ?createUniformBuffer@HardwareBufferManager@Ogre@@UAE?AVHardwareUniformBufferSharedPtr@2@IW4Usage@HardwareBuffer@2@_NABV?$basic_string@DU?$char_traits@D@std@@V?$allocator@D@2@@std@@@Z
       3921  F50 0001FA82 ?createVertexBuffer@DefaultHardwareBufferManagerBase@Ogre@@UAE?AVHardwareVertexBufferSharedPtr@2@IIW4Usage@HardwareBuffer@2@_N@Z
       3922  F51 0003CB3C ?createVertexBuffer@HardwareBufferManager@Ogre@@UAE?AVHardwareVertexBufferSharedPtr@2@IIW4Usage@HardwareBuffer@2@_N@Z
       3923  F52 000013DE ?createVertexBufferBinding@HardwareBufferManager@Ogre@@UAEPAVVertexBufferBinding@2@XZ
       3924  F53 0002489D ?createVertexBufferBinding@HardwareBufferManagerBase@Ogre@@UAEPAVVertexBufferBinding@2@XZ
       3925  F54 00022994 ?createVertexBufferBindingImpl@HardwareBufferManagerBase@Ogre@@MAEPAVVertexBufferBinding@2@XZ
       3926  F55 0000FF2E ?createVertexDeclaration@HardwareBufferManager@Ogre@@UAEPAVVertexDeclaration@2@XZ
       3927  F56 0001B99B ?createVertexDeclaration@HardwareBufferManagerBase@Ogre@@UAEPAVVertexDeclaration@2@XZ
       3928  F57 000096CE ?createVertexDeclarationImpl@HardwareBufferManagerBase@Ogre@@MAEPAVVertexDeclaration@2@XZ
       3929  F58 000118A1 ?createVertexMorphKeyFrame@VertexAnimationTrack@Ogre@@UAEPAVVertexMorphKeyFrame@2@M@Z
       3930  F59 0003AC56 ?createVertexPoseKeyFrame@VertexAnimationTrack@Ogre@@UAEPAVVertexPoseKeyFrame@2@M@Z
       3931  F5A 00004200 ?createVertexSemantics@InstanceBatchHW_VTF@Ogre@@MAEXPAVVertexData@2@0ABV?$vector@EV?$STLAllocator@EV?$CategorisedAllocPolicy@$0A@@Ogre@@@Ogre@@@std@@ABV?$vector@MV?$STLAllocator@MV?$CategorisedAllocPolicy@$0A@@Ogre@@@Ogre@@@5@@Z
       3932  F5B 00015334 ?createVertexSemantics@InstanceBatchVTF@Ogre@@EAEXPAVVertexData@2@0ABV?$vector@EV?$STLAllocator@EV?$CategorisedAllocPolicy@$0A@@Ogre@@@Ogre@@@std@@ABV?$vector@MV?$STLAllocator@MV?$CategorisedAllocPolicy@$0A@@Ogre@@@Ogre@@@5@@Z
       3933  F5C 0001B266 ?createVertexTexture@BaseInstanceBatchVTF@Ogre@@IAEXPBVSubMesh@2@@Z
       3934  F5D 00038D61 ?createVertexTrack@Animation@Ogre@@QAEPAVVertexAnimationTrack@2@GPAVVertexData@2@W4VertexAnimationType@2@@Z
       3935  F5E 00012E68 ?createVertexTrack@Animation@Ogre@@QAEPAVVertexAnimationTrack@2@GW4VertexAnimationType@2@@Z
       3936  F5F 0002C9B7 ?createVisualParticles@ParticleSystem@Ogre@@IAEXII@Z
       3937  F60 0003BB01 ?crossProduct@Vector2@Ogre@@QBEMABV12@@Z
       3938  F61 000144B6 ?crossProduct@Vector3@Ogre@@QBE?AV12@ABV12@@Z
       3939  F62 000321B9 ?data@UTFString@Ogre@@QBEPBGXZ
       3940  F63 0000697E ?deallocate@AlignedMemory@Ogre@@SAXPAX@Z
       3941  F64 0003E9AF ?deallocateBytes@StdAllocPolicy@Ogre@@SAXPAX@Z
       3942  F65 0001027B ?declareResource@ResourceGroupManager@Ogre@@QAEXABV?$basic_string@DU?$char_traits@D@std@@V?$allocator@D@2@@std@@00ABV?$map@V?$basic_string@DU?$char_traits@D@std@@V?$allocator@D@2@@std@@V12@U?$less@V?$basic_string@DU?$char_traits@D@std@@V?$allocator@D@2@@std@@@2@V?$STLAllocator@U?$pair@$$CBV?$basic_string@DU?$char_traits@D@std@@V?$allocator@D@2@@std@@V12@@std@@V?$CategorisedAllocPolicy@$0A@@Ogre@@@Ogre@@@4@@Z
       3943  F66 0000EB01 ?declareResource@ResourceGroupManager@Ogre@@QAEXABV?$basic_string@DU?$char_traits@D@std@@V?$allocator@D@2@@std@@00PAVManualResourceLoader@2@ABV?$map@V?$basic_string@DU?$char_traits@D@std@@V?$allocator@D@2@@std@@V12@U?$less@V?$basic_string@DU?$char_traits@D@std@@V?$allocator@D@2@@std@@@2@V?$STLAllocator@U?$pair@$$CBV?$basic_string@DU?$char_traits@D@std@@V?$allocator@D@2@@std@@V12@@std@@V?$CategorisedAllocPolicy@$0A@@Ogre@@@Ogre@@@4@@Z
       3944  F67 0003FDE6 ?decode@DDSCodec@Ogre@@UBE?AU?$pair@V?$SharedPtr@VMemoryDataStream@Ogre@@@Ogre@@V?$SharedPtr@VCodecData@Codec@Ogre@@@2@@std@@AAV?$SharedPtr@VDataStream@Ogre@@@2@@Z
       3945  F68 0002B94F ?decode@FreeImageCodec@Ogre@@UBE?AU?$pair@V?$SharedPtr@VMemoryDataStream@Ogre@@@Ogre@@V?$SharedPtr@VCodecData@Codec@Ogre@@@2@@std@@AAV?$SharedPtr@VDataStream@Ogre@@@2@@Z
       3946  F69 00024CCB ?decomposition@Matrix4@Ogre@@QBEXAAVVector3@2@0AAVQuaternion@2@@Z
       3947  F6A 000105B4 ?defaultOrganisationMode@RenderPriorityGroup@Ogre@@QAEXXZ
       3948  F6B 0002EF41 ?defaultOrganisationMode@RenderQueueGroup@Ogre@@QAEXXZ
       3949  F6C 000244E2 ?define@ConvexBody@Ogre@@QAEXABVAxisAlignedBox@2@@Z
       3950  F6D 00021012 ?define@ConvexBody@Ogre@@QAEXABVFrustum@2@@Z
       3951  F6E 000267F6 ?define@PatchMesh@Ogre@@QAEXPAXPAVVertexDeclaration@2@IIIIW4VisibleSide@PatchSurface@2@W4Usage@HardwareBuffer@2@3_N4@Z
       3952  F6F 00022C91 ?defineSurface@PatchSurface@Ogre@@QAEXPAXPAVVertexDeclaration@2@IIW4PatchSurfaceType@12@IIW4VisibleSide@12@@Z
       3953  F70 00026AA8 ?defragmentBatchDoCull@InstanceBatch@Ogre@@IAEXAAV?$vector@PAVInstancedEntity@Ogre@@V?$STLAllocator@PAVInstancedEntity@Ogre@@V?$CategorisedAllocPolicy@$0A@@2@@2@@std@@AAV?$vector@VVector4@Ogre@@V?$STLAllocator@VVector4@Ogre@@V?$CategorisedAllocPolicy@$0A@@2@@2@@4@@Z
       3954  F71 0003D780 ?defragmentBatchNoCull@InstanceBatch@Ogre@@IAEXAAV?$vector@PAVInstancedEntity@Ogre@@V?$STLAllocator@PAVInstancedEntity@Ogre@@V?$CategorisedAllocPolicy@$0A@@2@@2@@std@@AAV?$vector@VVector4@Ogre@@V?$STLAllocator@VVector4@Ogre@@V?$CategorisedAllocPolicy@$0A@@2@@2@@4@@Z
       3955  F72 0003ED83 ?defragmentBatches@InstanceManager@Ogre@@AAEX_NAAV?$vector@PAVInstancedEntity@Ogre@@V?$STLAllocator@PAVInstancedEntity@Ogre@@V?$CategorisedAllocPolicy@$0A@@2@@2@@std@@AAV?$vector@VVector4@Ogre@@V?$STLAllocator@VVector4@Ogre@@V?$CategorisedAllocPolicy@$0A@@2@@2@@4@AAV?$vector@PAVInstanceBatch@Ogre@@V?$STLAllocator@PAVInstanceBatch@Ogre@@V?$CategorisedAllocPolicy@$0A@@2@@2@@4@@Z
       3956  F73 0003E9EB ?defragmentBatches@InstanceManager@Ogre@@QAEX_N@Z
       3957  F74 0001A956 ?deleteAllInstancedEntities@InstanceBatch@Ogre@@MAEXXZ
       3958  F75 00008576 ?deleteFrameTextureName@TextureUnitState@Ogre@@QAEXI@Z
       3959  F76 00014281 ?deleteGroup@ResourceGroupManager@Ogre@@IAEXPAUResourceGroup@12@@Z
       3960  F77 0001FF19 ?deleteMatchingResources@ResourceGroupManager@Ogre@@QAEXABV?$basic_string@DU?$char_traits@D@std@@V?$allocator@D@2@@std@@00@Z
       3961  F78 000163B0 ?deletePolygon@ConvexBody@Ogre@@IAEXI@Z
       3962  F79 0000D6C5 ?deleteResource@ResourceGroupManager@Ogre@@QAEXABV?$basic_string@DU?$char_traits@D@std@@V?$allocator@D@2@@std@@00@Z
       3963  F7A 0002E18B ?deleteUnusedInstancedEntities@InstanceBatch@Ogre@@MAEXXZ
       3964  F7B 00035396 ?deleteVertex@ConvexBody@Ogre@@IAEXII@Z
       3965  F7C 000105E6 ?deleteVertex@Polygon@Ogre@@QAEXI@Z
       3966  F7D 0001C99F ?deriveRootBone@Skeleton@Ogre@@IBEXXZ
       3967  F7E 0002D8DA ?deriveShadowCasterPass@SceneManager@Ogre@@MAEPBVPass@2@PBV32@@Z
       3968  F7F 00033631 ?deriveShadowReceiverPass@SceneManager@Ogre@@MAEPBVPass@2@PBV32@@Z
       3969  F80 00025CCA ?deriveTextureRenderTargetOptions@CompositorInstance@Ogre@@AAEXABV?$basic_string@DU?$char_traits@D@std@@V?$allocator@D@2@@std@@PA_NPAIPAV34@@Z
       3970  F81 00033CF3 ?deriveVariability@GpuProgramParameters@Ogre@@IAEGW4AutoConstantType@12@@Z
       3971  F82 00021BC5 ?destroy@?$SharedPtr@VHardwareCounterBuffer@Ogre@@@Ogre@@IAEXXZ
       3972  F83 000353EB ?destroy@?$SharedPtr@VHardwareIndexBuffer@Ogre@@@Ogre@@IAEXXZ
       3973  F84 00006E0B ?destroy@?$SharedPtr@VHardwarePixelBuffer@Ogre@@@Ogre@@IAEXXZ
       3974  F85 000361B0 ?destroy@?$SharedPtr@VHardwareUniformBuffer@Ogre@@@Ogre@@IAEXXZ
       3975  F86 000185D4 ?destroy@?$SharedPtr@VHardwareVertexBuffer@Ogre@@@Ogre@@IAEXXZ
       3976  F87 00039AEF ?destroy@DeflateStream@Ogre@@IAEXXZ
       3977  F88 00036B5B ?destroy@InstancedGeometry@Ogre@@UAEXXZ
       3978  F89 000030FD ?destroy@StaticGeometry@Ogre@@UAEXXZ
       3979  F8A 00026C10 ?destroyAdvancedTexture@ExternalTextureSourceManager@Ogre@@QAEXABV?$basic_string@DU?$char_traits@D@std@@V?$allocator@D@2@@std@@0@Z
       3980  F8B 000314AD ?destroyAffector@ParticleAffectorFactory@Ogre@@UAEXPAVParticleAffector@2@@Z
       3981  F8C 0000E3F9 ?destroyAllAnimationStates@SceneManager@Ogre@@UAEXXZ
       3982  F8D 000100E6 ?destroyAllAnimations@SceneManager@Ogre@@UAEXXZ
       3983  F8E 0001130B ?destroyAllBillboardChains@SceneManager@Ogre@@UAEXXZ
       3984  F8F 0003594A ?destroyAllBillboardSets@SceneManager@Ogre@@UAEXXZ
       3985  F90 00017215 ?destroyAllBindings@HardwareBufferManagerBase@Ogre@@MAEXXZ
       3986  F91 0000354E ?destroyAllCameras@SceneManager@Ogre@@UAEXXZ
       3987  F92 0002FA45 ?destroyAllDeclarations@HardwareBufferManagerBase@Ogre@@MAEXXZ
       3988  F93 0002AAEA ?destroyAllEntities@SceneManager@Ogre@@UAEXXZ
       3989  F94 000038AF ?destroyAllInstanceManagers@SceneManager@Ogre@@UAEXXZ
       3990  F95 00024717 ?destroyAllInstancedGeometry@SceneManager@Ogre@@UAEXXZ
       3991  F96 00009647 ?destroyAllLights@SceneManager@Ogre@@UAEXXZ
       3992  F97 00022237 ?destroyAllManualObjects@SceneManager@Ogre@@UAEXXZ
       3993  F98 0002EEEC ?destroyAllMovableObjects@SceneManager@Ogre@@UAEXXZ
       3994  F99 000277B9 ?destroyAllMovableObjectsByType@SceneManager@Ogre@@UAEXABV?$basic_string@DU?$char_traits@D@std@@V?$allocator@D@2@@std@@@Z
       3995  F9A 0003C2DB ?destroyAllNodeTracks@Animation@Ogre@@QAEXXZ
       3996  F9B 00030B2A ?destroyAllNumericTracks@Animation@Ogre@@QAEXXZ
       3997  F9C 0001FD8E ?destroyAllParticleSystems@SceneManager@Ogre@@UAEXXZ
       3998  F9D 0001D142 ?destroyAllRenderQueueInvocationSequences@Root@Ogre@@QAEXXZ
       3999  F9E 00033C85 ?destroyAllResourcePools@ResourceManager@Ogre@@QAEXXZ
       4000  F9F 00026251 ?destroyAllRibbonTrails@SceneManager@Ogre@@UAEXXZ
       4001  FA0 0001C823 ?destroyAllStaticGeometry@SceneManager@Ogre@@UAEXXZ
       4002  FA1 000048E5 ?destroyAllTracks@Animation@Ogre@@QAEXXZ
       4003  FA2 00014F2E ?destroyAllVertexTracks@Animation@Ogre@@QAEXXZ
       4004  FA3 00005ADD ?destroyAnimation@SceneManager@Ogre@@UAEXABV?$basic_string@DU?$char_traits@D@std@@V?$allocator@D@2@@std@@@Z
       4005  FA4 00026F08 ?destroyAnimationState@SceneManager@Ogre@@UAEXABV?$basic_string@DU?$char_traits@D@std@@V?$allocator@D@2@@std@@@Z
       4006  FA5 0000DB3E ?destroyBillboardChain@SceneManager@Ogre@@UAEXABV?$basic_string@DU?$char_traits@D@std@@V?$allocator@D@2@@std@@@Z
       4007  FA6 00022D2C ?destroyBillboardChain@SceneManager@Ogre@@UAEXPAVBillboardChain@2@@Z
       4008  FA7 000168DD ?destroyBillboardSet@SceneManager@Ogre@@UAEXABV?$basic_string@DU?$char_traits@D@std@@V?$allocator@D@2@@std@@@Z
       4009  FA8 00008792 ?destroyBillboardSet@SceneManager@Ogre@@UAEXPAVBillboardSet@2@@Z
       4010  FA9 00026D78 ?destroyBlendMask@AnimationState@Ogre@@QAEXXZ
       4011  FAA 0000C86A ?destroyCamera@SceneManager@Ogre@@UAEXABV?$basic_string@DU?$char_traits@D@std@@V?$allocator@D@2@@std@@@Z
       4012  FAB 00006EE2 ?destroyCamera@SceneManager@Ogre@@UAEXPAVCamera@2@@Z
       4013  FAC 00038078 ?destroyController@ControllerManager@Ogre@@QAEXPAV?$Controller@M@2@@Z
       4014  FAD 00018EE4 ?destroyEmitter@ParticleEmitterFactory@Ogre@@UAEXPAVParticleEmitter@2@@Z
       4015  FAE 0002DB96 ?destroyEntity@SceneManager@Ogre@@UAEXABV?$basic_string@DU?$char_traits@D@std@@V?$allocator@D@2@@std@@@Z
       4016  FAF 0001FDED ?destroyEntity@SceneManager@Ogre@@UAEXPAVEntity@2@@Z
       4017  FB0 0003FD5F ?destroyHardwareOcclusionQuery@RenderSystem@Ogre@@UAEXPAVHardwareOcclusionQuery@2@@Z
       4018  FB1 00033DD9 ?destroyInstance@BillboardChainFactory@Ogre@@UAEXPAVMovableObject@2@@Z
       4019  FB2 00039734 ?destroyInstance@BillboardParticleRendererFactory@Ogre@@UAEXPAVParticleSystemRenderer@2@@Z
       4020  FB3 0003D9E7 ?destroyInstance@BillboardSetFactory@Ogre@@UAEXPAVMovableObject@2@@Z
       4021  FB4 0002839E ?destroyInstance@DefaultSceneManagerFactory@Ogre@@UAEXPAVSceneManager@2@@Z
       4022  FB5 00032669 ?destroyInstance@EntityFactory@Ogre@@UAEXPAVMovableObject@2@@Z
       4023  FB6 00016446 ?destroyInstance@FileSystemArchiveFactory@Ogre@@UAEXPAVArchive@2@@Z
       4024  FB7 0002E95B ?destroyInstance@LightFactory@Ogre@@UAEXPAVMovableObject@2@@Z
       4025  FB8 00020A09 ?destroyInstance@ManualObjectFactory@Ogre@@UAEXPAVMovableObject@2@@Z
       4026  FB9 00036813 ?destroyInstance@ParticleSystemFactory@Ogre@@UAEXPAVMovableObject@2@@Z
       4027  FBA 00012319 ?destroyInstance@RibbonTrailFactory@Ogre@@UAEXPAVMovableObject@2@@Z
       4028  FBB 000120F3 ?destroyInstanceManager@SceneManager@Ogre@@UAEXABV?$basic_string@DU?$char_traits@D@std@@V?$allocator@D@2@@std@@@Z
       4029  FBC 00039F7C ?destroyInstanceManager@SceneManager@Ogre@@UAEXPAVInstanceManager@2@@Z
       4030  FBD 00038C03 ?destroyInstancedEntity@SceneManager@Ogre@@UAEXPAVInstancedEntity@2@@Z
       4031  FBE 0000D7DD ?destroyInstancedGeometry@SceneManager@Ogre@@UAEXABV?$basic_string@DU?$char_traits@D@std@@V?$allocator@D@2@@std@@@Z
       4032  FBF 00019A10 ?destroyInstancedGeometry@SceneManager@Ogre@@UAEXPAVInstancedGeometry@2@@Z
       4033  FC0 0000324C ?destroyLight@SceneManager@Ogre@@UAEXABV?$basic_string@DU?$char_traits@D@std@@V?$allocator@D@2@@std@@@Z
       4034  FC1 00010ED8 ?destroyLight@SceneManager@Ogre@@UAEXPAVLight@2@@Z
       4035  FC2 00017C0B ?destroyLog@LogManager@Ogre@@QAEXABV?$basic_string@DU?$char_traits@D@std@@V?$allocator@D@2@@std@@@Z
       4036  FC3 0001FFBE ?destroyLog@LogManager@Ogre@@QAEXPAVLog@2@@Z
       4037  FC4 00034536 ?destroyManualObject@SceneManager@Ogre@@UAEXABV?$basic_string@DU?$char_traits@D@std@@V?$allocator@D@2@@std@@@Z
       4038  FC5 000022AC ?destroyManualObject@SceneManager@Ogre@@UAEXPAVManualObject@2@@Z
       4039  FC6 0001F1E0 ?destroyMovableObject@SceneManager@Ogre@@UAEXABV?$basic_string@DU?$char_traits@D@std@@V?$allocator@D@2@@std@@0@Z
       4040  FC7 00031F0C ?destroyMovableObject@SceneManager@Ogre@@UAEXPAVMovableObject@2@@Z
       4041  FC8 000171D9 ?destroyNodeTrack@Animation@Ogre@@QAEXG@Z
       4042  FC9 00032362 ?destroyNumericTrack@Animation@Ogre@@QAEXG@Z
       4043  FCA 000317FF ?destroyOriginalScene@CompositorChain@Ogre@@IAEXXZ
       4044  FCB 000280FB ?destroyParticleSystem@SceneManager@Ogre@@UAEXABV?$basic_string@DU?$char_traits@D@std@@V?$allocator@D@2@@std@@@Z
       4045  FCC 00022FCA ?destroyParticleSystem@SceneManager@Ogre@@UAEXPAVParticleSystem@2@@Z
       4046  FCD 0002DADD ?destroyQuery@SceneManager@Ogre@@UAEXPAVSceneQuery@2@@Z
       4047  FCE 00037FC4 ?destroyRenderQueueInvocationSequence@Root@Ogre@@QAEXABV?$basic_string@DU?$char_traits@D@std@@V?$allocator@D@2@@std@@@Z
       4048  FCF 00029357 ?destroyRenderTarget@RenderSystem@Ogre@@UAEXABV?$basic_string@DU?$char_traits@D@std@@V?$allocator@D@2@@std@@@Z
       4049  FD0 00029A55 ?destroyRenderTarget@Root@Ogre@@QAEXABV?$basic_string@DU?$char_traits@D@std@@V?$allocator@D@2@@std@@@Z
       4050  FD1 00027070 ?destroyRenderTarget@Root@Ogre@@QAEXPAVRenderTarget@2@@Z
       4051  FD2 00019FAB ?destroyRenderTexture@RenderSystem@Ogre@@UAEXABV?$basic_string@DU?$char_traits@D@std@@V?$allocator@D@2@@std@@@Z
       4052  FD3 000258CE ?destroyRenderWindow@RenderSystem@Ogre@@UAEXABV?$basic_string@DU?$char_traits@D@std@@V?$allocator@D@2@@std@@@Z
       4053  FD4 00036282 ?destroyResourceGroup@ResourceGroupManager@Ogre@@QAEXABV?$basic_string@DU?$char_traits@D@std@@V?$allocator@D@2@@std@@@Z
       4054  FD5 0002EDD4 ?destroyResourcePool@ResourceManager@Ogre@@QAEXABV?$basic_string@DU?$char_traits@D@std@@V?$allocator@D@2@@std@@@Z
       4055  FD6 00015686 ?destroyResourcePool@ResourceManager@Ogre@@QAEXPAVResourcePool@12@@Z
       4056  FD7 0003C560 ?destroyResources@CompositorChain@Ogre@@IAEXXZ
       4057  FD8 00025914 ?destroyRibbonTrail@SceneManager@Ogre@@UAEXABV?$basic_string@DU?$char_traits@D@std@@V?$allocator@D@2@@std@@@Z
       4058  FD9 0002E5D2 ?destroyRibbonTrail@SceneManager@Ogre@@UAEXPAVRibbonTrail@2@@Z
       4059  FDA 00006451 ?destroySceneManager@Root@Ogre@@QAEXPAVSceneManager@2@@Z
       4060  FDB 0003DAAA ?destroySceneManager@SceneManagerEnumerator@Ogre@@QAEXPAVSceneManager@2@@Z
       4061  FDC 00013FE3 ?destroySceneNode@SceneManager@Ogre@@UAEXABV?$basic_string@DU?$char_traits@D@std@@V?$allocator@D@2@@std@@@Z
       4062  FDD 00022ACA ?destroySceneNode@SceneManager@Ogre@@UAEXPAVSceneNode@2@@Z
       4063  FDE 0002DC3B ?destroyShadowTextures@SceneManager@Ogre@@MAEXXZ
       4064  FDF 00012C33 ?destroySkeletonInstance@InstancedEntity@Ogre@@IAEXXZ
       4065  FE0 00032952 ?destroyStaticGeometry@SceneManager@Ogre@@UAEXABV?$basic_string@DU?$char_traits@D@std@@V?$allocator@D@2@@std@@@Z
       4066  FE1 0000452A ?destroyStaticGeometry@SceneManager@Ogre@@UAEXPAVStaticGeometry@2@@Z
       4067  FE2 00024631 ?destroySubMesh@Mesh@Ogre@@QAEXABV?$basic_string@DU?$char_traits@D@std@@V?$allocator@D@2@@std@@@Z
       4068  FE3 0002B8A5 ?destroySubMesh@Mesh@Ogre@@QAEXG@Z
       4069  FE4 0003C1FF ?destroySystemImpl@ParticleSystemManager@Ogre@@IAEXPAVParticleSystem@2@@Z
       4070  FE5 000089D6 ?destroyVertexBufferBinding@HardwareBufferManager@Ogre@@UAEXPAVVertexBufferBinding@2@@Z
       4071  FE6 0000F8A8 ?destroyVertexBufferBinding@HardwareBufferManagerBase@Ogre@@UAEXPAVVertexBufferBinding@2@@Z
       4072  FE7 00002FF4 ?destroyVertexBufferBindingImpl@HardwareBufferManagerBase@Ogre@@MAEXPAVVertexBufferBinding@2@@Z
       4073  FE8 0002E528 ?destroyVertexDeclaration@HardwareBufferManager@Ogre@@UAEXPAVVertexDeclaration@2@@Z
       4074  FE9 00006ECE ?destroyVertexDeclaration@HardwareBufferManagerBase@Ogre@@UAEXPAVVertexDeclaration@2@@Z
       4075  FEA 00002F81 ?destroyVertexDeclarationImpl@HardwareBufferManagerBase@Ogre@@MAEXPAVVertexDeclaration@2@@Z
       4076  FEB 000241AE ?destroyVertexTrack@Animation@Ogre@@QAEXG@Z
       4077  FEC 000262BA ?destroyVisualParticles@ParticleSystem@Ogre@@IAEXII@Z
       4078  FED 0001DE44 ?detachAllObjects@SceneNode@Ogre@@UAEXXZ
       4079  FEE 000096A1 ?detachAllObjectsFromBone@Entity@Ogre@@QAEXXZ
       4080  FEF 0002C02A ?detachAllObjectsImpl@Entity@Ogre@@IAEXXZ
       4081  FF0 0002168E ?detachDepthBuffer@RenderTarget@Ogre@@UAEXXZ
       4082  FF1 00024E33 ?detachFromAllRenderTargets@DepthBuffer@Ogre@@IAEXXZ
       4083  FF2 0001F99C ?detachFromParent@MovableObject@Ogre@@UAEXXZ
       4084  FF3 0001B739 ?detachObject@SceneNode@Ogre@@UAEPAVMovableObject@2@ABV?$basic_string@DU?$char_traits@D@std@@V?$allocator@D@2@@std@@@Z
       4085  FF4 0002D8C1 ?detachObject@SceneNode@Ogre@@UAEPAVMovableObject@2@G@Z
       4086  FF5 0003B368 ?detachObject@SceneNode@Ogre@@UAEXPAVMovableObject@2@@Z
       4087  FF6 0002B49F ?detachObjectFromBone@Entity@Ogre@@QAEPAVMovableObject@2@ABV?$basic_string@DU?$char_traits@D@std@@V?$allocator@D@2@@std@@@Z
       4088  FF7 00039388 ?detachObjectFromBone@Entity@Ogre@@QAEXPAVMovableObject@2@@Z
       4089  FF8 00028D44 ?detachObjectImpl@Entity@Ogre@@IAEXPAVMovableObject@2@@Z
       4090  FF9 00017A26 ?detachRenderTarget@RenderSystem@Ogre@@UAEPAVRenderTarget@2@ABV?$basic_string@DU?$char_traits@D@std@@V?$allocator@D@2@@std@@@Z
       4091  FFA 00012A26 ?detachRenderTarget@Root@Ogre@@QAEPAVRenderTarget@2@ABV?$basic_string@DU?$char_traits@D@std@@V?$allocator@D@2@@std@@@Z
       4092  FFB 00016E41 ?detachRenderTarget@Root@Ogre@@QAEPAVRenderTarget@2@PAV32@@Z
       4093  FFC 00036250 ?determinant@Matrix4@Ogre@@QBEMXZ
       4094  FFD 0001FDA7 ?determineAccess@FileStreamDataStream@Ogre@@IAEXXZ
       4095  FFE 0002DCDB ?determineEndianness@Serializer@Ogre@@MAEXAAV?$SharedPtr@VDataStream@Ogre@@@2@@Z
       4096  FFF 0003081E ?determineEndianness@Serializer@Ogre@@MAEXW4Endian@12@@Z
       4097 1000 0000F4F7 ?determineEndianness@StreamSerialiser@Ogre@@MAEXXZ
       4098 1001 0001672F ?determineGeometry@InstancedGeometry@Ogre@@IAEPAV?$vector@USubMeshLodGeometryLink@InstancedGeometry@Ogre@@V?$STLAllocator@USubMeshLodGeometryLink@InstancedGeometry@Ogre@@V?$CategorisedAllocPolicy@$0A@@3@@3@@std@@PAVSubMesh@2@@Z
       4099 1002 00027F70 ?determineGeometry@StaticGeometry@Ogre@@IAEPAV?$vector@USubMeshLodGeometryLink@StaticGeometry@Ogre@@V?$STLAllocator@USubMeshLodGeometryLink@StaticGeometry@Ogre@@V?$CategorisedAllocPolicy@$0A@@3@@3@@std@@PAVSubMesh@2@@Z
       4100 1003 0002F829 ?directionEquals@Vector3@Ogre@@QBE_NABV12@ABVRadian@2@@Z
       4101 1004 000031B1 ?disableCustomNearClipPlane@Frustum@Ogre@@UAEXXZ
       4102 1005 00005F65 ?disableProfile@Profiler@Ogre@@QAEXABV?$basic_string@DU?$char_traits@D@std@@V?$allocator@D@2@@std@@@Z
       4103 1006 00023C27 ?disableReflection@Frustum@Ogre@@UAEXXZ
       4104 1007 0003F0FD ?disconnectHandler@RequestHandlerHolder@DefaultWorkQueueBase@Ogre@@QAEXXZ
       4105 1008 0000215D ?display@ConfigDialog@Ogre@@QAE_NXZ
       4106 1009 0001D20F ?display@ErrorDialog@Ogre@@QAEXABV?$basic_string@DU?$char_traits@D@std@@V?$allocator@D@2@@std@@V34@@Z
       4107 100A 00026058 ?displayResults@ProfileSessionListener@Ogre@@UAEXABVProfileInstance@2@K@Z
       4108 100B 0003FBDE ?displayResults@Profiler@Ogre@@IAEXXZ
       4109 100C 0001E2E0 ?distance@AxisAlignedBox@Ogre@@QBEMABVVector3@2@@Z
       4110 100D 00002437 ?distance@Vector2@Ogre@@QBEMABV12@@Z
       4111 100E 0002CB4C ?distance@Vector3@Ogre@@QBEMABV12@@Z
       4112 100F 0001B978 ?distributeControlPoints@PatchSurface@Ogre@@IAEXPAX@Z
       4113 1010 0003F38C ?doGet@CmdAdjacency@GpuProgram@Ogre@@UBE?AV?$basic_string@DU?$char_traits@D@std@@V?$allocator@D@2@@std@@PBX@Z
       4114 1011 0002A0BD ?doGet@CmdAngle@EmitterCommands@Ogre@@UBE?AV?$basic_string@DU?$char_traits@D@std@@V?$allocator@D@2@@std@@PBX@Z
       4115 1012 0001CF49 ?doGet@CmdColour@EmitterCommands@Ogre@@UBE?AV?$basic_string@DU?$char_traits@D@std@@V?$allocator@D@2@@std@@PBX@Z
       4116 1013 00006479 ?doGet@CmdColourRangeEnd@EmitterCommands@Ogre@@UBE?AV?$basic_string@DU?$char_traits@D@std@@V?$allocator@D@2@@std@@PBX@Z
       4117 1014 0001E24F ?doGet@CmdColourRangeStart@EmitterCommands@Ogre@@UBE?AV?$basic_string@DU?$char_traits@D@std@@V?$allocator@D@2@@std@@PBX@Z
       4118 1015 00024BA4 ?doGet@CmdComputeGroupDims@GpuProgram@Ogre@@UBE?AV?$basic_string@DU?$char_traits@D@std@@V?$allocator@D@2@@std@@PBX@Z
       4119 1016 00005619 ?doGet@CmdDirPositionRef@EmitterCommands@Ogre@@UBE?AV?$basic_string@DU?$char_traits@D@std@@V?$allocator@D@2@@std@@PBX@Z
       4120 1017 0000A2E5 ?doGet@CmdDirection@EmitterCommands@Ogre@@UBE?AV?$basic_string@DU?$char_traits@D@std@@V?$allocator@D@2@@std@@PBX@Z
       4121 1018 00028713 ?doGet@CmdDuration@EmitterCommands@Ogre@@UBE?AV?$basic_string@DU?$char_traits@D@std@@V?$allocator@D@2@@std@@PBX@Z
       4122 1019 000267B5 ?doGet@CmdEmissionRate@EmitterCommands@Ogre@@UBE?AV?$basic_string@DU?$char_traits@D@std@@V?$allocator@D@2@@std@@PBX@Z
       4123 101A 00023B32 ?doGet@CmdEmittedEmitter@EmitterCommands@Ogre@@UBE?AV?$basic_string@DU?$char_traits@D@std@@V?$allocator@D@2@@std@@PBX@Z
       4124 101B 000011FE ?doGet@CmdManualNamedConstsFile@GpuProgram@Ogre@@UBE?AV?$basic_string@DU?$char_traits@D@std@@V?$allocator@D@2@@std@@PBX@Z
       4125 101C 000117A7 ?doGet@CmdMaxDuration@EmitterCommands@Ogre@@UBE?AV?$basic_string@DU?$char_traits@D@std@@V?$allocator@D@2@@std@@PBX@Z
       4126 101D 0002E9BF ?doGet@CmdMaxRepeatDelay@EmitterCommands@Ogre@@UBE?AV?$basic_string@DU?$char_traits@D@std@@V?$allocator@D@2@@std@@PBX@Z
       4127 101E 0003D8A2 ?doGet@CmdMaxTTL@EmitterCommands@Ogre@@UBE?AV?$basic_string@DU?$char_traits@D@std@@V?$allocator@D@2@@std@@PBX@Z
       4128 101F 0003453B ?doGet@CmdMaxVelocity@EmitterCommands@Ogre@@UBE?AV?$basic_string@DU?$char_traits@D@std@@V?$allocator@D@2@@std@@PBX@Z
       4129 1020 00034C02 ?doGet@CmdMinDuration@EmitterCommands@Ogre@@UBE?AV?$basic_string@DU?$char_traits@D@std@@V?$allocator@D@2@@std@@PBX@Z
       4130 1021 0001C841 ?doGet@CmdMinRepeatDelay@EmitterCommands@Ogre@@UBE?AV?$basic_string@DU?$char_traits@D@std@@V?$allocator@D@2@@std@@PBX@Z
       4131 1022 00032745 ?doGet@CmdMinTTL@EmitterCommands@Ogre@@UBE?AV?$basic_string@DU?$char_traits@D@std@@V?$allocator@D@2@@std@@PBX@Z
       4132 1023 00013200 ?doGet@CmdMinVelocity@EmitterCommands@Ogre@@UBE?AV?$basic_string@DU?$char_traits@D@std@@V?$allocator@D@2@@std@@PBX@Z
       4133 1024 000270B1 ?doGet@CmdMorph@GpuProgram@Ogre@@UBE?AV?$basic_string@DU?$char_traits@D@std@@V?$allocator@D@2@@std@@PBX@Z
       4134 1025 00028F5B ?doGet@CmdName@EmitterCommands@Ogre@@UBE?AV?$basic_string@DU?$char_traits@D@std@@V?$allocator@D@2@@std@@PBX@Z
       4135 1026 0000759A ?doGet@CmdPose@GpuProgram@Ogre@@UBE?AV?$basic_string@DU?$char_traits@D@std@@V?$allocator@D@2@@std@@PBX@Z
       4136 1027 000245CD ?doGet@CmdPosition@EmitterCommands@Ogre@@UBE?AV?$basic_string@DU?$char_traits@D@std@@V?$allocator@D@2@@std@@PBX@Z
       4137 1028 00022F07 ?doGet@CmdRepeatDelay@EmitterCommands@Ogre@@UBE?AV?$basic_string@DU?$char_traits@D@std@@V?$allocator@D@2@@std@@PBX@Z
       4138 1029 00030E3B ?doGet@CmdSkeletal@GpuProgram@Ogre@@UBE?AV?$basic_string@DU?$char_traits@D@std@@V?$allocator@D@2@@std@@PBX@Z
       4139 102A 0003F530 ?doGet@CmdSyntax@GpuProgram@Ogre@@UBE?AV?$basic_string@DU?$char_traits@D@std@@V?$allocator@D@2@@std@@PBX@Z
       4140 102B 0000C757 ?doGet@CmdTTL@EmitterCommands@Ogre@@UBE?AV?$basic_string@DU?$char_traits@D@std@@V?$allocator@D@2@@std@@PBX@Z
       4141 102C 00027E7B ?doGet@CmdType@GpuProgram@Ogre@@UBE?AV?$basic_string@DU?$char_traits@D@std@@V?$allocator@D@2@@std@@PBX@Z
       4142 102D 00017DB4 ?doGet@CmdUp@EmitterCommands@Ogre@@UBE?AV?$basic_string@DU?$char_traits@D@std@@V?$allocator@D@2@@std@@PBX@Z
       4143 102E 00032DD5 ?doGet@CmdVTF@GpuProgram@Ogre@@UBE?AV?$basic_string@DU?$char_traits@D@std@@V?$allocator@D@2@@std@@PBX@Z
       4144 102F 00020C84 ?doGet@CmdVelocity@EmitterCommands@Ogre@@UBE?AV?$basic_string@DU?$char_traits@D@std@@V?$allocator@D@2@@std@@PBX@Z
       4145 1030 0002ED7A ?doSet@CmdAdjacency@GpuProgram@Ogre@@UAEXPAXABV?$basic_string@DU?$char_traits@D@std@@V?$allocator@D@2@@std@@@Z
       4146 1031 00008639 ?doSet@CmdAngle@EmitterCommands@Ogre@@UAEXPAXABV?$basic_string@DU?$char_traits@D@std@@V?$allocator@D@2@@std@@@Z
       4147 1032 00013818 ?doSet@CmdColour@EmitterCommands@Ogre@@UAEXPAXABV?$basic_string@DU?$char_traits@D@std@@V?$allocator@D@2@@std@@@Z
       4148 1033 00030AB2 ?doSet@CmdColourRangeEnd@EmitterCommands@Ogre@@UAEXPAXABV?$basic_string@DU?$char_traits@D@std@@V?$allocator@D@2@@std@@@Z
       4149 1034 000195A1 ?doSet@CmdColourRangeStart@EmitterCommands@Ogre@@UAEXPAXABV?$basic_string@DU?$char_traits@D@std@@V?$allocator@D@2@@std@@@Z
       4150 1035 000135ED ?doSet@CmdComputeGroupDims@GpuProgram@Ogre@@UAEXPAXABV?$basic_string@DU?$char_traits@D@std@@V?$allocator@D@2@@std@@@Z
       4151 1036 00030A80 ?doSet@CmdDirPositionRef@EmitterCommands@Ogre@@UAEXPAXABV?$basic_string@DU?$char_traits@D@std@@V?$allocator@D@2@@std@@@Z
       4152 1037 0003D13B ?doSet@CmdDirection@EmitterCommands@Ogre@@UAEXPAXABV?$basic_string@DU?$char_traits@D@std@@V?$allocator@D@2@@std@@@Z
       4153 1038 0002D2BD ?doSet@CmdDuration@EmitterCommands@Ogre@@UAEXPAXABV?$basic_string@DU?$char_traits@D@std@@V?$allocator@D@2@@std@@@Z
       4154 1039 0000F515 ?doSet@CmdEmissionRate@EmitterCommands@Ogre@@UAEXPAXABV?$basic_string@DU?$char_traits@D@std@@V?$allocator@D@2@@std@@@Z
       4155 103A 0003A7AB ?doSet@CmdEmittedEmitter@EmitterCommands@Ogre@@UAEXPAXABV?$basic_string@DU?$char_traits@D@std@@V?$allocator@D@2@@std@@@Z
       4156 103B 00035954 ?doSet@CmdManualNamedConstsFile@GpuProgram@Ogre@@UAEXPAXABV?$basic_string@DU?$char_traits@D@std@@V?$allocator@D@2@@std@@@Z
       4157 103C 000331D1 ?doSet@CmdMaxDuration@EmitterCommands@Ogre@@UAEXPAXABV?$basic_string@DU?$char_traits@D@std@@V?$allocator@D@2@@std@@@Z
       4158 103D 00023902 ?doSet@CmdMaxRepeatDelay@EmitterCommands@Ogre@@UAEXPAXABV?$basic_string@DU?$char_traits@D@std@@V?$allocator@D@2@@std@@@Z
       4159 103E 000158F2 ?doSet@CmdMaxTTL@EmitterCommands@Ogre@@UAEXPAXABV?$basic_string@DU?$char_traits@D@std@@V?$allocator@D@2@@std@@@Z
       4160 103F 0003BAB6 ?doSet@CmdMaxVelocity@EmitterCommands@Ogre@@UAEXPAXABV?$basic_string@DU?$char_traits@D@std@@V?$allocator@D@2@@std@@@Z
       4161 1040 0000E3CC ?doSet@CmdMinDuration@EmitterCommands@Ogre@@UAEXPAXABV?$basic_string@DU?$char_traits@D@std@@V?$allocator@D@2@@std@@@Z
       4162 1041 0001C4D6 ?doSet@CmdMinRepeatDelay@EmitterCommands@Ogre@@UAEXPAXABV?$basic_string@DU?$char_traits@D@std@@V?$allocator@D@2@@std@@@Z
       4163 1042 00035477 ?doSet@CmdMinTTL@EmitterCommands@Ogre@@UAEXPAXABV?$basic_string@DU?$char_traits@D@std@@V?$allocator@D@2@@std@@@Z
       4164 1043 0001FFB9 ?doSet@CmdMinVelocity@EmitterCommands@Ogre@@UAEXPAXABV?$basic_string@DU?$char_traits@D@std@@V?$allocator@D@2@@std@@@Z
       4165 1044 000369E4 ?doSet@CmdMorph@GpuProgram@Ogre@@UAEXPAXABV?$basic_string@DU?$char_traits@D@std@@V?$allocator@D@2@@std@@@Z
       4166 1045 000240CD ?doSet@CmdName@EmitterCommands@Ogre@@UAEXPAXABV?$basic_string@DU?$char_traits@D@std@@V?$allocator@D@2@@std@@@Z
       4167 1046 00019B0A ?doSet@CmdPose@GpuProgram@Ogre@@UAEXPAXABV?$basic_string@DU?$char_traits@D@std@@V?$allocator@D@2@@std@@@Z
       4168 1047 0002DE7F ?doSet@CmdPosition@EmitterCommands@Ogre@@UAEXPAXABV?$basic_string@DU?$char_traits@D@std@@V?$allocator@D@2@@std@@@Z
       4169 1048 00015D75 ?doSet@CmdRepeatDelay@EmitterCommands@Ogre@@UAEXPAXABV?$basic_string@DU?$char_traits@D@std@@V?$allocator@D@2@@std@@@Z
       4170 1049 000080B2 ?doSet@CmdSkeletal@GpuProgram@Ogre@@UAEXPAXABV?$basic_string@DU?$char_traits@D@std@@V?$allocator@D@2@@std@@@Z
       4171 104A 00024A82 ?doSet@CmdSyntax@GpuProgram@Ogre@@UAEXPAXABV?$basic_string@DU?$char_traits@D@std@@V?$allocator@D@2@@std@@@Z
       4172 104B 0000B375 ?doSet@CmdTTL@EmitterCommands@Ogre@@UAEXPAXABV?$basic_string@DU?$char_traits@D@std@@V?$allocator@D@2@@std@@@Z
       4173 104C 00016A1D ?doSet@CmdType@GpuProgram@Ogre@@UAEXPAXABV?$basic_string@DU?$char_traits@D@std@@V?$allocator@D@2@@std@@@Z
       4174 104D 00024BD1 ?doSet@CmdUp@EmitterCommands@Ogre@@UAEXPAXABV?$basic_string@DU?$char_traits@D@std@@V?$allocator@D@2@@std@@@Z
       4175 104E 00004322 ?doSet@CmdVTF@GpuProgram@Ogre@@UAEXPAXABV?$basic_string@DU?$char_traits@D@std@@V?$allocator@D@2@@std@@@Z
       4176 104F 00020D1A ?doSet@CmdVelocity@EmitterCommands@Ogre@@UAEXPAXABV?$basic_string@DU?$char_traits@D@std@@V?$allocator@D@2@@std@@@Z
       4177 1050 0001DBAB ?dotProduct@Vector2@Ogre@@QBEMABV12@@Z
       4178 1051 0001E6DC ?dotProduct@Vector3@Ogre@@QBEMABV12@@Z
       4179 1052 0003D2D5 ?dotProduct@Vector4@Ogre@@QBEMABV12@@Z
       4180 1053 0000B7D0 ?dropGroupContents@ResourceGroupManager@Ogre@@IAEXPAUResourceGroup@12@@Z
       4181 1054 00028934 ?dump@BatchInstance@InstancedGeometry@Ogre@@QBEXAAV?$basic_ofstream@DU?$char_traits@D@std@@@std@@@Z
       4182 1055 0001302F ?dump@GeometryBucket@InstancedGeometry@Ogre@@QBEXAAV?$basic_ofstream@DU?$char_traits@D@std@@@std@@@Z
       4183 1056 00002243 ?dump@GeometryBucket@StaticGeometry@Ogre@@QBEXAAV?$basic_ofstream@DU?$char_traits@D@std@@@std@@@Z
       4184 1057 00038AFA ?dump@InstancedGeometry@Ogre@@UBEXABV?$basic_string@DU?$char_traits@D@std@@V?$allocator@D@2@@std@@@Z
       4185 1058 0002470D ?dump@LODBucket@InstancedGeometry@Ogre@@QBEXAAV?$basic_ofstream@DU?$char_traits@D@std@@@std@@@Z
       4186 1059 0002938E ?dump@LODBucket@StaticGeometry@Ogre@@QBEXAAV?$basic_ofstream@DU?$char_traits@D@std@@@std@@@Z
       4187 105A 0001BB8A ?dump@MaterialBucket@InstancedGeometry@Ogre@@QBEXAAV?$basic_ofstream@DU?$char_traits@D@std@@@std@@@Z
       4188 105B 0003D4A1 ?dump@MaterialBucket@StaticGeometry@Ogre@@QBEXAAV?$basic_ofstream@DU?$char_traits@D@std@@@std@@@Z
       4189 105C 000272BE ?dump@Region@StaticGeometry@Ogre@@QBEXAAV?$basic_ofstream@DU?$char_traits@D@std@@@std@@@Z
       4190 105D 00023BAA ?dump@StaticGeometry@Ogre@@UBEXABV?$basic_string@DU?$char_traits@D@std@@V?$allocator@D@2@@std@@@Z
       4191 105E 0003FF62 ?dynlibError@DynLib@Ogre@@IAE?AV?$basic_string@DU?$char_traits@D@std@@V?$allocator@D@2@@std@@XZ
       4192 105F 0002AC20 ?empty@UTFString@Ogre@@QBE_NXZ
       4193 1060 00014A1A ?enableCustomNearClipPlane@Frustum@Ogre@@UAEXABVPlane@2@@Z
       4194 1061 0003FDD2 ?enableCustomNearClipPlane@Frustum@Ogre@@UAEXPBVMovablePlane@2@@Z
       4195 1062 000114CD ?enableProfile@Profiler@Ogre@@QAEXABV?$basic_string@DU?$char_traits@D@std@@V?$allocator@D@2@@std@@@Z
       4196 1063 0002554A ?enableReflection@Frustum@Ogre@@UAEXABVPlane@2@@Z
       4197 1064 00023C7C ?enableReflection@Frustum@Ogre@@UAEXPBVMovablePlane@2@@Z
       4198 1065 00029F78 ?encode@DDSCodec@Ogre@@UBE?AV?$SharedPtr@VDataStream@Ogre@@@2@AAV?$SharedPtr@VMemoryDataStream@Ogre@@@2@AAV?$SharedPtr@VCodecData@Codec@Ogre@@@2@@Z
       4199 1066 00035AA8 ?encode@FreeImageCodec@Ogre@@UBE?AV?$SharedPtr@VDataStream@Ogre@@@2@AAV?$SharedPtr@VMemoryDataStream@Ogre@@@2@AAV?$SharedPtr@VCodecData@Codec@Ogre@@@2@@Z
       4200 1067 00018D40 ?encode@Image@Ogre@@QAE?AV?$SharedPtr@VDataStream@Ogre@@@2@ABV?$basic_string@DU?$char_traits@D@std@@V?$allocator@D@2@@std@@@Z
       4201 1068 00023EC5 ?encodeBitmap@FreeImageCodec@Ogre@@ABEPAUFIBITMAP@@AAV?$SharedPtr@VMemoryDataStream@Ogre@@@2@AAV?$SharedPtr@VCodecData@Codec@Ogre@@@2@@Z
       4202 1069 0001DA0C ?encodeToFile@DDSCodec@Ogre@@UBEXAAV?$SharedPtr@VMemoryDataStream@Ogre@@@2@ABV?$basic_string@DU?$char_traits@D@std@@V?$allocator@D@2@@std@@AAV?$SharedPtr@VCodecData@Codec@Ogre@@@2@@Z
       4203 106A 00026D69 ?encodeToFile@FreeImageCodec@Ogre@@UBEXAAV?$SharedPtr@VMemoryDataStream@Ogre@@@2@ABV?$basic_string@DU?$char_traits@D@std@@V?$allocator@D@2@@std@@AAV?$SharedPtr@VCodecData@Codec@Ogre@@@2@@Z
       4204 106B 0002A306 ?end@ManualObject@Ogre@@UAEPAVManualObjectSection@12@XZ
       4205 106C 00034473 ?end@ParticleIterator@Ogre@@QAE_NXZ
       4206 106D 0000B2AD ?end@UTFString@Ogre@@QAE?AV_fwd_iterator@12@XZ
       4207 106E 0003C5C9 ?end@UTFString@Ogre@@QBE?AV_const_fwd_iterator@12@XZ
       4208 106F 00009F70 ?endBillboards@BillboardSet@Ogre@@QAEXXZ
       4209 1070 00017B93 ?endGPUEvent@Profiler@Ogre@@QAEXABV?$basic_string@DU?$char_traits@D@std@@V?$allocator@D@2@@std@@@Z
       4210 1071 00031BE2 ?endProfile@Profiler@Ogre@@QAEXABV?$basic_string@DU?$char_traits@D@std@@V?$allocator@D@2@@std@@I@Z
       4211 1072 00027836 ?endRenderingQueued@Root@Ogre@@QAE_NXZ
       4212 1073 0002BE95 ?endSection@MaterialSerializer@Ogre@@QAEXG_N@Z
       4213 1074 0000B938 ?endsWith@StringUtil@Ogre@@SA_NABV?$basic_string@DU?$char_traits@D@std@@V?$allocator@D@2@@std@@0_N@Z
       4214 1075 0001599C ?ensureLoaded@TextureUnitState@Ogre@@IBEXI@Z
       4215 1076 00036B06 ?ensurePrepared@TextureUnitState@Ogre@@IBEXI@Z
       4216 1077 00016B03 ?ensureShadowTexturesCreated@SceneManager@Ogre@@MAEXXZ
       4217 1078 0000DCD3 ?eof@DeflateStream@Ogre@@UBE_NXZ
       4218 1079 0002B724 ?eof@FileHandleDataStream@Ogre@@UBE_NXZ
       4219 107A 0000FE89 ?eof@FileStreamDataStream@Ogre@@UBE_NXZ
       4220 107B 0000E881 ?eof@MemoryDataStream@Ogre@@UBE_NXZ
       4221 107C 0001DBE2 ?eof@StreamSerialiser@Ogre@@UBE_NXZ
       4222 107D 00039CE8 ?equals@Quaternion@Ogre@@QBE_NABV12@ABVRadian@2@@Z
       4223 107E 0002D52E ?erase@UTFString@Ogre@@QAE?AV_fwd_iterator@12@V312@0@Z
       4224 107F 0003094A ?erase@UTFString@Ogre@@QAE?AV_fwd_iterator@12@V312@@Z
       4225 1080 00009304 ?erase@UTFString@Ogre@@QAEAAV12@II@Z
       4226 1081 00035CC4 ?eraseUserAny@UserObjectBindings@Ogre@@QAEXABV?$basic_string@DU?$char_traits@D@std@@V?$allocator@D@2@@std@@@Z
       4227 1082 00015E10 ?escalateLoading@Resource@Ogre@@UAEXXZ
       4228 1083 0002F897 ?escalateLoading@UnifiedHighLevelGpuProgram@Ogre@@UAEXXZ
       4229 1084 00034086 ?estimateIndexCount@ManualObject@Ogre@@UAEXI@Z
       4230 1085 0001BA3B ?estimateVertexCount@ManualObject@Ogre@@UAEXI@Z
       4231 1086 0002BE5E ?estimateWorldGeometry@SceneManager@Ogre@@UAEIAAV?$SharedPtr@VDataStream@Ogre@@@2@ABV?$basic_string@DU?$char_traits@D@std@@V?$allocator@D@2@@std@@@Z
       4232 1087 0001C8B9 ?estimateWorldGeometry@SceneManager@Ogre@@UAEIABV?$basic_string@DU?$char_traits@D@std@@V?$allocator@D@2@@std@@@Z
       4233 1088 0095B7F8 ?eventType@CreateCompositorScriptCompilerEvent@Ogre@@2V?$basic_string@DU?$char_traits@D@std@@V?$allocator@D@2@@std@@A
       4234 1089 0095B798 ?eventType@CreateGpuProgramScriptCompilerEvent@Ogre@@2V?$basic_string@DU?$char_traits@D@std@@V?$allocator@D@2@@std@@A
       4235 108A 0095B7C8 ?eventType@CreateGpuSharedParametersScriptCompilerEvent@Ogre@@2V?$basic_string@DU?$char_traits@D@std@@V?$allocator@D@2@@std@@A
       4236 108B 0095B7B0 ?eventType@CreateHighLevelGpuProgramScriptCompilerEvent@Ogre@@2V?$basic_string@DU?$char_traits@D@std@@V?$allocator@D@2@@std@@A
       4237 108C 0095B780 ?eventType@CreateMaterialScriptCompilerEvent@Ogre@@2V?$basic_string@DU?$char_traits@D@std@@V?$allocator@D@2@@std@@A
       4238 108D 0095B7E0 ?eventType@CreateParticleSystemScriptCompilerEvent@Ogre@@2V?$basic_string@DU?$char_traits@D@std@@V?$allocator@D@2@@std@@A
       4239 108E 0095B738 ?eventType@PreApplyTextureAliasesScriptCompilerEvent@Ogre@@2V?$basic_string@DU?$char_traits@D@std@@V?$allocator@D@2@@std@@A
       4240 108F 0095B768 ?eventType@ProcessNameExclusionScriptCompilerEvent@Ogre@@2V?$basic_string@DU?$char_traits@D@std@@V?$allocator@D@2@@std@@A
       4241 1090 0095B750 ?eventType@ProcessResourceNameScriptCompilerEvent@Ogre@@2V?$basic_string@DU?$char_traits@D@std@@V?$allocator@D@2@@std@@A
       4242 1091 00009282 ?execute@DefaultAxisAlignedBoxSceneQuery@Ogre@@UAEXPAVSceneQueryListener@2@@Z
       4243 1092 0003742F ?execute@DefaultIntersectionSceneQuery@Ogre@@UAEXPAVIntersectionSceneQueryListener@2@@Z
       4244 1093 0003FADF ?execute@DefaultPlaneBoundedVolumeListSceneQuery@Ogre@@UAEXPAVSceneQueryListener@2@@Z
       4245 1094 0002B175 ?execute@DefaultRaySceneQuery@Ogre@@UAEXPAVRaySceneQueryListener@2@@Z
       4246 1095 0003C03D ?execute@DefaultSphereSceneQuery@Ogre@@UAEXPAVSceneQueryListener@2@@Z
       4247 1096 00007D6A ?execute@IntersectionSceneQuery@Ogre@@UAEAAUIntersectionSceneQueryResult@2@XZ
       4248 1097 000147D1 ?execute@RaySceneQuery@Ogre@@UAEAAV?$vector@URaySceneQueryResultEntry@Ogre@@V?$STLAllocator@URaySceneQueryResultEntry@Ogre@@V?$CategorisedAllocPolicy@$0A@@2@@2@@std@@XZ
       4249 1098 0002292B ?execute@RegionSceneQuery@Ogre@@UAEAAUSceneQueryResult@2@XZ
       4250 1099 00016649 ?exists@FileSystemArchive@Ogre@@UAE_NABV?$basic_string@DU?$char_traits@D@std@@V?$allocator@D@2@@std@@@Z
       4251 109A 00006D6B ?exists@ZipArchive@Ogre@@UAE_NABV?$basic_string@DU?$char_traits@D@std@@V?$allocator@D@2@@std@@@Z
       4252 109B 000078DD ?exportMaterial@MaterialSerializer@Ogre@@QAEXABV?$SharedPtr@VMaterial@Ogre@@@2@ABV?$basic_string@DU?$char_traits@D@std@@V?$allocator@D@2@@std@@_N_N11@Z
       4253 109C 00033D7A ?exportMesh@MeshSerializer@Ogre@@QAEXPBVMesh@2@ABV?$basic_string@DU?$char_traits@D@std@@V?$allocator@D@2@@std@@W4Endian@Serializer@2@@Z
       4254 109D 00033C80 ?exportMesh@MeshSerializer@Ogre@@QAEXPBVMesh@2@ABV?$basic_string@DU?$char_traits@D@std@@V?$allocator@D@2@@std@@W4MeshVersion@2@W4Endian@Serializer@2@@Z
       4255 109E 00027D54 ?exportMesh@MeshSerializer@Ogre@@QAEXPBVMesh@2@V?$SharedPtr@VDataStream@Ogre@@@2@W4Endian@Serializer@2@@Z
       4256 109F 0002ADF1 ?exportMesh@MeshSerializer@Ogre@@QAEXPBVMesh@2@V?$SharedPtr@VDataStream@Ogre@@@2@W4MeshVersion@2@W4Endian@Serializer@2@@Z
       4257 10A0 00013CE6 ?exportNamedConstants@GpuNamedConstantsSerializer@Ogre@@QAEXPBUGpuNamedConstants@2@ABV?$basic_string@DU?$char_traits@D@std@@V?$allocator@D@2@@std@@W4Endian@Serializer@2@@Z
       4258 10A1 00036273 ?exportNamedConstants@GpuNamedConstantsSerializer@Ogre@@QAEXPBUGpuNamedConstants@2@V?$SharedPtr@VDataStream@Ogre@@@2@W4Endian@Serializer@2@@Z
       4259 10A2 0003A06C ?exportQueued@MaterialSerializer@Ogre@@QAEXABV?$basic_string@DU?$char_traits@D@std@@V?$allocator@D@2@@std@@_N0@Z
       4260 10A3 0000B753 ?exportSkeleton@SkeletonSerializer@Ogre@@QAEXPBVSkeleton@2@ABV?$basic_string@DU?$char_traits@D@std@@V?$allocator@D@2@@std@@W4SkeletonVersion@2@W4Endian@Serializer@2@@Z
       4261 10A4 0001CCC4 ?exportSkeleton@SkeletonSerializer@Ogre@@QAEXPBVSkeleton@2@V?$SharedPtr@VDataStream@Ogre@@@2@W4SkeletonVersion@2@W4Endian@Serializer@2@@Z
       4262 10A5 00026C3D ?extend@ConvexBody@Ogre@@QAEXABVVector3@2@@Z
       4263 10A6 000236CD ?extendBuffers@TangentSpaceCalc@Ogre@@IAEXAAV?$list@U?$pair@II@std@@V?$STLAllocator@U?$pair@II@std@@V?$CategorisedAllocPolicy@$0A@@Ogre@@@Ogre@@@std@@@Z
       4264 10A7 000212D8 ?extract3x3Matrix@Matrix4@Ogre@@QBEXAAVMatrix3@2@@Z
       4265 10A8 0000991C ?extractAllMovableObjectsByType@SceneManager@Ogre@@UAEXABV?$basic_string@DU?$char_traits@D@std@@V?$allocator@D@2@@std@@@Z
       4266 10A9 0001A72B ?extractFrom@TempBlendedBufferInfo@Ogre@@QAEXPBVVertexData@2@@Z
       4267 10AA 0001099C ?extractMovableObject@SceneManager@Ogre@@UAEXABV?$basic_string@DU?$char_traits@D@std@@V?$allocator@D@2@@std@@0@Z
       4268 10AB 0001AF28 ?extractMovableObject@SceneManager@Ogre@@UAEXPAVMovableObject@2@@Z
       4269 10AC 00011AB8 ?extractQuaternion@Matrix4@Ogre@@QBE?AVQuaternion@2@XZ
       4270 10AD 0000316B ?extractTempBufferInfo@Entity@Ogre@@IAEXPAVVertexData@2@PAVTempBlendedBufferInfo@2@@Z
       4271 10AE 00024EEC ?extrudeBounds@ShadowCaster@Ogre@@MBEXAAVAxisAlignedBox@2@ABVVector4@2@M@Z
       4272 10AF 0001990C ?extrudeVertices@ShadowCaster@Ogre@@SAXABVHardwareVertexBufferSharedPtr@2@IABVVector4@2@M@Z
       4273 10B0 009ABFA8 ?fDeg2Rad@Math@Ogre@@2MB
       4274 10B1 009ABFAC ?fRad2Deg@Math@Ogre@@2MB
       4275 10B2 00038A14 ?fastForward@ParticleSystem@Ogre@@QAEXMM@Z
       4276 10B3 00001D6B ?fileExists@FileSystemLayer@Ogre@@SA_NABV?$basic_string@DU?$char_traits@D@std@@V?$allocator@D@2@@std@@@Z
       4277 10B4 000239C0 ?finalisePoseNormals@Entity@Ogre@@IAEXPBVVertexData@2@PAV32@@Z
       4278 10B5 0000F1FF ?find@FileSystemArchive@Ogre@@UAE?AV?$SharedPtr@V?$vector@V?$basic_string@DU?$char_traits@D@std@@V?$allocator@D@2@@std@@V?$STLAllocator@V?$basic_string@DU?$char_traits@D@std@@V?$allocator@D@2@@std@@V?$CategorisedAllocPolicy@$0A@@Ogre@@@Ogre@@@std@@@2@ABV?$basic_string@DU?$char_traits@D@std@@V?$allocator@D@2@@std@@_N1@Z
       4279 10B6 0000E390 ?find@UTFString@Ogre@@QBEIABV12@I@Z
       4280 10B7 000167E8 ?find@UTFString@Ogre@@QBEIDI@Z
       4281 10B8 000167A2 ?find@UTFString@Ogre@@QBEIGI@Z
       4282 10B9 000165F4 ?find@UTFString@Ogre@@QBEIII@Z
       4283 10BA 0003D71C ?find@UTFString@Ogre@@QBEIPBDII@Z
       4284 10BB 00010276 ?find@UTFString@Ogre@@QBEIPBGII@Z
       4285 10BC 0000BD34 ?find@UTFString@Ogre@@QBEIPB_WII@Z
       4286 10BD 0000DA6C ?find@UTFString@Ogre@@QBEI_WI@Z
       4287 10BE 000236A5 ?find@ZipArchive@Ogre@@UAE?AV?$SharedPtr@V?$vector@V?$basic_string@DU?$char_traits@D@std@@V?$allocator@D@2@@std@@V?$STLAllocator@V?$basic_string@DU?$char_traits@D@std@@V?$allocator@D@2@@std@@V?$CategorisedAllocPolicy@$0A@@Ogre@@@Ogre@@@std@@@2@ABV?$basic_string@DU?$char_traits@D@std@@V?$allocator@D@2@@std@@_N1@Z
       4288 10BF 0001540B ?findAndEraseEdgePair@ConvexBody@Ogre@@IBE_NABVVector3@2@AAV?$multimap@VVector3@Ogre@@V12@U?$less@VVector3@Ogre@@@std@@V?$STLAllocator@U?$pair@$$CBVVector3@Ogre@@V12@@std@@V?$CategorisedAllocPolicy@$0A@@Ogre@@@2@@std@@AAV32@@Z
       4289 10C0 0000C482 ?findAutoConstantEntry@GpuProgramParameters@Ogre@@QBEPBVAutoConstantEntry@12@ABV?$basic_string@DU?$char_traits@D@std@@V?$allocator@D@2@@std@@@Z
       4290 10C1 0000C789 ?findBlendedVertexData@Entity@Ogre@@IAEPBVVertexData@2@PBV32@@Z
       4291 10C2 000259AF ?findCommandLineOpts@Ogre@@YAHHPAPADAAV?$map@V?$basic_string@DU?$char_traits@D@std@@V?$allocator@D@2@@std@@_NU?$less@V?$basic_string@DU?$char_traits@D@std@@V?$allocator@D@2@@std@@@2@V?$STLAllocator@U?$pair@$$CBV?$basic_string@DU?$char_traits@D@std@@V?$allocator@D@2@@std@@_N@std@@V?$CategorisedAllocPolicy@$0A@@Ogre@@@Ogre@@@std@@AAV?$map@V?$basic_string@DU?$char_traits@D@std@@V?$allocator@D@2@@std@@V12@U?$less@V?$basic_string@DU?$char_traits@D@std@@V?$allocator@D@2@@std@@@2@V?$STLAllocator@U?$pair@$$CBV?$basic_string@DU?$char_traits@D@std@@V?$allocator@D@2@@std@@V12@@std@@V?$CategorisedAllocPolicy@$0A@@Ogre@@@Ogre@@@3@@Z
       4292 10C3 0002BF4E ?findDoubleAutoConstantEntry@GpuProgramParameters@Ogre@@QAEPBVAutoConstantEntry@12@I@Z
       4293 10C4 00010005 ?findElementBySemantic@VertexDeclaration@Ogre@@UBEPBVVertexElement@2@W4VertexElementSemantic@2@G@Z
       4294 10C5 00003427 ?findElementsBySource@VertexDeclaration@Ogre@@UBE?AV?$list@VVertexElement@Ogre@@V?$STLAllocator@VVertexElement@Ogre@@V?$CategorisedAllocPolicy@$0A@@2@@2@@std@@G@Z
       4295 10C6 000236C8 ?findFileInfo@FileSystemArchive@Ogre@@UAE?AV?$SharedPtr@V?$vector@UFileInfo@Ogre@@V?$STLAllocator@UFileInfo@Ogre@@V?$CategorisedAllocPolicy@$0A@@2@@2@@std@@@2@ABV?$basic_string@DU?$char_traits@D@std@@V?$allocator@D@2@@std@@_N1@Z
       4296 10C7 00012EBD ?findFileInfo@ZipArchive@Ogre@@UAE?AV?$SharedPtr@V?$vector@UFileInfo@Ogre@@V?$STLAllocator@UFileInfo@Ogre@@V?$CategorisedAllocPolicy@$0A@@2@@2@@std@@@2@ABV?$basic_string@DU?$char_traits@D@std@@V?$allocator@D@2@@std@@_N1@Z
       4297 10C8 000320B5 ?findFiles@FileSystemArchive@Ogre@@IAEXABV?$basic_string@DU?$char_traits@D@std@@V?$allocator@D@2@@std@@_N1PAV?$vector@V?$basic_string@DU?$char_traits@D@std@@V?$allocator@D@2@@std@@V?$STLAllocator@V?$basic_string@DU?$char_traits@D@std@@V?$allocator@D@2@@std@@V?$CategorisedAllocPolicy@$0A@@Ogre@@@Ogre@@@4@PAV?$vector@UFileInfo@Ogre@@V?$STLAllocator@UFileInfo@Ogre@@V?$CategorisedAllocPolicy@$0A@@2@@2@@4@@Z
       4298 10C9 0003DBC7 ?findFloatAutoConstantEntry@GpuProgramParameters@Ogre@@QAEPBVAutoConstantEntry@12@I@Z
       4299 10CA 00030F3F ?findFreeEmittedEmitter@ParticleSystem@Ogre@@IAEPAV?$list@PAVParticleEmitter@Ogre@@V?$STLAllocator@PAVParticleEmitter@Ogre@@V?$CategorisedAllocPolicy@$0A@@2@@2@@std@@ABV?$basic_string@DU?$char_traits@D@std@@V?$allocator@D@2@@4@@Z
       4300 10CB 0001DF7A ?findGroupContainingResource@ResourceGroupManager@Ogre@@QAEABV?$basic_string@DU?$char_traits@D@std@@V?$allocator@D@2@@std@@ABV34@@Z
       4301 10CC 0002D37B ?findGroupContainingResourceImpl@ResourceGroupManager@Ogre@@IAEPAUResourceGroup@12@ABV?$basic_string@DU?$char_traits@D@std@@V?$allocator@D@2@@std@@@Z
       4302 10CD 0001BD51 ?findIntAutoConstantEntry@GpuProgramParameters@Ogre@@QAEPBVAutoConstantEntry@12@I@Z
       4303 10CE 0000A5CE ?findLevel@PatchSurface@Ogre@@IAEIAAVVector3@2@00@Z
       4304 10CF 0001F73A ?findLights@SceneNode@Ogre@@UBEXAAV?$HashedVector@PAVLight@Ogre@@@2@MI@Z
       4305 10D0 000209FF ?findLightsAffectingFrustum@SceneManager@Ogre@@MAEXPBVCamera@2@@Z
       4306 10D1 00027750 ?findOrCreateCommonVertex@EdgeListBuilder@Ogre@@IAEIABVVector3@2@III@Z
       4307 10D2 00036CE1 ?findResourceFileInfo@ResourceGroupManager@Ogre@@QAE?AV?$SharedPtr@V?$vector@UFileInfo@Ogre@@V?$STLAllocator@UFileInfo@Ogre@@V?$CategorisedAllocPolicy@$0A@@2@@2@@std@@@2@ABV?$basic_string@DU?$char_traits@D@std@@V?$allocator@D@2@@std@@0_N@Z
       4308 10D3 00039036 ?findResourceLocation@ResourceGroupManager@Ogre@@QAE?AV?$SharedPtr@V?$vector@V?$basic_string@DU?$char_traits@D@std@@V?$allocator@D@2@@std@@V?$STLAllocator@V?$basic_string@DU?$char_traits@D@std@@V?$allocator@D@2@@std@@V?$CategorisedAllocPolicy@$0A@@Ogre@@@Ogre@@@std@@@2@ABV?$basic_string@DU?$char_traits@D@std@@V?$allocator@D@2@@std@@0@Z
       4309 10D4 00005EB1 ?findResourceNames@ResourceGroupManager@Ogre@@QAE?AV?$SharedPtr@V?$vector@V?$basic_string@DU?$char_traits@D@std@@V?$allocator@D@2@@std@@V?$STLAllocator@V?$basic_string@DU?$char_traits@D@std@@V?$allocator@D@2@@std@@V?$CategorisedAllocPolicy@$0A@@Ogre@@@Ogre@@@std@@@2@ABV?$basic_string@DU?$char_traits@D@std@@V?$allocator@D@2@@std@@0_N@Z
       4310 10D5 00032402 ?findShadowCastersForLight@SceneManager@Ogre@@MAEABV?$vector@PAVShadowCaster@Ogre@@V?$STLAllocator@PAVShadowCaster@Ogre@@V?$CategorisedAllocPolicy@$0A@@2@@2@@std@@PBVLight@2@PBVCamera@2@@Z
       4311 10D6 00009ACA ?findSubEntityForVertexData@Entity@Ogre@@IAEPAVSubEntity@2@PBVVertexData@2@@Z
       4312 10D7 0003A292 ?findUnsignedIntAutoConstantEntry@GpuProgramParameters@Ogre@@QAEPBVAutoConstantEntry@12@I@Z
       4313 10D8 00035F12 ?findVisible@InstancedEntity@Ogre@@IBE_NPAVCamera@2@@Z
       4314 10D9 000091EC ?find_first_not_of@UTFString@Ogre@@QBEIABV12@II@Z
       4315 10DA 00008F30 ?find_first_not_of@UTFString@Ogre@@QBEIDI@Z
       4316 10DB 00008F53 ?find_first_not_of@UTFString@Ogre@@QBEIGI@Z
       4317 10DC 00009061 ?find_first_not_of@UTFString@Ogre@@QBEIII@Z
       4318 10DD 000395C7 ?find_first_not_of@UTFString@Ogre@@QBEI_WI@Z
       4319 10DE 0002B8E1 ?find_first_of@UTFString@Ogre@@QBEIABV12@II@Z
       4320 10DF 000379D4 ?find_first_of@UTFString@Ogre@@QBEIDI@Z
       4321 10E0 000379DE ?find_first_of@UTFString@Ogre@@QBEIGI@Z
       4322 10E1 000379AC ?find_first_of@UTFString@Ogre@@QBEIII@Z
       4323 10E2 000077A2 ?find_first_of@UTFString@Ogre@@QBEI_WI@Z
       4324 10E3 00009D90 ?find_last_not_of@UTFString@Ogre@@QBEIABV12@II@Z
       4325 10E4 0001AE92 ?find_last_not_of@UTFString@Ogre@@QBEIDI@Z
       4326 10E5 0000CFFE ?find_last_not_of@UTFString@Ogre@@QBEIGI@Z
       4327 10E6 0000D909 ?find_last_not_of@UTFString@Ogre@@QBEIII@Z
       4328 10E7 00013A4D ?find_last_not_of@UTFString@Ogre@@QBEI_WI@Z
       4329 10E8 000092F0 ?find_last_of@UTFString@Ogre@@QBEIABV12@II@Z
       4330 10E9 00015447 ?find_last_of@UTFString@Ogre@@QBEIDI@Z
       4331 10EA 000154BA ?find_last_of@UTFString@Ogre@@QBEIGI@Z
       4332 10EB 000152C6 ?find_last_of@UTFString@Ogre@@QBEIII@Z
       4333 10EC 00001BEF ?find_last_of@UTFString@Ogre@@QBEI_WI@Z
       4334 10ED 00008274 ?finishProgramDefinition@MaterialSerializer@Ogre@@IAEXXZ
       4335 10EE 0000CCED ?fireEvent@RenderSystem@Ogre@@MAEXABV?$basic_string@DU?$char_traits@D@std@@V?$allocator@D@2@@std@@PBV?$map@V?$basic_string@DU?$char_traits@D@std@@V?$allocator@D@2@@std@@V12@U?$less@V?$basic_string@DU?$char_traits@D@std@@V?$allocator@D@2@@std@@@2@V?$STLAllocator@U?$pair@$$CBV?$basic_string@DU?$char_traits@D@std@@V?$allocator@D@2@@std@@V12@@std@@V?$CategorisedAllocPolicy@$0A@@Ogre@@@Ogre@@@4@@Z
       4336 10EF 00019D0D ?fireGpuProgramRefEvent@MaterialSerializer@Ogre@@IAEXW4SerializeEvent@12@AA_NABV?$basic_string@DU?$char_traits@D@std@@V?$allocator@D@2@@std@@ABV?$SharedPtr@VGpuProgram@Ogre@@@2@ABV?$SharedPtr@VGpuProgramParameters@Ogre@@@2@PAVGpuProgramParameters@2@@Z
       4337 10F0 0001D61A ?fireMaterialEvent@MaterialSerializer@Ogre@@IAEXW4SerializeEvent@12@AA_NPBVMaterial@2@@Z
       4338 10F1 0001BA0E ?firePassEvent@MaterialSerializer@Ogre@@IAEXW4SerializeEvent@12@AA_NPBVPass@2@@Z
       4339 10F2 00039851 ?firePostFindVisibleObjects@SceneManager@Ogre@@MAEXPAVViewport@2@@Z
       4340 10F3 00035C79 ?firePostRenderQueues@SceneManager@Ogre@@MAEXXZ
       4341 10F4 00006B4A ?firePostUpdate@RenderTarget@Ogre@@MAEXXZ
       4342 10F5 00022971 ?firePostUpdateSceneGraph@SceneManager@Ogre@@MAEXPAVCamera@2@@Z
       4343 10F6 00027773 ?firePreFindVisibleObjects@SceneManager@Ogre@@MAEXPAVViewport@2@@Z
       4344 10F7 0003F8C3 ?firePreRenderQueues@SceneManager@Ogre@@MAEXXZ
       4345 10F8 0000C0FE ?firePreUpdate@RenderTarget@Ogre@@MAEXXZ
       4346 10F9 0000744B ?firePreUpdateSceneGraph@SceneManager@Ogre@@MAEXPAVCamera@2@@Z
       4347 10FA 0000D6CF ?fireRenderQueueEnded@SceneManager@Ogre@@MAE_NEABV?$basic_string@DU?$char_traits@D@std@@V?$allocator@D@2@@std@@@Z
       4348 10FB 0001082A ?fireRenderQueueStarted@SceneManager@Ogre@@MAE_NEABV?$basic_string@DU?$char_traits@D@std@@V?$allocator@D@2@@std@@@Z
       4349 10FC 0002BBC0 ?fireRenderSingleObject@SceneManager@Ogre@@MAEXPAVRenderable@2@PBVPass@2@PBVAutoParamDataSource@2@PBV?$HashedVector@PAVLight@Ogre@@@2@_N@Z
       4350 10FD 0000AC90 ?fireResourceCreated@ResourceGroupManager@Ogre@@IAEXABV?$SharedPtr@VResource@Ogre@@@2@@Z
       4351 10FE 0001E06F ?fireResourceGroupLoadEnded@ResourceGroupManager@Ogre@@IAEXABV?$basic_string@DU?$char_traits@D@std@@V?$allocator@D@2@@std@@@Z
       4352 10FF 00037FBA ?fireResourceGroupLoadStarted@ResourceGroupManager@Ogre@@IAEXABV?$basic_string@DU?$char_traits@D@std@@V?$allocator@D@2@@std@@I@Z
       4353 1100 000234DE ?fireResourceGroupPrepareEnded@ResourceGroupManager@Ogre@@IAEXABV?$basic_string@DU?$char_traits@D@std@@V?$allocator@D@2@@std@@@Z
       4354 1101 000039FE ?fireResourceGroupPrepareStarted@ResourceGroupManager@Ogre@@IAEXABV?$basic_string@DU?$char_traits@D@std@@V?$allocator@D@2@@std@@I@Z
       4355 1102 0001DE08 ?fireResourceGroupScriptingEnded@ResourceGroupManager@Ogre@@IAEXABV?$basic_string@DU?$char_traits@D@std@@V?$allocator@D@2@@std@@@Z
       4356 1103 000128DC ?fireResourceGroupScriptingStarted@ResourceGroupManager@Ogre@@IAEXABV?$basic_string@DU?$char_traits@D@std@@V?$allocator@D@2@@std@@I@Z
       4357 1104 00009CC3 ?fireResourceLoadEnded@ResourceGroupManager@Ogre@@IAEXXZ
       4358 1105 00029438 ?fireResourceLoadStarted@ResourceGroupManager@Ogre@@IAEXABV?$SharedPtr@VResource@Ogre@@@2@@Z
       4359 1106 0001204E ?fireResourcePrepareEnded@ResourceGroupManager@Ogre@@IAEXXZ
       4360 1107 0002BF76 ?fireResourcePrepareStarted@ResourceGroupManager@Ogre@@IAEXABV?$SharedPtr@VResource@Ogre@@@2@@Z
       4361 1108 00010D39 ?fireResourceRemove@ResourceGroupManager@Ogre@@IAEXABV?$SharedPtr@VResource@Ogre@@@2@@Z
       4362 1109 0003578D ?fireSceneManagerDestroyed@SceneManager@Ogre@@MAEXXZ
       4363 110A 00017E4A ?fireScriptEnded@ResourceGroupManager@Ogre@@IAEXABV?$basic_string@DU?$char_traits@D@std@@V?$allocator@D@2@@std@@_N@Z
       4364 110B 00019065 ?fireScriptStarted@ResourceGroupManager@Ogre@@IAEXABV?$basic_string@DU?$char_traits@D@std@@V?$allocator@D@2@@std@@AA_N@Z
       4365 110C 0001E6B4 ?fireShadowTexturesPreCaster@SceneManager@Ogre@@MAEXPAVLight@2@PAVCamera@2@I@Z
       4366 110D 00034BAD ?fireShadowTexturesPreReceiver@SceneManager@Ogre@@MAEXPAVLight@2@PAVFrustum@2@@Z
       4367 110E 0001E605 ?fireShadowTexturesUpdated@SceneManager@Ogre@@MAEXI@Z
       4368 110F 00006AB4 ?fireTechniqueEvent@MaterialSerializer@Ogre@@IAEXW4SerializeEvent@12@AA_NPBVTechnique@2@@Z
       4369 1110 00012A49 ?fireTextureUnitStateEvent@MaterialSerializer@Ogre@@IAEXW4SerializeEvent@12@AA_NPBVTextureUnitState@2@@Z
       4370 1111 0000DFB7 ?fireViewportAdded@RenderTarget@Ogre@@MAEXPAVViewport@2@@Z
       4371 1112 00005498 ?fireViewportPostUpdate@RenderTarget@Ogre@@MAEXPAVViewport@2@@Z
       4372 1113 00029717 ?fireViewportPreUpdate@RenderTarget@Ogre@@MAEXPAVViewport@2@@Z
       4373 1114 00014178 ?fireViewportRemoved@RenderTarget@Ogre@@MAEXPAVViewport@2@@Z
       4374 1115 0003A157 ?flipAroundX@Image@Ogre@@QAEAAV12@XZ
       4375 1116 00001573 ?flipAroundY@Image@Ogre@@QAEAAV12@XZ
       4376 1117 000250E0 ?flipEndian@DDSCodec@Ogre@@CAXPAXI@Z
       4377 1118 0003769B ?flipEndian@DDSCodec@Ogre@@CAXPAXII@Z
       4378 1119 0002144F ?flipFromLittleEndian@Serializer@Ogre@@MAEXPAXII@Z
       4379 111A 0003A959 ?flipToLittleEndian@Serializer@Ogre@@MAEXPAXII@Z
       4380 111B 0001B798 ?flipVisibility@SceneNode@Ogre@@UAEX_N@Z
       4381 111C 00014C9F ?flush@VertexCacheProfiler@Ogre@@QAEXXZ
       4382 111D 0000B677 ?flushUpTo@RQListener@CompositorChain@Ogre@@QAEXE@Z
       4383 111E 00011AE0 ?forceOneWeight@BaseInstanceBatchVTF@Ogre@@QBE_NXZ
       4384 111F 0002D67D ?formatErrorCode@ScriptCompiler@Ogre@@SA?AV?$basic_string@DU?$char_traits@D@std@@V?$allocator@D@2@@std@@I@Z
       4385 1120 0000D5E9 ?forwardIntersect@Camera@Ogre@@UBEXABVPlane@2@PAV?$vector@VVector4@Ogre@@V?$STLAllocator@VVector4@Ogre@@V?$CategorisedAllocPolicy@$0A@@2@@2@@std@@@Z
       4386 1121 0001B2C0 ?frameEnded@FrameListener@Ogre@@UAE_NABUFrameEvent@2@@Z
       4387 1122 000158C5 ?frameEnded@FrameTimeControllerValue@Ogre@@UAE_NABUFrameEvent@2@@Z
       4388 1123 0001E6BE ?frameRenderingQueued@FrameListener@Ogre@@UAE_NABUFrameEvent@2@@Z
       4389 1124 0001216B ?frameStarted@FrameListener@Ogre@@UAE_NABUFrameEvent@2@@Z
       4390 1125 0002FB21 ?frameStarted@FrameTimeControllerValue@Ogre@@UAE_NABUFrameEvent@2@@Z
       4391 1126 0001EE75 ?freeChains@CompositorManager@Ogre@@AAEXXZ
       4392 1127 000128E6 ?freeEdgeList@Mesh@Ogre@@QAEXXZ
       4393 1128 00006519 ?freeGlobalTextures@Compositor@Ogre@@AAEXXZ
       4394 1129 00037466 ?freeInternalResources@Texture@Ogre@@UAEXXZ
       4395 112A 000113FB ?freeMemory@Image@Ogre@@QAEXXZ
       4396 112B 000112CF ?freePolygon@ConvexBody@Ogre@@KAXPAVPolygon@2@@Z
       4397 112C 00030AA3 ?freePooledTextures@CompositorManager@Ogre@@QAEX_N@Z
       4398 112D 000316CE ?freeResources@CompositorInstance@Ogre@@AAEX_N0@Z
       4399 112E 0000360C ?freeTagPoint@SkeletonInstance@Ogre@@QAEXPAVTagPoint@2@@Z
       4400 112F 0095BDF0 ?frgProgramName@ShadowVolumeExtrudeProgram@Ogre@@2V?$basic_string@DU?$char_traits@D@std@@V?$allocator@D@2@@std@@A
       4401 1130 00023EB6 ?fromRotationTranslation@DualQuaternion@Ogre@@QAEXABVQuaternion@2@ABVVector3@2@@Z
       4402 1131 0002F27F ?fromString@DriverVersion@Ogre@@QAEXABV?$basic_string@DU?$char_traits@D@std@@V?$allocator@D@2@@std@@@Z
       4403 1132 00007707 ?fromTransformationMatrix@DualQuaternion@Ogre@@QAEXABVMatrix4@2@@Z
       4404 1133 00003BC0 ?gaussianDistribution@Math@Ogre@@SAMMMM@Z
       4405 1134 0001138D ?genBillboardAxes@BillboardSet@Ogre@@IAEXPAVVector3@2@0PBVBillboard@2@@Z
       4406 1135 0002568F ?genConstantEmissionCount@ParticleEmitter@Ogre@@MAEGM@Z
       4407 1136 0001F564 ?genEmissionColour@ParticleEmitter@Ogre@@MAEXAAVColourValue@2@@Z
       4408 1137 0001C148 ?genEmissionDirection@ParticleEmitter@Ogre@@MAEXABVVector3@2@AAV32@@Z
       4409 1138 0003C02E ?genEmissionTTL@ParticleEmitter@Ogre@@MAEMXZ
       4410 1139 0001E939 ?genEmissionVelocity@ParticleEmitter@Ogre@@MAEXAAVVector3@2@@Z
       4411 113A 00005D7B ?genVertOffsets@BillboardSet@Ogre@@IAEXMMMMMMABVVector3@2@0PAV32@@Z
       4412 113B 00017E9A ?genVertices@BillboardSet@Ogre@@IAEXQBVVector3@2@ABVBillboard@2@@Z
       4413 113C 0002D62D ?generate@NameGenerator@Ogre@@QAE?AV?$basic_string@DU?$char_traits@D@std@@V?$allocator@D@2@@std@@XZ
       4414 113D 0000C680 ?generateConstantDefinitionArrayEntries@GpuNamedConstants@Ogre@@QAEXABV?$basic_string@DU?$char_traits@D@std@@V?$allocator@D@2@@std@@ABUGpuConstantDefinition@2@@Z
       4415 113E 00023826 ?generateExtremes@SubMesh@Ogre@@QAEXI@Z
       4416 113F 00040089 ?generateInstancedEntity@BaseInstanceBatchVTF@Ogre@@MAEPAVInstancedEntity@2@I@Z
       4417 1140 00019CCC ?generateInstancedEntity@InstanceBatch@Ogre@@MAEPAVInstancedEntity@2@I@Z
       4418 1141 00001997 ?generateShadowVolume@ShadowCaster@Ogre@@MAEXPAVEdgeData@2@ABVHardwareIndexBufferSharedPtr@2@AAIPBVLight@2@AAV?$vector@PAVShadowRenderable@Ogre@@V?$STLAllocator@PAVShadowRenderable@Ogre@@V?$CategorisedAllocPolicy@$0A@@2@@2@@std@@K@Z
       4419 1142 000270D9 ?get32BitIndices@ManualObjectSection@ManualObject@Ogre@@QBE_NXZ
       4420 1143 00013395 ?get@?$SharedPtr@VHardwareCounterBuffer@Ogre@@@Ogre@@QBEPAVHardwareCounterBuffer@2@XZ
       4421 1144 00005803 ?get@?$SharedPtr@VHardwareIndexBuffer@Ogre@@@Ogre@@QBEPAVHardwareIndexBuffer@2@XZ
       4422 1145 000353D2 ?get@?$SharedPtr@VHardwarePixelBuffer@Ogre@@@Ogre@@QBEPAVHardwarePixelBuffer@2@XZ
       4423 1146 0002A4E1 ?get@?$SharedPtr@VHardwareUniformBuffer@Ogre@@@Ogre@@QBEPAVHardwareUniformBuffer@2@XZ
       4424 1147 00038429 ?get@?$SharedPtr@VHardwareVertexBuffer@Ogre@@@Ogre@@QBEPAVHardwareVertexBuffer@2@XZ
       4425 1148 0000E97B ?get@RenderQueueInvocationSequence@Ogre@@QAEPAVRenderQueueInvocation@2@I@Z
       4426 1149 0000E034 ?getAAB@PointListBody@FocusedShadowCameraSetup@Ogre@@QBEABVAxisAlignedBox@3@XZ
       4427 114A 0000B17C ?getAABB@ConvexBody@Ogre@@QBE?AVAxisAlignedBox@2@XZ
       4428 114B 000025B3 ?getAABB@GeometryBucket@InstancedGeometry@Ogre@@QAEAAVAxisAlignedBox@3@XZ
       4429 114C 0003566B ?getAborted@Request@WorkQueue@Ogre@@QBE_NXZ
       4430 114D 0000C9D7 ?getAccessMode@DataStream@Ogre@@QBEGXZ
       4431 114E 0000666D ?getActiveScheme@MaterialManager@Ogre@@UBEABV?$basic_string@DU?$char_traits@D@std@@V?$allocator@D@2@@std@@XZ
       4432 114F 0002BBBB ?getActualDimensions@Viewport@Ogre@@QBEXAAH000@Z
       4433 1150 0000ADF8 ?getActualHeight@Viewport@Ogre@@QBEHXZ
       4434 1151 000351C5 ?getActualLeft@Viewport@Ogre@@QBEHXZ
       4435 1152 00023BFA ?getActualTop@Viewport@Ogre@@QBEHXZ
       4436 1153 0002E168 ?getActualWidth@Viewport@Ogre@@QBEHXZ
       4437 1154 0000FC3B ?getAdjustedInput@?$ControllerFunction@M@Ogre@@IAEMM@Z
       4438 1155 00027F61 ?getAdjustedInput@WaveformControllerFunction@Ogre@@IAEMM@Z
       4439 1156 0001010E ?getAffector@ParticleSystem@Ogre@@QBEPAVParticleAffector@2@G@Z
       4440 1157 00003A3F ?getAffectorFactoryIterator@ParticleSystemManager@Ogre@@QAE?AV?$MapIterator@V?$map@V?$basic_string@DU?$char_traits@D@std@@V?$allocator@D@2@@std@@PAVParticleAffectorFactory@Ogre@@U?$less@V?$basic_string@DU?$char_traits@D@std@@V?$allocator@D@2@@std@@@2@V?$STLAllocator@U?$pair@$$CBV?$basic_string@DU?$char_traits@D@std@@V?$allocator@D@2@@std@@PAVParticleAffectorFactory@Ogre@@@std@@V?$CategorisedAllocPolicy@$0A@@Ogre@@@4@@std@@@2@XZ
       4441 1158 000348AB ?getAliasTextureIterator@SubMesh@Ogre@@QBE?AV?$ConstMapIterator@V?$map@V?$basic_string@DU?$char_traits@D@std@@V?$allocator@D@2@@std@@V12@U?$less@V?$basic_string@DU?$char_traits@D@std@@V?$allocator@D@2@@std@@@2@V?$STLAllocator@U?$pair@$$CBV?$basic_string@DU?$char_traits@D@std@@V?$allocator@D@2@@std@@V12@@std@@V?$CategorisedAllocPolicy@$0A@@Ogre@@@Ogre@@@std@@@2@XZ
       4442 1159 0000D170 ?getAlive@CompositorInstance@Ogre@@QBE_NXZ
       4443 115A 0003F684 ?getAllAnimationStates@Entity@Ogre@@QBEPAVAnimationStateSet@2@XZ
       4444 115B 00035535 ?getAllAnimationStates@InstancedEntity@Ogre@@QBEPAVAnimationStateSet@2@XZ
       4445 115C 0000C4D7 ?getAllCorners@AxisAlignedBox@Ogre@@QBEPBVVector3@2@XZ
       4446 115D 00034BC6 ?getAlphaBlendMode@TextureUnitState@Ogre@@QBEABVLayerBlendModeEx@2@XZ
       4447 115E 00011F2C ?getAlphaRejectFunction@Pass@Ogre@@QBE?AW4CompareFunction@2@XZ
       4448 115F 0003FA53 ?getAlphaRejectValue@Pass@Ogre@@QBEEXZ
       4449 1160 0001D467 ?getAlwaysUpdateMainSkeleton@Entity@Ogre@@QBE_NXZ
       4450 1161 00033816 ?getAmbient@Pass@Ogre@@QBEABVColourValue@2@XZ
       4451 1162 0001FFC3 ?getAmbientLight@SceneManager@Ogre@@QBEABVColourValue@2@XZ
       4452 1163 0001A398 ?getAmbientLightColour@AutoParamDataSource@Ogre@@UBEABVColourValue@2@XZ
       4453 1164 0002EECE ?getAngle@ParticleEmitter@Ogre@@UBEABVRadian@2@XZ
       4454 1165 00026940 ?getAngleUnit@Math@Ogre@@SA?AW4AngleUnit@12@XZ
       4455 1166 00034E3C ?getAnimableDictionaryName@AnimableObject@Ogre@@MBEABV?$basic_string@DU?$char_traits@D@std@@V?$allocator@D@2@@std@@XZ
       4456 1167 0000D8F0 ?getAnimableValueNames@AnimableObject@Ogre@@QBEABV?$vector@V?$basic_string@DU?$char_traits@D@std@@V?$allocator@D@2@@std@@V?$STLAllocator@V?$basic_string@DU?$char_traits@D@std@@V?$allocator@D@2@@std@@V?$CategorisedAllocPolicy@$0A@@Ogre@@@Ogre@@@std@@XZ
       4457 1168 0001FDF2 ?getAnimation@Mesh@Ogre@@UBEPAVAnimation@2@ABV?$basic_string@DU?$char_traits@D@std@@V?$allocator@D@2@@std@@@Z
       4458 1169 0002D434 ?getAnimation@Mesh@Ogre@@UBEPAVAnimation@2@G@Z
       4459 116A 0000B8FC ?getAnimation@SceneManager@Ogre@@UBEPAVAnimation@2@ABV?$basic_string@DU?$char_traits@D@std@@V?$allocator@D@2@@std@@@Z
       4460 116B 0002336C ?getAnimation@Skeleton@Ogre@@UBEPAVAnimation@2@ABV?$basic_string@DU?$char_traits@D@std@@V?$allocator@D@2@@std@@@Z
       4461 116C 0001D7EB ?getAnimation@Skeleton@Ogre@@UBEPAVAnimation@2@ABV?$basic_string@DU?$char_traits@D@std@@V?$allocator@D@2@@std@@PAPBULinkedSkeletonAnimationSource@2@@Z
       4462 116D 00034333 ?getAnimation@Skeleton@Ogre@@UBEPAVAnimation@2@G@Z
       4463 116E 0003DBDB ?getAnimation@SkeletonInstance@Ogre@@UBEPAVAnimation@2@ABV?$basic_string@DU?$char_traits@D@std@@V?$allocator@D@2@@std@@PAPBULinkedSkeletonAnimationSource@2@@Z
       4464 116F 0000C540 ?getAnimation@SkeletonInstance@Ogre@@UBEPAVAnimation@2@G@Z
       4465 1170 0002A49B ?getAnimationDuration@TextureUnitState@Ogre@@QBEMXZ
       4466 1171 0003B755 ?getAnimationIterator@SceneManager@Ogre@@QAE?AV?$MapIterator@V?$map@V?$basic_string@DU?$char_traits@D@std@@V?$allocator@D@2@@std@@PAVAnimation@Ogre@@U?$less@V?$basic_string@DU?$char_traits@D@std@@V?$allocator@D@2@@std@@@2@V?$STLAllocator@U?$pair@$$CBV?$basic_string@DU?$char_traits@D@std@@V?$allocator@D@2@@std@@PAVAnimation@Ogre@@@std@@V?$CategorisedAllocPolicy@$0A@@Ogre@@@4@@std@@@2@XZ
       4467 1172 0000B0AA ?getAnimationName@AnimationState@Ogre@@QBEABV?$basic_string@DU?$char_traits@D@std@@V?$allocator@D@2@@std@@XZ
       4468 1173 00032B1E ?getAnimationState@AnimationStateSet@Ogre@@QBEPAVAnimationState@2@ABV?$basic_string@DU?$char_traits@D@std@@V?$allocator@D@2@@std@@@Z
       4469 1174 00026454 ?getAnimationState@Entity@Ogre@@QBEPAVAnimationState@2@ABV?$basic_string@DU?$char_traits@D@std@@V?$allocator@D@2@@std@@@Z
       4470 1175 0000F7B3 ?getAnimationState@InstancedEntity@Ogre@@QBEPAVAnimationState@2@ABV?$basic_string@DU?$char_traits@D@std@@V?$allocator@D@2@@std@@@Z
       4471 1176 0003FCDD ?getAnimationState@InstancedObject@InstancedGeometry@Ogre@@QBEPAVAnimationState@3@ABV?$basic_string@DU?$char_traits@D@std@@V?$allocator@D@2@@std@@@Z
       4472 1177 0000F641 ?getAnimationState@SceneManager@Ogre@@UBEPAVAnimationState@2@ABV?$basic_string@DU?$char_traits@D@std@@V?$allocator@D@2@@std@@@Z
       4473 1178 0000A43E ?getAnimationStateIterator@AnimationStateSet@Ogre@@QAE?AV?$MapIterator@V?$map@V?$basic_string@DU?$char_traits@D@std@@V?$allocator@D@2@@std@@PAVAnimationState@Ogre@@U?$less@V?$basic_string@DU?$char_traits@D@std@@V?$allocator@D@2@@std@@@2@V?$STLAllocator@U?$pair@$$CBV?$basic_string@DU?$char_traits@D@std@@V?$allocator@D@2@@std@@PAVAnimationState@Ogre@@@std@@V?$CategorisedAllocPolicy@$0A@@Ogre@@@4@@std@@@2@XZ
       4474 1179 00020667 ?getAnimationStateIterator@AnimationStateSet@Ogre@@QBE?AV?$ConstMapIterator@V?$map@V?$basic_string@DU?$char_traits@D@std@@V?$allocator@D@2@@std@@PAVAnimationState@Ogre@@U?$less@V?$basic_string@DU?$char_traits@D@std@@V?$allocator@D@2@@std@@@2@V?$STLAllocator@U?$pair@$$CBV?$basic_string@DU?$char_traits@D@std@@V?$allocator@D@2@@std@@PAVAnimationState@Ogre@@@std@@V?$CategorisedAllocPolicy@$0A@@Ogre@@@4@@std@@@2@XZ
       4475 117A 0002FF90 ?getAnimationStateIterator@SceneManager@Ogre@@QAE?AV?$MapIterator@V?$map@V?$basic_string@DU?$char_traits@D@std@@V?$allocator@D@2@@std@@PAVAnimationState@Ogre@@U?$less@V?$basic_string@DU?$char_traits@D@std@@V?$allocator@D@2@@std@@@2@V?$STLAllocator@U?$pair@$$CBV?$basic_string@DU?$char_traits@D@std@@V?$allocator@D@2@@std@@PAVAnimationState@Ogre@@@std@@V?$CategorisedAllocPolicy@$0A@@Ogre@@@4@@std@@@2@XZ
       4476 117B 00030D5A ?getAnimationType@VertexAnimationTrack@Ogre@@QBE?AW4VertexAnimationType@2@XZ
       4477 117C 0000B721 ?getAnimations@SceneManager@Ogre@@QBEABV?$map@V?$basic_string@DU?$char_traits@D@std@@V?$allocator@D@2@@std@@PAVAnimation@Ogre@@U?$less@V?$basic_string@DU?$char_traits@D@std@@V?$allocator@D@2@@std@@@2@V?$STLAllocator@U?$pair@$$CBV?$basic_string@DU?$char_traits@D@std@@V?$allocator@D@2@@std@@PAVAnimation@Ogre@@@std@@V?$CategorisedAllocPolicy@$0A@@Ogre@@@4@@std@@XZ
       4478 117D 0003C67D ?getArchiveIterator@ArchiveManager@Ogre@@QAE?AV?$MapIterator@V?$map@V?$basic_string@DU?$char_traits@D@std@@V?$allocator@D@2@@std@@PAVArchive@Ogre@@U?$less@V?$basic_string@DU?$char_traits@D@std@@V?$allocator@D@2@@std@@@2@V?$STLAllocator@U?$pair@$$CBV?$basic_string@DU?$char_traits@D@std@@V?$allocator@D@2@@std@@PAVArchive@Ogre@@@std@@V?$CategorisedAllocPolicy@$0A@@Ogre@@@4@@std@@@2@XZ
       4479 117E 00013D9A ?getAs4DVector@Light@Ogre@@QBE?AVVector4@2@_N@Z
       4480 117F 00022F34 ?getAsABGR@ColourValue@Ogre@@QBEIXZ
       4481 1180 0000FC81 ?getAsARGB@ColourValue@Ogre@@QBEIXZ
       4482 1181 00025A86 ?getAsBGRA@ColourValue@Ogre@@QBEIXZ
       4483 1182 0002DA29 ?getAsRGBA@ColourValue@Ogre@@QBEIXZ
       4484 1183 00019899 ?getAsString@DataStream@Ogre@@UAE?AV?$basic_string@DU?$char_traits@D@std@@V?$allocator@D@2@@std@@XZ
       4485 1184 0003F012 ?getAspectRatio@Frustum@Ogre@@UBEMXZ
       4486 1185 00032D44 ?getAssociatedAnimable@NumericAnimationTrack@Ogre@@UBEABV?$SharedPtr@VAnimableValue@Ogre@@@2@XZ
       4487 1186 0000E1C9 ?getAssociatedNode@NodeAnimationTrack@Ogre@@UBEPAVNode@2@XZ
       4488 1187 00009692 ?getAssociatedVertexData@VertexAnimationTrack@Ogre@@QBEPAVVertexData@2@XZ
       4489 1188 0001992A ?getAttachedObject@SceneNode@Ogre@@UAEPAVMovableObject@2@ABV?$basic_string@DU?$char_traits@D@std@@V?$allocator@D@2@@std@@@Z
       4490 1189 00034DFB ?getAttachedObject@SceneNode@Ogre@@UAEPAVMovableObject@2@G@Z
       4491 118A 00016351 ?getAttachedObjectIterator@Entity@Ogre@@QAE?AV?$MapIterator@V?$map@V?$basic_string@DU?$char_traits@D@std@@V?$allocator@D@2@@std@@PAVMovableObject@Ogre@@U?$less@V?$basic_string@DU?$char_traits@D@std@@V?$allocator@D@2@@std@@@2@V?$STLAllocator@U?$pair@$$CBV?$basic_string@DU?$char_traits@D@std@@V?$allocator@D@2@@std@@PAVMovableObject@Ogre@@@std@@V?$CategorisedAllocPolicy@$0A@@Ogre@@@4@@std@@@2@XZ
       4492 118B 00004E30 ?getAttachedObjectIterator@SceneNode@Ogre@@UAE?AV?$MapIterator@V?$unordered_map@V?$basic_string@DU?$char_traits@D@std@@V?$allocator@D@2@@std@@PAVMovableObject@Ogre@@U?$hash@V?$basic_string@DU?$char_traits@D@std@@V?$allocator@D@2@@std@@@2@U?$equal_to@V?$basic_string@DU?$char_traits@D@std@@V?$allocator@D@2@@std@@@2@V?$allocator@U?$pair@$$CBV?$basic_string@DU?$char_traits@D@std@@V?$allocator@D@2@@std@@PAVMovableObject@Ogre@@@std@@@2@@std@@@2@XZ
       4493 118C 00015983 ?getAttachedObjectIterator@SceneNode@Ogre@@UBE?AV?$ConstMapIterator@V?$unordered_map@V?$basic_string@DU?$char_traits@D@std@@V?$allocator@D@2@@std@@PAVMovableObject@Ogre@@U?$hash@V?$basic_string@DU?$char_traits@D@std@@V?$allocator@D@2@@std@@@2@U?$equal_to@V?$basic_string@DU?$char_traits@D@std@@V?$allocator@D@2@@std@@@2@V?$allocator@U?$pair@$$CBV?$basic_string@DU?$char_traits@D@std@@V?$allocator@D@2@@std@@PAVMovableObject@Ogre@@@std@@@2@@std@@@2@XZ
       4494 118D 00023592 ?getAttenuationConstant@Light@Ogre@@QBEMXZ
       4495 118E 00012A30 ?getAttenuationLinear@Light@Ogre@@QBEMXZ
       4496 118F 0003BE08 ?getAttenuationQuadric@Light@Ogre@@QBEMXZ
       4497 1190 0002B6F2 ?getAttenuationRange@Light@Ogre@@QBEMXZ
       4498 1191 00023CA4 ?getAttributes@UserObjectBindings@Ogre@@IAEPAVAttributes@12@XZ
       4499 1192 00032592 ?getAttributes@UserObjectBindings@Ogre@@IBEPBVAttributes@12@XZ
       4500 1193 00004B0B ?getAutoAspectRatio@Camera@Ogre@@QBE_NXZ
       4501 1194 0001E2A9 ?getAutoBuildEdgeLists@Mesh@Ogre@@QBE_NXZ
       4502 1195 0001E1FF ?getAutoConstantCount@GpuProgramParameters@Ogre@@QBEIXZ
       4503 1196 00031AF2 ?getAutoConstantDefinition@GpuProgramParameters@Ogre@@SAPBUAutoConstantDefinition@12@ABV?$basic_string@DU?$char_traits@D@std@@V?$allocator@D@2@@std@@@Z
       4504 1197 00032934 ?getAutoConstantDefinition@GpuProgramParameters@Ogre@@SAPBUAutoConstantDefinition@12@I@Z
       4505 1198 00010965 ?getAutoConstantEntry@GpuProgramParameters@Ogre@@QAEPAVAutoConstantEntry@12@I@Z
       4506 1199 000070C2 ?getAutoConstantIterator@GpuProgramParameters@Ogre@@QBE?AV?$ConstVectorIterator@V?$vector@VAutoConstantEntry@GpuProgramParameters@Ogre@@V?$STLAllocator@VAutoConstantEntry@GpuProgramParameters@Ogre@@V?$CategorisedAllocPolicy@$0A@@3@@3@@std@@@2@XZ
       4507 119A 0000CE28 ?getAutoConstantList@GpuProgramParameters@Ogre@@QBEABV?$vector@VAutoConstantEntry@GpuProgramParameters@Ogre@@V?$STLAllocator@VAutoConstantEntry@GpuProgramParameters@Ogre@@V?$CategorisedAllocPolicy@$0A@@3@@3@@std@@XZ
       4508 119B 0000D454 ?getAutoCreatedWindow@Root@Ogre@@QAEPAVRenderWindow@2@XZ
       4509 119C 00025EB4 ?getAutoOrganisedDeclaration@VertexDeclaration@Ogre@@QBEPAV12@_N00@Z
       4510 119D 00021EEA ?getAutoTrackLocalDirection@SceneNode@Ogre@@UAEABVVector3@2@XZ
       4511 119E 000367A5 ?getAutoTrackOffset@Camera@Ogre@@QBEABVVector3@2@XZ
       4512 119F 0001E6C3 ?getAutoTrackOffset@SceneNode@Ogre@@UAEABVVector3@2@XZ
       4513 11A0 000206A8 ?getAutoTrackTarget@Camera@Ogre@@QBEPAVSceneNode@2@XZ
       4514 11A1 00026B1B ?getAutoTrackTarget@SceneNode@Ogre@@UAEPAV12@XZ
       4515 11A2 000212F6 ?getAutoULevel@PatchSurface@Ogre@@IAEI_N@Z
       4516 11A3 0000A4E8 ?getAutoUpdate@BillboardSet@Ogre@@QBE_NXZ
       4517 11A4 0001575D ?getAutoVLevel@PatchSurface@Ogre@@IAEI_N@Z
       4518 11A5 0002AE28 ?getAutoextend@BillboardSet@Ogre@@UBE_NXZ
       4519 11A6 00036B7E ?getAutomaticColour@CompositionPass@Ogre@@QBE_NXZ
       4520 11A7 00024569 ?getAvailInForSinglePass@DeflateStream@Ogre@@IAEIXZ
       4521 11A8 0000A9B6 ?getAvailableRenderers@Root@Ogre@@QAEABV?$vector@PAVRenderSystem@Ogre@@V?$STLAllocator@PAVRenderSystem@Ogre@@V?$CategorisedAllocPolicy@$0A@@2@@2@@std@@XZ
       4522 11A9 00037BB9 ?getAvailableSharedParameters@GpuProgramManager@Ogre@@UBEABV?$map@V?$basic_string@DU?$char_traits@D@std@@V?$allocator@D@2@@std@@V?$SharedPtr@VGpuSharedParameters@Ogre@@@Ogre@@U?$less@V?$basic_string@DU?$char_traits@D@std@@V?$allocator@D@2@@std@@@2@V?$STLAllocator@U?$pair@$$CBV?$basic_string@DU?$char_traits@D@std@@V?$allocator@D@2@@std@@V?$SharedPtr@VGpuSharedParameters@Ogre@@@Ogre@@@std@@V?$CategorisedAllocPolicy@$0A@@Ogre@@@4@@std@@XZ
       4523 11AA 000216DE ?getAverageFPS@RenderTarget@Ogre@@UBEMXZ
       4524 11AB 0003190D ?getBNFExpressionOfPixelFormats@PixelUtil@Ogre@@SA?AV?$basic_string@DU?$char_traits@D@std@@V?$allocator@D@2@@std@@_N@Z
       4525 11AC 00022D18 ?getBPP@Image@Ogre@@QBEEXZ
       4526 11AD 0000F57E ?getBackgroundColour@Viewport@Ogre@@QBEABVColourValue@2@XZ
       4527 11AE 00014736 ?getBaseAnimationState@InstancedGeometry@Ogre@@QAEPAVAnimationStateSet@2@XZ
       4528 11AF 00029398 ?getBaseKeyFrameAnimationName@Animation@Ogre@@QBEABV?$basic_string@DU?$char_traits@D@std@@V?$allocator@D@2@@std@@XZ
       4529 11B0 00021071 ?getBaseKeyFrameTime@Animation@Ogre@@QBEMXZ
       4530 11B1 00012E6D ?getBaseSkeleton@InstancedGeometry@Ogre@@QAE?AV?$SharedPtr@VSkeleton@Ogre@@@2@XZ
       4531 11B2 0001BDA6 ?getBaseSkeletonInstance@InstancedGeometry@Ogre@@QAEPAVSkeletonInstance@2@XZ
       4532 11B3 0001F690 ?getBaseType@GpuConstantDefinition@Ogre@@SA?AW4BaseConstantType@2@W4GpuConstantType@2@@Z
       4533 11B4 00009944 ?getBaseType@VertexElement@Ogre@@SA?AW4VertexElementType@2@W432@@Z
       4534 11B5 0000CEC8 ?getBaseValue@DistanceLodStrategyBase@Ogre@@UBEMXZ
       4535 11B6 00036EDA ?getBaseValue@PixelCountLodStrategyBase@Ogre@@UBEMXZ
       4536 11B7 00016937 ?getBatchCount@RenderTarget@Ogre@@UBEIXZ
       4537 11B8 0003202E ?getBatchInstance@InstancedGeometry@Ogre@@MAEPAVBatchInstance@12@ABVAxisAlignedBox@2@_N@Z
       4538 11B9 0002226E ?getBatchInstance@InstancedGeometry@Ogre@@MAEPAVBatchInstance@12@ABVVector3@2@_N@Z
       4539 11BA 000296F9 ?getBatchInstance@InstancedGeometry@Ogre@@MAEPAVBatchInstance@12@GGG_N@Z
       4540 11BB 00021675 ?getBatchInstance@InstancedGeometry@Ogre@@MAEPAVBatchInstance@12@I@Z
       4541 11BC 000074F0 ?getBatchInstanceBounds@InstancedGeometry@Ogre@@MAE?AVAxisAlignedBox@2@GGG@Z
       4542 11BD 0002FE19 ?getBatchInstanceCentre@InstancedGeometry@Ogre@@MAE?AVVector3@2@GGG@Z
       4543 11BE 000046F1 ?getBatchInstanceDimensions@InstancedGeometry@Ogre@@UBEABVVector3@2@XZ
       4544 11BF 0003CBA5 ?getBatchInstanceIndexes@InstancedGeometry@Ogre@@MAEXABVVector3@2@AAG11@Z
       4545 11C0 0002B067 ?getBatchInstanceIterator@InstancedGeometry@Ogre@@QAE?AV?$MapIterator@V?$map@IPAVBatchInstance@InstancedGeometry@Ogre@@U?$less@I@std@@V?$STLAllocator@U?$pair@$$CBIPAVBatchInstance@InstancedGeometry@Ogre@@@std@@V?$CategorisedAllocPolicy@$0A@@Ogre@@@3@@std@@@2@XZ
       4546 11C1 00033E79 ?getBestColourVertexElementType@VertexElement@Ogre@@SA?AW4VertexElementType@2@XZ
       4547 11C2 0002F0E5 ?getBestFPS@RenderTarget@Ogre@@UBEMXZ
       4548 11C3 0001684C ?getBestFrameTime@RenderTarget@Ogre@@UBEMXZ
       4549 11C4 000243D4 ?getBestTechnique@Material@Ogre@@QAEPAVTechnique@2@GPBVRenderable@2@@Z
       4550 11C5 00008427 ?getBillboard@BillboardSet@Ogre@@UBEPAVBillboard@2@I@Z
       4551 11C6 000158B6 ?getBillboardChain@SceneManager@Ogre@@UBEPAVBillboardChain@2@ABV?$basic_string@DU?$char_traits@D@std@@V?$allocator@D@2@@std@@@Z
       4552 11C7 00010D3E ?getBillboardOrigin@BillboardParticleRenderer@Ogre@@QBE?AW4BillboardOrigin@2@XZ
       4553 11C8 0002C0AC ?getBillboardOrigin@BillboardSet@Ogre@@UBE?AW4BillboardOrigin@2@XZ
       4554 11C9 0000BE6F ?getBillboardRotationType@BillboardParticleRenderer@Ogre@@QBE?AW4BillboardRotationType@2@XZ
       4555 11CA 0000E52F ?getBillboardRotationType@BillboardSet@Ogre@@UBE?AW4BillboardRotationType@2@XZ
       4556 11CB 0003EC75 ?getBillboardSet@BillboardParticleRenderer@Ogre@@QBEPAVBillboardSet@2@XZ
       4557 11CC 0001974F ?getBillboardSet@SceneManager@Ogre@@UBEPAVBillboardSet@2@ABV?$basic_string@DU?$char_traits@D@std@@V?$allocator@D@2@@std@@@Z
       4558 11CD 0003DF00 ?getBillboardType@BillboardParticleRenderer@Ogre@@QBE?AW4BillboardType@2@XZ
       4559 11CE 0000FB00 ?getBillboardType@BillboardSet@Ogre@@UBE?AW4BillboardType@2@XZ
       4560 11CF 000182D7 ?getBillboardsInWorldSpace@BillboardSet@Ogre@@QAE_NXZ
       4561 11D0 00006C49 ?getBindingType@TextureUnitState@Ogre@@QBE?AW4BindingType@12@XZ
       4562 11D1 0001D944 ?getBindings@VertexBufferBinding@Ogre@@UBEABV?$map@GVHardwareVertexBufferSharedPtr@Ogre@@U?$less@G@std@@V?$STLAllocator@U?$pair@$$CBGVHardwareVertexBufferSharedPtr@Ogre@@@std@@V?$CategorisedAllocPolicy@$0A@@Ogre@@@2@@std@@XZ
       4563 11D2 00014B32 ?getBitDepth@DepthBuffer@Ogre@@UBEGXZ
       4564 11D3 00031F7A ?getBitDepths@PixelUtil@Ogre@@SAXW4PixelFormat@2@QAH@Z
       4565 11D4 0000C923 ?getBitMasks@PixelUtil@Ogre@@SAXW4PixelFormat@2@QA_K@Z
       4566 11D5 0002BCD3 ?getBitShifts@PixelUtil@Ogre@@SAXW4PixelFormat@2@QAE@Z
       4567 11D6 0000CED7 ?getBlendMask@AnimationState@Ogre@@QBEPBV?$vector@MV?$STLAllocator@MV?$CategorisedAllocPolicy@$0A@@Ogre@@@Ogre@@@std@@XZ
       4568 11D7 0001965A ?getBlendMaskEntry@AnimationState@Ogre@@QBEMI@Z
       4569 11D8 0001D8E0 ?getBlendMode@Skeleton@Ogre@@UBE?AW4SkeletonAnimationBlendMode@2@XZ
       4570 11D9 0003F29C ?getBone@Skeleton@Ogre@@UBEPAVBone@2@ABV?$basic_string@DU?$char_traits@D@std@@V?$allocator@D@2@@std@@@Z
       4571 11DA 000400C0 ?getBone@Skeleton@Ogre@@UBEPAVBone@2@G@Z
       4572 11DB 00016E6E ?getBoneAssignmentIterator@Mesh@Ogre@@QAE?AV?$MapIterator@V?$multimap@IUVertexBoneAssignment_s@Ogre@@U?$less@I@std@@V?$STLAllocator@U?$pair@$$CBIUVertexBoneAssignment_s@Ogre@@@std@@V?$CategorisedAllocPolicy@$0A@@Ogre@@@2@@std@@@2@XZ
       4573 11DC 0003FAEE ?getBoneAssignmentIterator@SubMesh@Ogre@@QAE?AV?$MapIterator@V?$multimap@IUVertexBoneAssignment_s@Ogre@@U?$less@I@std@@V?$STLAllocator@U?$pair@$$CBIUVertexBoneAssignment_s@Ogre@@@std@@V?$CategorisedAllocPolicy@$0A@@Ogre@@@2@@std@@@2@XZ
       4574 11DD 0003EC39 ?getBoneAssignments@Mesh@Ogre@@QBEABV?$multimap@IUVertexBoneAssignment_s@Ogre@@U?$less@I@std@@V?$STLAllocator@U?$pair@$$CBIUVertexBoneAssignment_s@Ogre@@@std@@V?$CategorisedAllocPolicy@$0A@@Ogre@@@2@@std@@XZ
       4575 11DE 00040296 ?getBoneAssignments@SubMesh@Ogre@@QAEABV?$multimap@IUVertexBoneAssignment_s@Ogre@@U?$less@I@std@@V?$STLAllocator@U?$pair@$$CBIUVertexBoneAssignment_s@Ogre@@@std@@V?$CategorisedAllocPolicy@$0A@@Ogre@@@2@@std@@XZ
       4576 11DF 00027BFB ?getBoneBoundingRadius@Mesh@Ogre@@QBEMXZ
       4577 11E0 000076B7 ?getBoneIterator@Skeleton@Ogre@@UAE?AV?$VectorIterator@V?$vector@PAVBone@Ogre@@V?$STLAllocator@PAVBone@Ogre@@V?$CategorisedAllocPolicy@$0A@@2@@2@@std@@@2@XZ
       4578 11E1 000259C8 ?getBoolLogicalBufferStruct@GpuProgramParameters@Ogre@@QBEABV?$SharedPtr@UGpuLogicalBufferStruct@Ogre@@@2@XZ
       4579 11E2 0003798E ?getBoolLogicalIndexForPhysicalIndex@GpuProgramParameters@Ogre@@QAEII@Z
       4580 11E3 0003BF48 ?getBoolean@ScriptTranslator@Ogre@@KA_NABV?$SharedPtr@VAbstractNode@Ogre@@@2@PA_N@Z
       4581 11E4 0003E3C9 ?getBooleans@ScriptTranslator@Ogre@@KA_NV?$_List_const_iterator@V?$_List_val@U?$_List_simple_types@V?$SharedPtr@VAbstractNode@Ogre@@@Ogre@@@std@@@std@@@std@@0PAIH@Z
       4582 11E5 0001F7A8 ?getBoundSurface@MultiRenderTarget@Ogre@@QAEPAVRenderTexture@2@I@Z
       4583 11E6 0003F017 ?getBoundSurfaceList@MultiRenderTarget@Ogre@@QBEABV?$vector@PAVRenderTexture@Ogre@@V?$STLAllocator@PAVRenderTexture@Ogre@@V?$CategorisedAllocPolicy@$0A@@2@@2@@std@@XZ
       4584 11E7 0002A707 ?getBoundingBox@BatchInstance@InstancedGeometry@Ogre@@UBEABVAxisAlignedBox@3@XZ
       4585 11E8 0002E014 ?getBoundingBox@BillboardChain@Ogre@@UBEABVAxisAlignedBox@2@XZ
       4586 11E9 00013D09 ?getBoundingBox@BillboardSet@Ogre@@UBEABVAxisAlignedBox@2@XZ
       4587 11EA 0002CDD6 ?getBoundingBox@Entity@Ogre@@UBEABVAxisAlignedBox@2@XZ
       4588 11EB 0001BF6D ?getBoundingBox@Frustum@Ogre@@UBEABVAxisAlignedBox@2@XZ
       4589 11EC 00026035 ?getBoundingBox@InstanceBatch@Ogre@@UBEABVAxisAlignedBox@2@XZ
       4590 11ED 00005C13 ?getBoundingBox@InstancedEntity@Ogre@@UBEABVAxisAlignedBox@2@XZ
       4591 11EE 0003F96D ?getBoundingBox@Light@Ogre@@UBEABVAxisAlignedBox@2@XZ
       4592 11EF 0000F470 ?getBoundingBox@ManualObject@Ogre@@UBEABVAxisAlignedBox@2@XZ
       4593 11F0 0003511B ?getBoundingBox@MovablePlane@Ogre@@UBEABVAxisAlignedBox@2@XZ
       4594 11F1 0003A116 ?getBoundingBox@ParticleSystem@Ogre@@UBEABVAxisAlignedBox@2@XZ
       4595 11F2 0001D0B6 ?getBoundingBox@Region@StaticGeometry@Ogre@@UBEABVAxisAlignedBox@3@XZ
       4596 11F3 000064C9 ?getBoundingBox@SimpleRenderable@Ogre@@UBEABVAxisAlignedBox@2@XZ
       4597 11F4 0000AE1B ?getBoundingRadius@BatchInstance@InstancedGeometry@Ogre@@UBEMXZ
       4598 11F5 00008B34 ?getBoundingRadius@BillboardChain@Ogre@@UBEMXZ
       4599 11F6 000073A1 ?getBoundingRadius@BillboardSet@Ogre@@UBEMXZ
       4600 11F7 0002D6FA ?getBoundingRadius@Camera@Ogre@@UBEMXZ
       4601 11F8 0000F8DF ?getBoundingRadius@Entity@Ogre@@UBEMXZ
       4602 11F9 0003618D ?getBoundingRadius@Frustum@Ogre@@UBEMXZ
       4603 11FA 00038EF6 ?getBoundingRadius@GeometryBucket@InstancedGeometry@Ogre@@UBEMXZ
       4604 11FB 0000C2CF ?getBoundingRadius@InstanceBatch@Ogre@@UBEMXZ
       4605 11FC 0001A9A1 ?getBoundingRadius@InstancedEntity@Ogre@@UBEMXZ
       4606 11FD 0003F83C ?getBoundingRadius@Light@Ogre@@UBEMXZ
       4607 11FE 0001CEDB ?getBoundingRadius@ManualObject@Ogre@@UBEMXZ
       4608 11FF 0002DF83 ?getBoundingRadius@MovablePlane@Ogre@@UBEMXZ
       4609 1200 00001F64 ?getBoundingRadius@ParticleSystem@Ogre@@UBEMXZ
       4610 1201 0000E8DB ?getBoundingRadius@Rectangle2D@Ogre@@UBEMXZ
       4611 1202 00009B9C ?getBoundingRadius@Region@StaticGeometry@Ogre@@UBEMXZ
       4612 1203 0002B36E ?getBoundingRadius@WireBoundingBox@Ogre@@UBEMXZ
       4613 1204 00024F37 ?getBoundingSphereRadius@Mesh@Ogre@@QBEMXZ
       4614 1205 0000BD2A ?getBoundingSphereRadius@PatchSurface@Ogre@@QBEMXZ
       4615 1206 00009219 ?getBounds@Mesh@Ogre@@QBEABVAxisAlignedBox@2@XZ
       4616 1207 0000AA42 ?getBounds@PatchSurface@Ogre@@QBEABVAxisAlignedBox@2@XZ
       4617 1208 00024447 ?getBoundsPaddingFactor@MeshManager@Ogre@@QAEMXZ
       4618 1209 0002A08B ?getBox@AxisAlignedBoxSceneQuery@Ogre@@QBEABVAxisAlignedBox@2@XZ
       4619 120A 00033D98 ?getBuffer@VertexBufferBinding@Ogre@@UBEABVHardwareVertexBufferSharedPtr@2@G@Z
       4620 120B 0002D227 ?getBufferCount@VertexBufferBinding@Ogre@@UBEIXZ
       4621 120C 00026995 ?getBuiltinHashFunction@Pass@Ogre@@SAPAUHashFunc@12@W4BuiltinHashFunction@12@@Z
       4622 120D 0001E835 ?getByHandle@ResourceManager@Ogre@@UAE?AV?$SharedPtr@VResource@Ogre@@@2@_K@Z
       4623 120E 000332A8 ?getByName@CompositorManager@Ogre@@QAE?AV?$SharedPtr@VCompositor@Ogre@@@2@ABV?$basic_string@DU?$char_traits@D@std@@V?$allocator@D@2@@std@@0@Z
       4624 120F 00032790 ?getByName@GpuProgramManager@Ogre@@QAE?AV?$SharedPtr@VGpuProgram@Ogre@@@2@ABV?$basic_string@DU?$char_traits@D@std@@V?$allocator@D@2@@std@@0_N@Z
       4625 1210 00004241 ?getByName@HighLevelGpuProgramManager@Ogre@@QAE?AV?$SharedPtr@VHighLevelGpuProgram@Ogre@@@2@ABV?$basic_string@DU?$char_traits@D@std@@V?$allocator@D@2@@std@@0@Z
       4626 1211 0002FAA9 ?getByName@MaterialManager@Ogre@@QAE?AV?$SharedPtr@VMaterial@Ogre@@@2@ABV?$basic_string@DU?$char_traits@D@std@@V?$allocator@D@2@@std@@0@Z
       4627 1212 0002CEC6 ?getByName@MeshManager@Ogre@@QAE?AV?$SharedPtr@VMesh@Ogre@@@2@ABV?$basic_string@DU?$char_traits@D@std@@V?$allocator@D@2@@std@@0@Z
       4628 1213 000195BF ?getByName@SkeletonManager@Ogre@@QAE?AV?$SharedPtr@VSkeleton@Ogre@@@2@ABV?$basic_string@DU?$char_traits@D@std@@V?$allocator@D@2@@std@@0@Z
       4629 1214 00002FD1 ?getByName@TextureManager@Ogre@@QAE?AV?$SharedPtr@VTexture@Ogre@@@2@ABV?$basic_string@DU?$char_traits@D@std@@V?$allocator@D@2@@std@@0@Z
       4630 1215 00036D3B ?getCamera@SceneManager@Ogre@@UBEPAVCamera@2@ABV?$basic_string@DU?$char_traits@D@std@@V?$allocator@D@2@@std@@@Z
       4631 1216 00012DDC ?getCamera@Viewport@Ogre@@QBEPAVCamera@2@XZ
       4632 1217 000161E4 ?getCameraIterator@SceneManager@Ogre@@QAE?AV?$MapIterator@V?$map@V?$basic_string@DU?$char_traits@D@std@@V?$allocator@D@2@@std@@PAVCamera@Ogre@@U?$less@V?$basic_string@DU?$char_traits@D@std@@V?$allocator@D@2@@std@@@2@V?$STLAllocator@U?$pair@$$CBV?$basic_string@DU?$char_traits@D@std@@V?$allocator@D@2@@std@@PAVCamera@Ogre@@@std@@V?$CategorisedAllocPolicy@$0A@@Ogre@@@4@@std@@@2@XZ
       4633 1218 00010D2F ?getCameraLightDirectionThreshold@LiSPSMShadowCameraSetup@Ogre@@UBE?AVDegree@2@XZ
       4634 1219 00031A7A ?getCameraPosition@AutoParamDataSource@Ogre@@UBEABVVector4@2@XZ
       4635 121A 00003161 ?getCameraPositionObjectSpace@AutoParamDataSource@Ogre@@UBEABVVector4@2@XZ
       4636 121B 0000EFD9 ?getCameraRelativeRendering@SceneManager@Ogre@@UBE_NXZ
       4637 121C 0003FC42 ?getCameraToViewportBoxVolume@Camera@Ogre@@QAE?AVPlaneBoundedVolume@2@MMMM_N@Z
       4638 121D 0001697D ?getCameraToViewportBoxVolume@Camera@Ogre@@QAEXMMMMPAVPlaneBoundedVolume@2@_N@Z
       4639 121E 00036561 ?getCameraToViewportRay@Camera@Ogre@@QBE?AVRay@2@MM@Z
       4640 121F 0001CF9E ?getCameraToViewportRay@Camera@Ogre@@QBEXMMPAVRay@2@@Z
       4641 1220 0003D591 ?getCameras@SceneManager@Ogre@@QBEABV?$map@V?$basic_string@DU?$char_traits@D@std@@V?$allocator@D@2@@std@@PAVCamera@Ogre@@U?$less@V?$basic_string@DU?$char_traits@D@std@@V?$allocator@D@2@@std@@@2@V?$STLAllocator@U?$pair@$$CBV?$basic_string@DU?$char_traits@D@std@@V?$allocator@D@2@@std@@PAVCamera@Ogre@@@std@@V?$CategorisedAllocPolicy@$0A@@Ogre@@@4@@std@@XZ
       4642 1221 000177F1 ?getCapabilities@RenderSystem@Ogre@@QBEPBVRenderSystemCapabilities@2@XZ
       4643 1222 00008D41 ?getCapabilities@RenderSystemCapabilitiesManager@Ogre@@QBEABV?$map@V?$basic_string@DU?$char_traits@D@std@@V?$allocator@D@2@@std@@PAVRenderSystemCapabilities@Ogre@@U?$less@V?$basic_string@DU?$char_traits@D@std@@V?$allocator@D@2@@std@@@2@V?$STLAllocator@U?$pair@$$CBV?$basic_string@DU?$char_traits@D@std@@V?$allocator@D@2@@std@@PAVRenderSystemCapabilities@Ogre@@@std@@V?$CategorisedAllocPolicy@$0A@@Ogre@@@4@@std@@XZ
       4644 1223 00024F05 ?getCastShadows@InstancedGeometry@Ogre@@UAE_NXZ
       4645 1224 00037C40 ?getCastShadows@MovableObject@Ogre@@UBE_NXZ
       4646 1225 0000569B ?getCastShadows@StaticGeometry@Ogre@@UAE_NXZ
       4647 1226 00003FF3 ?getCastsShadows@GeometryBucket@InstancedGeometry@Ogre@@UBE_NXZ
       4648 1227 0000E0BB ?getCastsShadows@GeometryBucket@StaticGeometry@Ogre@@UBE_NXZ
       4649 1228 000133EF ?getCastsShadows@Renderable@Ogre@@UBE_NXZ
       4650 1229 00019F47 ?getCastsShadows@SubEntity@Ogre@@UBE_NXZ
       4651 122A 0001D93A ?getCenter@AxisAlignedBox@Ogre@@QBE?AVVector3@2@XZ
       4652 122B 00027CBE ?getCenter@Sphere@Ogre@@QBEABVVector3@2@XZ
       4653 122C 0002F0F9 ?getCentre@Region@StaticGeometry@Ogre@@QBEABVVector3@3@XZ
       4654 122D 000262EC ?getChain@CompositorInstance@Ogre@@QAEPAVCompositorChain@2@XZ
       4655 122E 0001CDD7 ?getChainElement@BillboardChain@Ogre@@UBEABVElement@12@II@Z
       4656 122F 00015FCD ?getChainIndexForNode@RibbonTrail@Ogre@@UAEIPBVNode@2@@Z
       4657 1230 0003A3AF ?getChannel@Request@WorkQueue@Ogre@@QBEGXZ
       4658 1231 00004435 ?getChannel@WorkQueue@Ogre@@UAEGABV?$basic_string@DU?$char_traits@D@std@@V?$allocator@D@2@@std@@@Z
       4659 1232 00014FA6 ?getChar@UTFString@Ogre@@QBEII@Z
       4660 1233 0002A969 ?getCharacter@_const_fwd_iterator@UTFString@Ogre@@QBEIXZ
       4661 1234 0000A2A9 ?getCharacter@_fwd_iterator@UTFString@Ogre@@QBEIXZ
       4662 1235 0001AA50 ?getChild@Node@Ogre@@UBEPAV12@ABV?$basic_string@DU?$char_traits@D@std@@V?$allocator@D@2@@std@@@Z
       4663 1236 0003833E ?getChild@Node@Ogre@@UBEPAV12@G@Z
       4664 1237 0002DCE5 ?getChildIterator@Node@Ogre@@UAE?AV?$MapIterator@V?$unordered_map@V?$basic_string@DU?$char_traits@D@std@@V?$allocator@D@2@@std@@PAVNode@Ogre@@U?$hash@V?$basic_string@DU?$char_traits@D@std@@V?$allocator@D@2@@std@@@2@U?$equal_to@V?$basic_string@DU?$char_traits@D@std@@V?$allocator@D@2@@std@@@2@V?$allocator@U?$pair@$$CBV?$basic_string@DU?$char_traits@D@std@@V?$allocator@D@2@@std@@PAVNode@Ogre@@@std@@@2@@std@@@2@XZ
       4665 1238 0002815A ?getChildIterator@Node@Ogre@@UBE?AV?$ConstMapIterator@V?$unordered_map@V?$basic_string@DU?$char_traits@D@std@@V?$allocator@D@2@@std@@PAVNode@Ogre@@U?$hash@V?$basic_string@DU?$char_traits@D@std@@V?$allocator@D@2@@std@@@2@U?$equal_to@V?$basic_string@DU?$char_traits@D@std@@V?$allocator@D@2@@std@@@2@V?$allocator@U?$pair@$$CBV?$basic_string@DU?$char_traits@D@std@@V?$allocator@D@2@@std@@PAVNode@Ogre@@@std@@@2@@std@@@2@XZ
       4666 1239 000181C4 ?getChildObject@TagPoint@Ogre@@QBEPAVMovableObject@2@XZ
       4667 123A 000176DE ?getChildObjectsBoundingBox@Entity@Ogre@@QBE?AVAxisAlignedBox@2@XZ
       4668 123B 0000583A ?getClearBuffers@CompositionPass@Ogre@@QBEIXZ
       4669 123C 00013D81 ?getClearBuffers@Viewport@Ogre@@QBEIXZ
       4670 123D 00035EE5 ?getClearColour@CompositionPass@Ogre@@QBEABVColourValue@2@XZ
       4671 123E 0002DE61 ?getClearDepth@CompositionPass@Ogre@@QBEMXZ
       4672 123F 0002AD9C ?getClearEveryFrame@Viewport@Ogre@@QBE_NXZ
       4673 1240 000333ED ?getClearStencil@CompositionPass@Ogre@@QBEIXZ
       4674 1241 000297BC ?getCodec@Codec@Ogre@@SAPAV12@ABV?$basic_string@DU?$char_traits@D@std@@V?$allocator@D@2@@std@@@Z
       4675 1242 00012CDD ?getCodec@Codec@Ogre@@SAPAV12@PADI@Z
       4676 1243 000278CC ?getCodecIterator@Codec@Ogre@@SA?AV?$ConstMapIterator@V?$map@V?$basic_string@DU?$char_traits@D@std@@V?$allocator@D@2@@std@@PAVCodec@Ogre@@U?$less@V?$basic_string@DU?$char_traits@D@std@@V?$allocator@D@2@@std@@@2@V?$STLAllocator@U?$pair@$$CBV?$basic_string@DU?$char_traits@D@std@@V?$allocator@D@2@@std@@PAVCodec@Ogre@@@std@@V?$CategorisedAllocPolicy@$0A@@Ogre@@@4@@std@@@2@XZ
       4677 1244 000333C5 ?getColour@Billboard@Ogre@@QBEABVColourValue@2@XZ
       4678 1245 0002D065 ?getColour@ParticleEmitter@Ogre@@UBEABVColourValue@2@XZ
       4679 1246 0003A65C ?getColour@ScriptTranslator@Ogre@@KA_NV?$_List_const_iterator@V?$_List_val@U?$_List_simple_types@V?$SharedPtr@VAbstractNode@Ogre@@@Ogre@@@std@@@std@@@std@@0PAVColourValue@2@H@Z
       4680 1247 0000F7F9 ?getColourAt@Image@Ogre@@QBE?AVColourValue@2@III@Z
       4681 1248 0003C01A ?getColourAt@PixelBox@Ogre@@QAE?AVColourValue@2@III@Z
       4682 1249 0003582D ?getColourBlendFallbackDest@TextureUnitState@Ogre@@QBE?AW4SceneBlendFactor@2@XZ
       4683 124A 00025AD1 ?getColourBlendFallbackSrc@TextureUnitState@Ogre@@QBE?AW4SceneBlendFactor@2@XZ
       4684 124B 00024122 ?getColourBlendMode@TextureUnitState@Ogre@@QBEABVLayerBlendModeEx@2@XZ
       4685 124C 0002BF35 ?getColourChange@RibbonTrail@Ogre@@UBEABVColourValue@2@I@Z
       4686 124D 000041CE ?getColourDepth@RenderTarget@Ogre@@UBEIXZ
       4687 124E 00016B71 ?getColourRangeEnd@ParticleEmitter@Ogre@@UBEABVColourValue@2@XZ
       4688 124F 0002F74D ?getColourRangeStart@ParticleEmitter@Ogre@@UBEABVColourValue@2@XZ
       4689 1250 000262E7 ?getColourWriteEnabled@Pass@Ogre@@QBE_NXZ
       4690 1251 0003B831 ?getCommonDirection@BillboardParticleRenderer@Ogre@@QBEABVVector3@2@XZ
       4691 1252 00010DFC ?getCommonDirection@BillboardSet@Ogre@@UBEABVVector3@2@XZ
       4692 1253 00005AD3 ?getCommonUpVector@BillboardParticleRenderer@Ogre@@QBEABVVector3@2@XZ
       4693 1254 0003C097 ?getCommonUpVector@BillboardSet@Ogre@@UBEABVVector3@2@XZ
       4694 1255 0003C1C8 ?getCompareFunction@ScriptTranslator@Ogre@@KA_NABV?$SharedPtr@VAbstractNode@Ogre@@@2@PAW4CompareFunction@2@@Z
       4695 1256 0002C8C2 ?getCompilationRequired@Material@Ogre@@QBE_NXZ
       4696 1257 00017251 ?getComponentCount@PixelUtil@Ogre@@SAIW4PixelFormat@2@@Z
       4697 1258 00026229 ?getComponentType@PixelUtil@Ogre@@SA?AW4PixelComponentType@2@W4PixelFormat@2@@Z
       4698 1259 0000CA77 ?getCompositor@CompositorChain@Ogre@@QAEPAVCompositorInstance@2@ABV?$basic_string@DU?$char_traits@D@std@@V?$allocator@D@2@@std@@@Z
       4699 125A 000262C4 ?getCompositor@CompositorChain@Ogre@@QAEPAVCompositorInstance@2@I@Z
       4700 125B 00014D44 ?getCompositor@CompositorInstance@Ogre@@QAEPAVCompositor@2@XZ
       4701 125C 0000F475 ?getCompositorChain@CompositorManager@Ogre@@QAEPAVCompositorChain@2@PAVViewport@2@@Z
       4702 125D 0003A215 ?getCompositorLogic@CompositorManager@Ogre@@QAEPAVCompositorLogic@2@ABV?$basic_string@DU?$char_traits@D@std@@V?$allocator@D@2@@std@@@Z
       4703 125E 000337F3 ?getCompositorLogicName@CompositionTechnique@Ogre@@QBEABV?$basic_string@DU?$char_traits@D@std@@V?$allocator@D@2@@std@@XZ
       4704 125F 00023358 ?getCompositorName@CompositorChain@Ogre@@IBE?BV?$basic_string@DU?$char_traits@D@std@@V?$allocator@D@2@@std@@XZ
       4705 1260 0001EC31 ?getCompositors@CompositorChain@Ogre@@QAE?AV?$VectorIterator@V?$vector@PAVCompositorInstance@Ogre@@V?$STLAllocator@PAVCompositorInstance@Ogre@@V?$CategorisedAllocPolicy@$0A@@2@@2@@std@@@2@XZ
       4706 1261 00003657 ?getComputeGroupDimensions@GpuProgram@Ogre@@UBE?AVVector3@2@XZ
       4707 1262 000115A9 ?getComputeProgram@Pass@Ogre@@QBEABV?$SharedPtr@VGpuProgram@Ogre@@@2@XZ
       4708 1263 00015212 ?getComputeProgramConstantBoolCount@RenderSystemCapabilities@Ogre@@QBEGXZ
       4709 1264 00003E09 ?getComputeProgramConstantFloatCount@RenderSystemCapabilities@Ogre@@QBEGXZ
       4710 1265 0002EE06 ?getComputeProgramConstantIntCount@RenderSystemCapabilities@Ogre@@QBEGXZ
       4711 1266 0002223C ?getComputeProgramName@Pass@Ogre@@QBEABV?$basic_string@DU?$char_traits@D@std@@V?$allocator@D@2@@std@@XZ
       4712 1267 00037A3D ?getComputeProgramParameters@Pass@Ogre@@QBE?AV?$SharedPtr@VGpuProgramParameters@Ogre@@@2@XZ
       4713 1268 00031728 ?getConfigFilePath@FileSystemLayer@Ogre@@QBE?BV?$basic_string@DU?$char_traits@D@std@@V?$allocator@D@2@@std@@V34@@Z
       4714 1269 000264C7 ?getConfigPaths@FileSystemLayer@Ogre@@AAEXXZ
       4715 126A 0001CDC3 ?getConsecutiveSize@PixelBox@Ogre@@QBEIXZ
       4716 126B 00017BB6 ?getConstantDefinition@GpuProgramParameters@Ogre@@QBEABUGpuConstantDefinition@2@ABV?$basic_string@DU?$char_traits@D@std@@V?$allocator@D@2@@std@@@Z
       4717 126C 00035A35 ?getConstantDefinition@GpuSharedParameters@Ogre@@QBEABUGpuConstantDefinition@2@ABV?$basic_string@DU?$char_traits@D@std@@V?$allocator@D@2@@std@@@Z
       4718 126D 00013421 ?getConstantDefinitionIterator@GpuProgramParameters@Ogre@@QBE?AV?$ConstMapIterator@V?$map@V?$basic_string@DU?$char_traits@D@std@@V?$allocator@D@2@@std@@UGpuConstantDefinition@Ogre@@U?$less@V?$basic_string@DU?$char_traits@D@std@@V?$allocator@D@2@@std@@@2@V?$STLAllocator@U?$pair@$$CBV?$basic_string@DU?$char_traits@D@std@@V?$allocator@D@2@@std@@UGpuConstantDefinition@Ogre@@@std@@V?$CategorisedAllocPolicy@$0A@@Ogre@@@4@@std@@@2@XZ
       4719 126E 0003D11D ?getConstantDefinitionIterator@GpuSharedParameters@Ogre@@QBE?AV?$ConstMapIterator@V?$map@V?$basic_string@DU?$char_traits@D@std@@V?$allocator@D@2@@std@@UGpuConstantDefinition@Ogre@@U?$less@V?$basic_string@DU?$char_traits@D@std@@V?$allocator@D@2@@std@@@2@V?$STLAllocator@U?$pair@$$CBV?$basic_string@DU?$char_traits@D@std@@V?$allocator@D@2@@std@@UGpuConstantDefinition@Ogre@@@std@@V?$CategorisedAllocPolicy@$0A@@Ogre@@@4@@std@@@2@XZ
       4720 126F 00010B27 ?getConstantDefinitions@GpuProgram@Ogre@@UBEABUGpuNamedConstants@2@XZ
       4721 1270 0003898D ?getConstantDefinitions@GpuProgramParameters@Ogre@@QBEABUGpuNamedConstants@2@XZ
       4722 1271 0003F666 ?getConstantDefinitions@GpuSharedParameters@Ogre@@QBEABUGpuNamedConstants@2@XZ
       4723 1272 00002E0F ?getConstantDefinitions@HighLevelGpuProgram@Ogre@@UBEABUGpuNamedConstants@2@XZ
       4724 1273 000392C0 ?getConstantType@ScriptTranslator@Ogre@@KA_NV?$_List_const_iterator@V?$_List_val@U?$_List_simple_types@V?$SharedPtr@VAbstractNode@Ogre@@@Ogre@@@std@@@std@@@std@@PAW4GpuConstantType@2@@Z
       4725 1274 000234BB ?getContainer@Animation@Ogre@@QAEPAVAnimationContainer@2@XZ
       4726 1275 0002BDC3 ?getContentType@TextureUnitState@Ogre@@QBE?AW4ContentType@12@XZ
       4727 1276 00035D46 ?getControlPointBuffer@PatchSurface@Ogre@@QBEPAXXZ
       4728 1277 00026F9E ?getCorner@AxisAlignedBox@Ogre@@QBE?AVVector3@2@W4CornerEnum@12@@Z
       4729 1278 0000AC31 ?getCosTime_0_1@AutoParamDataSource@Ogre@@UBEMM@Z
       4730 1279 0003C425 ?getCosTime_0_2Pi@AutoParamDataSource@Ogre@@UBEMM@Z
       4731 127A 0003A869 ?getCosTime_0_X@AutoParamDataSource@Ogre@@UBEMM@Z
       4732 127B 00021E59 ?getCpuFeatures@PlatformInformation@Ogre@@SAIXZ
       4733 127C 00012094 ?getCpuIdentifier@PlatformInformation@Ogre@@SAABV?$basic_string@DU?$char_traits@D@std@@V?$allocator@D@2@@std@@XZ
       4734 127D 0002B864 ?getCreator@Resource@Ogre@@UAEPAVResourceManager@2@XZ
       4735 127E 0003EF31 ?getCreator@SceneNode@Ogre@@QBEPAVSceneManager@2@XZ
       4736 127F 0000E6AB ?getCullIndividually@BillboardSet@Ogre@@UBE_NXZ
       4737 1280 000348EC ?getCullIndividually@ParticleSystem@Ogre@@UBE_NXZ
       4738 1281 00002F0E ?getCullingFrustum@Camera@Ogre@@QBEPAVFrustum@2@XZ
       4739 1282 00006B81 ?getCullingMode@Pass@Ogre@@QBE?AW4CullingMode@2@XZ
       4740 1283 0000B460 ?getCurrentCamera@AutoParamDataSource@Ogre@@QBEPBVCamera@2@XZ
       4741 1284 00010B04 ?getCurrentChunk@StreamSerialiser@Ogre@@UBEPBUChunk@12@XZ
       4742 1285 00012DEB ?getCurrentChunkDepth@StreamSerialiser@Ogre@@QBEIXZ
       4743 1286 0000CB35 ?getCurrentChunkID@StreamSerialiser@Ogre@@QBEIXZ
       4744 1287 0001687E ?getCurrentFrame@TextureUnitState@Ogre@@QBEIXZ
       4745 1288 00003418 ?getCurrentIndexCount@ManualObject@Ogre@@UBEIXZ
       4746 1289 0001B4FF ?getCurrentIndexCount@PatchSurface@Ogre@@QBEIXZ
       4747 128A 000146C3 ?getCurrentLock@HardwarePixelBuffer@Ogre@@QAEABVPixelBox@2@XZ
       4748 128B 0001AB18 ?getCurrentLodIndex@Entity@Ogre@@QAEGXZ
       4749 128C 0000F0EC ?getCurrentPass@AutoParamDataSource@Ogre@@UBEPBVPass@2@XZ
       4750 128D 0001DC0A ?getCurrentPlugIn@ExternalTextureSourceManager@Ogre@@QBEPAVExternalTextureSource@2@XZ
       4751 128E 00034432 ?getCurrentPtr@MemoryDataStream@Ogre@@QAEPAEXZ
       4752 128F 00014CAE ?getCurrentRenderTarget@AutoParamDataSource@Ogre@@UBEPBVRenderTarget@2@XZ
       4753 1290 00002ADB ?getCurrentRenderable@AutoParamDataSource@Ogre@@UBEPBVRenderable@2@XZ
       4754 1291 0001CDF0 ?getCurrentTechnique@MaterialBucket@InstancedGeometry@Ogre@@QBEPAVTechnique@3@XZ
       4755 1292 000354FE ?getCurrentTechnique@MaterialBucket@StaticGeometry@Ogre@@QBEPAVTechnique@3@XZ
       4756 1293 00023713 ?getCurrentVertexCount@ManualObject@Ogre@@UBEIXZ
       4757 1294 00006DA2 ?getCurrentViewport@SceneManager@Ogre@@QBEPAVViewport@2@XZ
       4758 1295 00032254 ?getCustomAttribute@RenderSystem@Ogre@@UAEXABV?$basic_string@DU?$char_traits@D@std@@V?$allocator@D@2@@std@@PAX@Z
       4759 1296 00001B59 ?getCustomAttribute@RenderTarget@Ogre@@UAEXABV?$basic_string@DU?$char_traits@D@std@@V?$allocator@D@2@@std@@PAX@Z
       4760 1297 0000326A ?getCustomAttribute@Texture@Ogre@@UAEXABV?$basic_string@DU?$char_traits@D@std@@V?$allocator@D@2@@std@@PAX@Z
       4761 1298 000156C7 ?getCustomCompositionPass@CompositorManager@Ogre@@QAEPAVCustomCompositionPass@2@ABV?$basic_string@DU?$char_traits@D@std@@V?$allocator@D@2@@std@@@Z
       4762 1299 00028191 ?getCustomParam@InstancedEntity@Ogre@@QAEABVVector4@2@E@Z
       4763 129A 0000F9F2 ?getCustomParameter@Light@Ogre@@QBEABVVector4@2@G@Z
       4764 129B 00038FB4 ?getCustomParameter@Renderable@Ogre@@QBEABVVector4@2@I@Z
       4765 129C 0002F266 ?getCustomShadowCameraSetup@Light@Ogre@@QBEABV?$SharedPtr@VShadowCameraSetup@Ogre@@@2@XZ
       4766 129D 00009ED5 ?getCustomType@CompositionPass@Ogre@@QBEABV?$basic_string@DU?$char_traits@D@std@@V?$allocator@D@2@@std@@XZ
       4767 129E 00023272 ?getDarkCapBounds@MovableObject@Ogre@@UBEABVAxisAlignedBox@2@ABVLight@2@M@Z
       4768 129F 00001B77 ?getData@Image@Ogre@@QAEPAEXZ
       4769 12A0 0001465A ?getData@Image@Ogre@@QBEPBEXZ
       4770 12A1 00036A8E ?getData@Request@WorkQueue@Ogre@@QBEABVAny@3@XZ
       4771 12A2 000126B1 ?getData@Response@WorkQueue@Ogre@@QBEABVAny@3@XZ
       4772 12A3 0000FE48 ?getDataType@ImageCodec@Ogre@@UBE?AV?$basic_string@DU?$char_traits@D@std@@V?$allocator@D@2@@std@@XZ
       4773 12A4 0003C7E5 ?getDebugRenderable@Node@Ogre@@UAEPAVDebugRenderable@12@M@Z
       4774 12A5 0001BB9E ?getDebugRenderable@SceneNode@Ogre@@UAEPAVDebugRenderable@Node@2@XZ
       4775 12A6 00024528 ?getDefaultAnisotropy@MaterialManager@Ogre@@QBEIXZ
       4776 12A7 0001502D ?getDefaultHeight@BillboardSet@Ogre@@UBEMXZ
       4777 12A8 0001B4AF ?getDefaultHeight@ParticleSystem@Ogre@@UBEMXZ
       4778 12A9 0002A162 ?getDefaultInterpolationMode@Animation@Ogre@@SA?AW4InterpolationMode@12@XZ
       4779 12AA 0003D7F3 ?getDefaultIterationInterval@ParticleSystem@Ogre@@SAMXZ
       4780 12AB 00004ACF ?getDefaultLog@LogManager@Ogre@@QAEPAVLog@2@XZ
       4781 12AC 00022F98 ?getDefaultMinPixelSize@Root@Ogre@@QAEMXZ
       4782 12AD 0003BB5B ?getDefaultNonVisibleUpdateTimeout@ParticleSystem@Ogre@@SAMXZ
       4783 12AE 00026B2A ?getDefaultNumMipmaps@TextureManager@Ogre@@UAEIXZ
       4784 12AF 00033483 ?getDefaultOrientationMode@Viewport@Ogre@@SA?AW4OrientationMode@2@XZ
       4785 12B0 0000A07E ?getDefaultParameters@GpuProgram@Ogre@@UAE?AV?$SharedPtr@VGpuProgramParameters@Ogre@@@2@XZ
       4786 12B1 00002739 ?getDefaultParameters@UnifiedHighLevelGpuProgram@Ogre@@UAE?AV?$SharedPtr@VGpuProgramParameters@Ogre@@@2@XZ
       4787 12B2 0003285D ?getDefaultQueryFlags@MovableObject@Ogre@@SAIXZ
       4788 12B3 0001C062 ?getDefaultQueueGroup@RenderQueue@Ogre@@QBEEXZ
       4789 12B4 0001D8D1 ?getDefaultRenderablePriority@RenderQueue@Ogre@@QBEGXZ
       4790 12B5 00026DE1 ?getDefaultRotationInterpolationMode@Animation@Ogre@@SA?AW4RotationInterpolationMode@12@XZ
       4791 12B6 00009CA5 ?getDefaultSettings@MaterialManager@Ogre@@UBE?AV?$SharedPtr@VMaterial@Ogre@@@2@XZ
       4792 12B7 000206DF ?getDefaultStrategy@LodStrategyManager@Ogre@@QAEPAVLodStrategy@2@XZ
       4793 12B8 0001EF51 ?getDefaultStringLocale@StringConverter@Ogre@@SA?AV?$basic_string@DU?$char_traits@D@std@@V?$allocator@D@2@@std@@XZ
       4794 12B9 00014489 ?getDefaultTextureFiltering@MaterialManager@Ogre@@UBE?AW4FilterOptions@2@W4FilterType@2@@Z
       4795 12BA 0003A099 ?getDefaultVisibilityFlags@MovableObject@Ogre@@SAIXZ
       4796 12BB 00021DBE ?getDefaultWidth@BillboardSet@Ogre@@UBEMXZ
       4797 12BC 0003A355 ?getDefaultWidth@ParticleSystem@Ogre@@UBEMXZ
       4798 12BD 000302A6 ?getDepth@HardwarePixelBuffer@Ogre@@QBEIXZ
       4799 12BE 00037E93 ?getDepth@Image@Ogre@@QBEIXZ
       4800 12BF 00001AD2 ?getDepth@Texture@Ogre@@UBEIXZ
       4801 12C0 00018318 ?getDepthBiasConstant@Pass@Ogre@@QBEMXZ
       4802 12C1 00002DB0 ?getDepthBiasSlopeScale@Pass@Ogre@@QBEMXZ
       4803 12C2 0003F715 ?getDepthBuffer@RenderTarget@Ogre@@QBEPAVDepthBuffer@2@XZ
       4804 12C3 00009DE0 ?getDepthBufferPool@RenderTarget@Ogre@@QBEGXZ
       4805 12C4 00013787 ?getDepthCheckEnabled@Pass@Ogre@@QBE_NXZ
       4806 12C5 00019DC1 ?getDepthClear@Viewport@Ogre@@QBEMXZ
       4807 12C6 0001C990 ?getDepthFunction@Pass@Ogre@@QBE?AW4CompareFunction@2@XZ
       4808 12C7 0000B703 ?getDepthWriteEnabled@Pass@Ogre@@QBE_NXZ
       4809 12C8 0003D578 ?getDerivedAmbientLightColour@AutoParamDataSource@Ogre@@UBE?AVColourValue@2@XZ
       4810 12C9 000041F1 ?getDerivedDirection@Camera@Ogre@@QBE?AVVector3@2@XZ
       4811 12CA 000281F0 ?getDerivedDirection@Light@Ogre@@QBEABVVector3@2@XZ
       4812 12CB 00005209 ?getDerivedOrientation@Camera@Ogre@@QBEABVQuaternion@2@XZ
       4813 12CC 0003998C ?getDerivedPosition@Camera@Ogre@@QBEABVVector3@2@XZ
       4814 12CD 0003130E ?getDerivedPosition@Light@Ogre@@QBEABVVector3@2@_N@Z
       4815 12CE 00021B34 ?getDerivedRight@Camera@Ogre@@QBE?AVVector3@2@XZ
       4816 12CF 0002CA16 ?getDerivedSceneColour@AutoParamDataSource@Ogre@@UBE?AVColourValue@2@XZ
       4817 12D0 0002F96E ?getDerivedUp@Camera@Ogre@@QBE?AVVector3@2@XZ
       4818 12D1 00004912 ?getDescription@Exception@Ogre@@UBEABV?$basic_string@DU?$char_traits@D@std@@V?$allocator@D@2@@std@@XZ
       4819 12D2 00033D5C ?getDesiredFloatBitDepth@Texture@Ogre@@UBEGXZ
       4820 12D3 0002D00B ?getDesiredFormat@Texture@Ogre@@UBE?AW4PixelFormat@2@XZ
       4821 12D4 0003DCAD ?getDesiredFormat@TextureUnitState@Ogre@@QBE?AW4PixelFormat@2@XZ
       4822 12D5 000220C5 ?getDesiredIntegerBitDepth@Texture@Ogre@@UBEGXZ
       4823 12D6 0002B008 ?getDestBlendFactor@Pass@Ogre@@QBE?AW4SceneBlendFactor@2@XZ
       4824 12D7 000077ED ?getDestBlendFactorAlpha@Pass@Ogre@@QBE?AW4SceneBlendFactor@2@XZ
       4825 12D8 00002996 ?getDestinationRenderSystem@SceneManager@Ogre@@QAEPAVRenderSystem@2@XZ
       4826 12D9 0001D494 ?getDeviceName@RenderSystemCapabilities@Ogre@@QBE?AV?$basic_string@DU?$char_traits@D@std@@V?$allocator@D@2@@std@@XZ
       4827 12DA 000043CC ?getDictionaryStringName@ExternalTextureSource@Ogre@@QBEABV?$basic_string@DU?$char_traits@D@std@@V?$allocator@D@2@@std@@XZ
       4828 12DB 0003C2A9 ?getDiffuse@Pass@Ogre@@QBEABVColourValue@2@XZ
       4829 12DC 00018219 ?getDiffuseColour@Light@Ogre@@QBEABVColourValue@2@XZ
       4830 12DD 00037597 ?getDirPositionReference@ParticleEmitter@Ogre@@UBEABVVector3@2@XZ
       4831 12DE 00013179 ?getDirPositionReferenceEnabled@ParticleEmitter@Ogre@@UBE_NXZ
       4832 12DF 00007022 ?getDirection@Camera@Ogre@@QBE?AVVector3@2@XZ
       4833 12E0 00014042 ?getDirection@Light@Ogre@@QBEABVVector3@2@XZ
       4834 12E1 000331EA ?getDirection@ParticleEmitter@Ogre@@UBEABVVector3@2@XZ
       4835 12E2 0002D3AD ?getDirection@Ray@Ogre@@QBEABVVector3@2@XZ
       4836 12E3 0002E5A0 ?getDirectionalLightExtruderArbvp1@ShadowVolumeExtrudeProgram@Ogre@@SAABV?$basic_string@DU?$char_traits@D@std@@V?$allocator@D@2@@std@@XZ
       4837 12E4 0001D7CD ?getDirectionalLightExtruderArbvp1Debug@ShadowVolumeExtrudeProgram@Ogre@@SAABV?$basic_string@DU?$char_traits@D@std@@V?$allocator@D@2@@std@@XZ
       4838 12E5 00037150 ?getDirectionalLightExtruderArbvp1Finite@ShadowVolumeExtrudeProgram@Ogre@@SAABV?$basic_string@DU?$char_traits@D@std@@V?$allocator@D@2@@std@@XZ
       4839 12E6 0002441A ?getDirectionalLightExtruderArbvp1FiniteDebug@ShadowVolumeExtrudeProgram@Ogre@@SAABV?$basic_string@DU?$char_traits@D@std@@V?$allocator@D@2@@std@@XZ
       4840 12E7 0003BACF ?getDirectionalLightExtruderVs_1_1@ShadowVolumeExtrudeProgram@Ogre@@SAABV?$basic_string@DU?$char_traits@D@std@@V?$allocator@D@2@@std@@XZ
       4841 12E8 000014F6 ?getDirectionalLightExtruderVs_1_1Debug@ShadowVolumeExtrudeProgram@Ogre@@SAABV?$basic_string@DU?$char_traits@D@std@@V?$allocator@D@2@@std@@XZ
       4842 12E9 000211CF ?getDirectionalLightExtruderVs_1_1Finite@ShadowVolumeExtrudeProgram@Ogre@@SAABV?$basic_string@DU?$char_traits@D@std@@V?$allocator@D@2@@std@@XZ
       4843 12EA 0001BC0C ?getDirectionalLightExtruderVs_1_1FiniteDebug@ShadowVolumeExtrudeProgram@Ogre@@SAABV?$basic_string@DU?$char_traits@D@std@@V?$allocator@D@2@@std@@XZ
       4844 12EB 0002AF8B ?getDirectionalLightExtruderVs_4_0@ShadowVolumeExtrudeProgram@Ogre@@SAABV?$basic_string@DU?$char_traits@D@std@@V?$allocator@D@2@@std@@XZ
       4845 12EC 00004D5E ?getDirectionalLightExtruderVs_4_0Debug@ShadowVolumeExtrudeProgram@Ogre@@SAABV?$basic_string@DU?$char_traits@D@std@@V?$allocator@D@2@@std@@XZ
       4846 12ED 0000F1D7 ?getDirectionalLightExtruderVs_4_0Finite@ShadowVolumeExtrudeProgram@Ogre@@SAABV?$basic_string@DU?$char_traits@D@std@@V?$allocator@D@2@@std@@XZ
       4847 12EE 0003B71E ?getDirectionalLightExtruderVs_4_0FiniteDebug@ShadowVolumeExtrudeProgram@Ogre@@SAABV?$basic_string@DU?$char_traits@D@std@@V?$allocator@D@2@@std@@XZ
       4848 12EF 00037790 ?getDirectionalLightExtruderVs_glsl@ShadowVolumeExtrudeProgram@Ogre@@SAABV?$basic_string@DU?$char_traits@D@std@@V?$allocator@D@2@@std@@XZ
       4849 12F0 0002375E ?getDirectionalLightExtruderVs_glslDebug@ShadowVolumeExtrudeProgram@Ogre@@SAABV?$basic_string@DU?$char_traits@D@std@@V?$allocator@D@2@@std@@XZ
       4850 12F1 0002D6CD ?getDirectionalLightExtruderVs_glslFinite@ShadowVolumeExtrudeProgram@Ogre@@SAABV?$basic_string@DU?$char_traits@D@std@@V?$allocator@D@2@@std@@XZ
       4851 12F2 000037FB ?getDirectionalLightExtruderVs_glslFiniteDebug@ShadowVolumeExtrudeProgram@Ogre@@SAABV?$basic_string@DU?$char_traits@D@std@@V?$allocator@D@2@@std@@XZ
       4852 12F3 000082F1 ?getDirectionalLightExtruderVs_glsles@ShadowVolumeExtrudeProgram@Ogre@@SAABV?$basic_string@DU?$char_traits@D@std@@V?$allocator@D@2@@std@@XZ
       4853 12F4 000089EF ?getDirectionalLightExtruderVs_glslesDebug@ShadowVolumeExtrudeProgram@Ogre@@SAABV?$basic_string@DU?$char_traits@D@std@@V?$allocator@D@2@@std@@XZ
       4854 12F5 0003A143 ?getDirectionalLightExtruderVs_glslesFinite@ShadowVolumeExtrudeProgram@Ogre@@SAABV?$basic_string@DU?$char_traits@D@std@@V?$allocator@D@2@@std@@XZ
       4855 12F6 0000F065 ?getDirectionalLightExtruderVs_glslesFiniteDebug@ShadowVolumeExtrudeProgram@Ogre@@SAABV?$basic_string@DU?$char_traits@D@std@@V?$allocator@D@2@@std@@XZ
       4856 12F7 00033C67 ?getDirtyFrameNumber@AnimationStateSet@Ogre@@QBEKXZ
       4857 12F8 000380A0 ?getDirtyHashList@Pass@Ogre@@SAABV?$set@PAVPass@Ogre@@U?$less@PAVPass@Ogre@@@std@@V?$STLAllocator@PAVPass@Ogre@@V?$CategorisedAllocPolicy@$0A@@2@@2@@std@@XZ
       4858 12F9 0003F82D ?getDisplayMode@ProfileSessionListener@Ogre@@QBE?AW4DisplayMode@12@XZ
       4859 12FA 00035981 ?getDisplayMonitorCount@Root@Ogre@@QBEIXZ
       4860 12FB 0002E901 ?getDisplaySceneNodes@SceneManager@Ogre@@UBE_NXZ
       4861 12FC 00035A8A ?getDisplaySkeleton@Entity@Ogre@@QBE_NXZ
       4862 12FD 0003630E ?getDistance@Plane@Ogre@@QBEMABVVector3@2@@Z
       4863 12FE 00035701 ?getDouble@ScriptTranslator@Ogre@@KA_NABV?$SharedPtr@VAbstractNode@Ogre@@@2@PAN@Z
       4864 12FF 00005D94 ?getDoubleConstantList@GpuProgramParameters@Ogre@@QBEABV?$vector@NV?$STLAllocator@NV?$CategorisedAllocPolicy@$0A@@Ogre@@@Ogre@@@std@@XZ
       4865 1300 0000A718 ?getDoubleConstantList@GpuSharedParameters@Ogre@@QBEABV?$vector@NV?$STLAllocator@NV?$CategorisedAllocPolicy@$0A@@Ogre@@@Ogre@@@std@@XZ
       4866 1301 00023213 ?getDoubleLogicalBufferStruct@GpuProgramParameters@Ogre@@QBEABV?$SharedPtr@UGpuLogicalBufferStruct@Ogre@@@2@XZ
       4867 1302 0003F3C8 ?getDoubleLogicalIndexForPhysicalIndex@GpuProgramParameters@Ogre@@QAEII@Z
       4868 1303 00009F02 ?getDoublePointer@GpuProgramParameters@Ogre@@QAEPANI@Z
       4869 1304 00018A02 ?getDoublePointer@GpuProgramParameters@Ogre@@QBEPBNI@Z
       4870 1305 00008A49 ?getDoublePointer@GpuSharedParameters@Ogre@@QAEPANI@Z
       4871 1306 00031F98 ?getDoublePointer@GpuSharedParameters@Ogre@@QBEPBNI@Z
       4872 1307 00017323 ?getDoubles@ScriptTranslator@Ogre@@KA_NV?$_List_const_iterator@V?$_List_val@U?$_List_simple_types@V?$SharedPtr@VAbstractNode@Ogre@@@Ogre@@@std@@@std@@@std@@0PANH@Z
       4873 1308 0001F6DB ?getDrawBuffer@Viewport@Ogre@@QBE?AW4ColourBufferType@2@XZ
       4874 1309 0001C06C ?getDriverVersion@RenderSystem@Ogre@@UBEABUDriverVersion@2@XZ
       4875 130A 0001BF8B ?getDriverVersion@RenderSystemCapabilities@Ogre@@QBE?AUDriverVersion@2@XZ
       4876 130B 00027331 ?getDuration@ParticleEmitter@Ogre@@UBEMXZ
       4877 130C 00014D99 ?getDynamic@BillboardChain@Ogre@@UBE_NXZ
       4878 130D 00003C97 ?getDynamic@ManualObject@Ogre@@UBE_NXZ
       4879 130E 000294EC ?getEdgeList@Entity@Ogre@@UAEPAVEdgeData@2@XZ
       4880 130F 00040133 ?getEdgeList@LODBucket@StaticGeometry@Ogre@@QBEPAVEdgeData@3@XZ
       4881 1310 000174A4 ?getEdgeList@ManualObject@Ogre@@UAEPAVEdgeData@2@XZ
       4882 1311 0001D985 ?getEdgeList@Mesh@Ogre@@QAEPAVEdgeData@2@G@Z
       4883 1312 00035EEF ?getEdgeList@Mesh@Ogre@@QBEPBVEdgeData@2@G@Z
       4884 1313 0000EAAC ?getEdgeList@MovableObject@Ogre@@UAEPAVEdgeData@2@XZ
       4885 1314 0000CF6D ?getEdgeList@Region@StaticGeometry@Ogre@@UAEPAVEdgeData@3@XZ
       4886 1315 0002DAC9 ?getEffects@TextureUnitState@Ogre@@QBEABV?$multimap@W4TextureEffectType@TextureUnitState@Ogre@@UTextureEffect@23@U?$less@W4TextureEffectType@TextureUnitState@Ogre@@@std@@V?$STLAllocator@U?$pair@$$CBW4TextureEffectType@TextureUnitState@Ogre@@UTextureEffect@23@@std@@V?$CategorisedAllocPolicy@$0A@@Ogre@@@3@@std@@XZ
       4887 1316 00014AAB ?getElapsedTime@ControllerManager@Ogre@@QBEMXZ
       4888 1317 0003D127 ?getElapsedTime@FrameTimeControllerValue@Ogre@@QBEMXZ
       4889 1318 000259D2 ?getElement@VertexDeclaration@Ogre@@QBEPBVVertexElement@2@G@Z
       4890 1319 0000FCCC ?getElementCount@VertexDeclaration@Ogre@@QBEIXZ
       4891 131A 0001C918 ?getElementSize@GpuConstantDefinition@Ogre@@SAIW4GpuConstantType@2@_N@Z
       4892 131B 0002BCFB ?getElements@VertexDeclaration@Ogre@@QBEABV?$list@VVertexElement@Ogre@@V?$STLAllocator@VVertexElement@Ogre@@V?$CategorisedAllocPolicy@$0A@@2@@2@@std@@XZ
       4893 131C 00027354 ?getEmissionRate@ParticleEmitter@Ogre@@UBEMXZ
       4894 131D 0001BC34 ?getEmissive@Pass@Ogre@@QBEABVColourValue@2@XZ
       4895 131E 0003F44F ?getEmittedEmitter@ParticleEmitter@Ogre@@QBEABV?$basic_string@DU?$char_traits@D@std@@V?$allocator@D@2@@std@@XZ
       4896 131F 0003C4F7 ?getEmittedEmitterQuota@ParticleSystem@Ogre@@QBEIXZ
       4897 1320 00029D7F ?getEmitter@ParticleSystem@Ogre@@QBEPAVParticleEmitter@2@G@Z
       4898 1321 00033C8A ?getEmitterFactoryIterator@ParticleSystemManager@Ogre@@QAE?AV?$MapIterator@V?$map@V?$basic_string@DU?$char_traits@D@std@@V?$allocator@D@2@@std@@PAVParticleEmitterFactory@Ogre@@U?$less@V?$basic_string@DU?$char_traits@D@std@@V?$allocator@D@2@@std@@@2@V?$STLAllocator@U?$pair@$$CBV?$basic_string@DU?$char_traits@D@std@@V?$allocator@D@2@@std@@PAVParticleEmitterFactory@Ogre@@@std@@V?$CategorisedAllocPolicy@$0A@@Ogre@@@4@@std@@@2@XZ
       4899 1322 000294B5 ?getEmitting@ParticleSystem@Ogre@@QBE_NXZ
       4900 1323 0001924A ?getEmptyUserAny@UserObjectBindings@Ogre@@SAABVAny@2@XZ
       4901 1324 00021256 ?getEnabled@AnimationState@Ogre@@QBE_NXZ
       4902 1325 000158A7 ?getEnabled@CompositorInstance@Ogre@@QBE_NXZ
       4903 1326 0003F6ED ?getEnabled@ParticleEmitter@Ogre@@UBE_NXZ
       4904 1327 00012F6C ?getEnabled@Profiler@Ogre@@QBE_NXZ
       4905 1328 00023F88 ?getEnabledAnimationStateIterator@AnimationStateSet@Ogre@@QBE?AV?$ConstVectorIterator@V?$list@PAVAnimationState@Ogre@@V?$STLAllocator@PAVAnimationState@Ogre@@V?$CategorisedAllocPolicy@$0A@@2@@2@@std@@@2@XZ
       4906 1329 0001AD20 ?getEndian@StreamSerialiser@Ogre@@UBE?AW4Endian@12@XZ
       4907 132A 0001820F ?getEntity@SceneManager@Ogre@@UBEPAVEntity@2@ABV?$basic_string@DU?$char_traits@D@std@@V?$allocator@D@2@@std@@@Z
       4908 132B 00028146 ?getErrorDescription@Root@Ogre@@QAE?AV?$basic_string@DU?$char_traits@D@std@@V?$allocator@D@2@@std@@J@Z
       4909 132C 00029B90 ?getExtensions@Codec@Ogre@@SA?AV?$vector@V?$basic_string@DU?$char_traits@D@std@@V?$allocator@D@2@@std@@V?$STLAllocator@V?$basic_string@DU?$char_traits@D@std@@V?$allocator@D@2@@std@@V?$CategorisedAllocPolicy@$0A@@Ogre@@@Ogre@@@std@@XZ
       4910 132D 000096C9 ?getExternalTextureSource@ExternalTextureSourceManager@Ogre@@QAEPAVExternalTextureSource@2@ABV?$basic_string@DU?$char_traits@D@std@@V?$allocator@D@2@@std@@@Z
       4911 132E 0001D9A8 ?getExtrusionDistance@ShadowCaster@Ogre@@IBEMABVVector3@2@PBVLight@2@@Z
       4912 132F 0002D02E ?getFOV@AutoParamDataSource@Ogre@@UBEMXZ
       4913 1330 000102E4 ?getFOVy@Frustum@Ogre@@UBEABVRadian@2@XZ
       4914 1331 0003FE72 ?getFPS@AutoParamDataSource@Ogre@@UBEMXZ
       4915 1332 00015497 ?getFPS@ExternalTextureSource@Ogre@@QBEHXZ
       4916 1333 0000698D ?getFSAA@RenderTarget@Ogre@@UBEIXZ
       4917 1334 00010A19 ?getFSAA@Texture@Ogre@@UBEIXZ
       4918 1335 00013B51 ?getFSAAHint@RenderTarget@Ogre@@UBEABV?$basic_string@DU?$char_traits@D@std@@V?$allocator@D@2@@std@@XZ
       4919 1336 0001758F ?getFSAAHint@Texture@Ogre@@UBEABV?$basic_string@DU?$char_traits@D@std@@V?$allocator@D@2@@std@@XZ
       4920 1337 00019290 ?getFactory@HighLevelGpuProgramManager@Ogre@@IAEPAVHighLevelGpuProgramFactory@2@ABV?$basic_string@DU?$char_traits@D@std@@V?$allocator@D@2@@std@@@Z
       4921 1338 00005772 ?getFarClipDistance@AutoParamDataSource@Ogre@@UBEMXZ
       4922 1339 0003C8EE ?getFarClipDistance@Camera@Ogre@@UBEMXZ
       4923 133A 0001BF4A ?getFarClipDistance@Frustum@Ogre@@UBEMXZ
       4924 133B 00031C14 ?getFile@Exception@Ogre@@UBEABV?$basic_string@DU?$char_traits@D@std@@V?$allocator@D@2@@std@@XZ
       4925 133C 000081D9 ?getFileExtFromMagic@Image@Ogre@@SA?AV?$basic_string@DU?$char_traits@D@std@@V?$allocator@D@2@@std@@V?$SharedPtr@VDataStream@Ogre@@@2@@Z
       4926 133D 000211DE ?getFindVisibleObjects@SceneManager@Ogre@@UAE_NXZ
       4927 133E 0000D9A9 ?getFirstRenderQueue@CompositionPass@Ogre@@QBEEXZ
       4928 133F 0001267A ?getFixedPipelineEnabled@RenderSystem@Ogre@@QBE_NXZ
       4929 1340 0000C72A ?getFlags@PixelUtil@Ogre@@SAIW4PixelFormat@2@@Z
       4930 1341 00039077 ?getFlipCullingOnNegativeScale@SceneManager@Ogre@@UBE_NXZ
       4931 1342 0001544C ?getFloat@ScriptTranslator@Ogre@@KA_NABV?$SharedPtr@VAbstractNode@Ogre@@@2@PAM@Z
       4932 1343 00002EF5 ?getFloatConstantList@GpuProgramParameters@Ogre@@QBEABV?$vector@MV?$STLAllocator@MV?$CategorisedAllocPolicy@$0A@@Ogre@@@Ogre@@@std@@XZ
       4933 1344 0002CFE3 ?getFloatConstantList@GpuSharedParameters@Ogre@@QBEABV?$vector@MV?$STLAllocator@MV?$CategorisedAllocPolicy@$0A@@Ogre@@@Ogre@@@std@@XZ
       4934 1345 0002B48B ?getFloatLogicalBufferStruct@GpuProgramParameters@Ogre@@QBEABV?$SharedPtr@UGpuLogicalBufferStruct@Ogre@@@2@XZ
       4935 1346 00004039 ?getFloatLogicalIndexForPhysicalIndex@GpuProgramParameters@Ogre@@QAEII@Z
       4936 1347 000236FA ?getFloatPointer@GpuProgramParameters@Ogre@@QAEPAMI@Z
       4937 1348 00035233 ?getFloatPointer@GpuProgramParameters@Ogre@@QBEPBMI@Z
       4938 1349 0003A63E ?getFloatPointer@GpuSharedParameters@Ogre@@QAEPAMI@Z
       4939 134A 0003E49B ?getFloatPointer@GpuSharedParameters@Ogre@@QBEPBMI@Z
       4940 134B 00021319 ?getFloats@ScriptTranslator@Ogre@@KA_NV?$_List_const_iterator@V?$_List_val@U?$_List_simple_types@V?$SharedPtr@VAbstractNode@Ogre@@@Ogre@@@std@@@std@@@std@@0PAMH@Z
       4941 134C 0000F178 ?getFocalLength@Frustum@Ogre@@UBEMXZ
       4942 134D 0003003F ?getFogColour@AutoParamDataSource@Ogre@@UBEABVColourValue@2@XZ
       4943 134E 000101B8 ?getFogColour@Pass@Ogre@@QBEABVColourValue@2@XZ
       4944 134F 000110D1 ?getFogColour@SceneManager@Ogre@@UBEABVColourValue@2@XZ
       4945 1350 0001C4DB ?getFogDensity@Pass@Ogre@@QBEMXZ
       4946 1351 0000DDD7 ?getFogDensity@SceneManager@Ogre@@UBEMXZ
       4947 1352 00018D6D ?getFogEnd@Pass@Ogre@@QBEMXZ
       4948 1353 0001F190 ?getFogEnd@SceneManager@Ogre@@UBEMXZ
       4949 1354 00024E92 ?getFogMode@Pass@Ogre@@QBE?AW4FogMode@2@XZ
       4950 1355 0001602C ?getFogMode@SceneManager@Ogre@@UBE?AW4FogMode@2@XZ
       4951 1356 0000F579 ?getFogOverride@Pass@Ogre@@QBE_NXZ
       4952 1357 0001D9B7 ?getFogParams@AutoParamDataSource@Ogre@@UBEABVVector4@2@XZ
       4953 1358 0001BBE9 ?getFogStart@Pass@Ogre@@QBEMXZ
       4954 1359 000078F6 ?getFogStart@SceneManager@Ogre@@UBEMXZ
       4955 135A 0001A442 ?getFormat@HardwarePixelBuffer@Ogre@@QBE?AW4PixelFormat@2@XZ
       4956 135B 000078F1 ?getFormat@Image@Ogre@@QBE?AW4PixelFormat@2@XZ
       4957 135C 00035116 ?getFormat@Texture@Ogre@@UBE?AW4PixelFormat@2@XZ
       4958 135D 00001712 ?getFormatForBitDepths@PixelUtil@Ogre@@SA?AW4PixelFormat@2@W432@GG@Z
       4959 135E 00026549 ?getFormatFromName@PixelUtil@Ogre@@SA?AW4PixelFormat@2@ABV?$basic_string@DU?$char_traits@D@std@@V?$allocator@D@2@@std@@_N1@Z
       4960 135F 0002B6C0 ?getFormatName@PixelUtil@Ogre@@SA?AV?$basic_string@DU?$char_traits@D@std@@V?$allocator@D@2@@std@@W4PixelFormat@2@@Z
       4961 1360 00029BB3 ?getFormatString@GeometryBucket@InstancedGeometry@Ogre@@QBE?AV?$basic_string@DU?$char_traits@D@std@@V?$allocator@D@2@@std@@XZ
       4962 1361 00021706 ?getFragmentProgram@Pass@Ogre@@QBEABV?$SharedPtr@VGpuProgram@Ogre@@@2@XZ
       4963 1362 00027CE1 ?getFragmentProgramConstantBoolCount@RenderSystemCapabilities@Ogre@@QBEGXZ
       4964 1363 0002987F ?getFragmentProgramConstantFloatCount@RenderSystemCapabilities@Ogre@@QBEGXZ
       4965 1364 0001CF1C ?getFragmentProgramConstantIntCount@RenderSystemCapabilities@Ogre@@QBEGXZ
       4966 1365 00029C3A ?getFragmentProgramName@Pass@Ogre@@QBEABV?$basic_string@DU?$char_traits@D@std@@V?$allocator@D@2@@std@@XZ
       4967 1366 0000C289 ?getFragmentProgramParameters@Pass@Ogre@@QBE?AV?$SharedPtr@VGpuProgramParameters@Ogre@@@2@XZ
       4968 1367 00016BF3 ?getFrameDelay@ControllerManager@Ogre@@QBEMXZ
       4969 1368 0000484A ?getFrameDelay@FrameTimeControllerValue@Ogre@@QBEMXZ
       4970 1369 000189C6 ?getFrameLastUpdated@GpuSharedParameters@Ogre@@QBEIXZ
       4971 136A 000108C5 ?getFrameSmoothingPeriod@Root@Ogre@@QBEMXZ
       4972 136B 00001528 ?getFrameTextureName@TextureUnitState@Ogre@@QBEABV?$basic_string@DU?$char_traits@D@std@@V?$allocator@D@2@@std@@I@Z
       4973 136C 0003D9EC ?getFrameTime@AutoParamDataSource@Ogre@@UBEMXZ
       4974 136D 00038FE1 ?getFrameTimeSource@ControllerManager@Ogre@@QBEABV?$SharedPtr@V?$ControllerValue@M@Ogre@@@2@XZ
       4975 136E 0002A1EE ?getFreeBatch@InstanceManager@Ogre@@AAEPAVInstanceBatch@2@ABV?$basic_string@DU?$char_traits@D@std@@V?$allocator@D@2@@std@@@Z
       4976 136F 0002A09F ?getFreqUpdatedBuffersUploadOption@Root@Ogre@@QBE?AW4UploadOptions@HardwareBuffer@2@XZ
       4977 1370 00025789 ?getFrustumExtents@Frustum@Ogre@@UBEXAAM000@Z
       4978 1371 00012765 ?getFrustumOffset@Frustum@Ogre@@UBEABVVector2@2@XZ
       4979 1372 0000636B ?getFrustumPlane@Camera@Ogre@@UBEABVPlane@2@G@Z
       4980 1373 00014BDC ?getFrustumPlane@Frustum@Ogre@@UBEABVPlane@2@G@Z
       4981 1374 0002535B ?getFrustumPlanes@Frustum@Ogre@@UBEPBVPlane@2@XZ
       4982 1375 0000F3C6 ?getFsaa@DepthBuffer@Ogre@@UBEIXZ
       4983 1376 0000EDA9 ?getFsaaHint@DepthBuffer@Ogre@@UBEABV?$basic_string@DU?$char_traits@D@std@@V?$allocator@D@2@@std@@XZ
       4984 1377 00006E51 ?getFullDescription@Exception@Ogre@@UBEABV?$basic_string@DU?$char_traits@D@std@@V?$allocator@D@2@@std@@XZ
       4985 1378 00018543 ?getGPUDeviceNameRuleIterator@Technique@Ogre@@QBE?AV?$ConstVectorIterator@V?$vector@UGPUDeviceNameRule@Technique@Ogre@@V?$STLAllocator@UGPUDeviceNameRule@Technique@Ogre@@V?$CategorisedAllocPolicy@$0A@@3@@3@@std@@@2@XZ
       4986 1379 00023128 ?getGPUVendorRuleIterator@Technique@Ogre@@QBE?AV?$ConstVectorIterator@V?$vector@UGPUVendorRule@Technique@Ogre@@V?$STLAllocator@UGPUVendorRule@Technique@Ogre@@V?$CategorisedAllocPolicy@$0A@@3@@3@@std@@@2@XZ
       4987 137A 00011B85 ?getGamma@Texture@Ogre@@UBEMXZ
       4988 137B 0000CE50 ?getGamma@TextureUnitState@Ogre@@QBEMXZ
       4989 137C 00004BA1 ?getGenerateAllConstantDefinitionArrayEntries@GpuNamedConstants@Ogre@@SA_NXZ
       4990 137D 0003DCC6 ?getGeometryBucketList@InstancedObject@InstancedGeometry@Ogre@@QAEAAV?$vector@PAVGeometryBucket@InstancedGeometry@Ogre@@V?$STLAllocator@PAVGeometryBucket@InstancedGeometry@Ogre@@V?$CategorisedAllocPolicy@$0A@@3@@3@@std@@XZ
       4991 137E 00021445 ?getGeometryFormatString@MaterialBucket@InstancedGeometry@Ogre@@IAE?AV?$basic_string@DU?$char_traits@D@std@@V?$allocator@D@2@@std@@PAUSubMeshLodGeometryLink@23@@Z
       4992 137F 00023B78 ?getGeometryFormatString@MaterialBucket@StaticGeometry@Ogre@@IAE?AV?$basic_string@DU?$char_traits@D@std@@V?$allocator@D@2@@std@@PAUSubMeshLodGeometryLink@23@@Z
       4993 1380 00033D48 ?getGeometryIterator@MaterialBucket@InstancedGeometry@Ogre@@QAE?AV?$VectorIterator@V?$vector@PAVGeometryBucket@InstancedGeometry@Ogre@@V?$STLAllocator@PAVGeometryBucket@InstancedGeometry@Ogre@@V?$CategorisedAllocPolicy@$0A@@3@@3@@std@@@3@XZ
       4994 1381 00028F83 ?getGeometryIterator@MaterialBucket@StaticGeometry@Ogre@@QAE?AV?$VectorIterator@V?$vector@PAVGeometryBucket@StaticGeometry@Ogre@@V?$STLAllocator@PAVGeometryBucket@StaticGeometry@Ogre@@V?$CategorisedAllocPolicy@$0A@@3@@3@@std@@@3@XZ
       4995 1382 0001215C ?getGeometryProgram@Pass@Ogre@@QBEABV?$SharedPtr@VGpuProgram@Ogre@@@2@XZ
       4996 1383 00030DD2 ?getGeometryProgramConstantBoolCount@RenderSystemCapabilities@Ogre@@QBEGXZ
       4997 1384 000031D4 ?getGeometryProgramConstantFloatCount@RenderSystemCapabilities@Ogre@@QBEGXZ
       4998 1385 0000A4F7 ?getGeometryProgramConstantIntCount@RenderSystemCapabilities@Ogre@@QBEGXZ
       4999 1386 0001EF6F ?getGeometryProgramName@Pass@Ogre@@QBEABV?$basic_string@DU?$char_traits@D@std@@V?$allocator@D@2@@std@@XZ
       5000 1387 0001859D ?getGeometryProgramNumOutputVertices@RenderSystemCapabilities@Ogre@@QBEHXZ
       5001 1388 0003EA90 ?getGeometryProgramParameters@Pass@Ogre@@QBE?AV?$SharedPtr@VGpuProgramParameters@Ogre@@@2@XZ
       5002 1389 000314DF ?getGlobalInstanceVertexBuffer@RenderSystem@Ogre@@QBE?AVHardwareVertexBufferSharedPtr@2@XZ
       5003 138A 00030300 ?getGlobalInstanceVertexBufferVertexDeclaration@RenderSystem@Ogre@@QBEPAVVertexDeclaration@2@XZ
       5004 138B 000089B8 ?getGlobalNumberOfInstances@RenderSystem@Ogre@@QBEIXZ
       5005 138C 0001744A ?getGpuProgram@Pass@Ogre@@QBE?BV?$SharedPtr@VGpuProgram@Ogre@@@2@W4GpuProgramType@2@@Z
       5006 138D 00039130 ?getGroup@Resource@Ogre@@UBEABV?$basic_string@DU?$char_traits@D@std@@V?$allocator@D@2@@std@@XZ
       5007 138E 00024AC8 ?getGroup@SkeletonInstance@Ogre@@UBEABV?$basic_string@DU?$char_traits@D@std@@V?$allocator@D@2@@std@@XZ
       5008 138F 0000C8DD ?getHSB@ColourValue@Ogre@@QBEXPAM00@Z
       5009 1390 00026FDA ?getHalfSize@AxisAlignedBox@Ogre@@QBE?AVVector3@2@XZ
       5010 1391 0000515F ?getHandle@AnimationTrack@Ogre@@QBEGXZ
       5011 1392 0001CEA4 ?getHandle@Bone@Ogre@@QBEGXZ
       5012 1393 00030AA8 ?getHandle@Resource@Ogre@@UBE_KXZ
       5013 1394 0000B3A2 ?getHandle@SkeletonInstance@Ogre@@UBE_KXZ
       5014 1395 0000F173 ?getHandler@RequestHandlerHolder@DefaultWorkQueueBase@Ogre@@QAEPAVRequestHandler@WorkQueue@3@XZ
       5015 1396 0002699A ?getHasAlpha@Image@Ogre@@QBE_NXZ
       5016 1397 00006730 ?getHasCompositionPass@CompositorManager@Ogre@@QAE_NABV?$basic_string@DU?$char_traits@D@std@@V?$allocator@D@2@@std@@@Z
       5017 1398 0003D992 ?getHasCompositorLogic@CompositorManager@Ogre@@QAE_NABV?$basic_string@DU?$char_traits@D@std@@V?$allocator@D@2@@std@@@Z
       5018 1399 0003D320 ?getHasInstanceData@VertexBufferBinding@Ogre@@UBE_NXZ
       5019 139A 00016A04 ?getHash@Pass@Ogre@@QBEIXZ
       5020 139B 000126E3 ?getHashFunction@Pass@Ogre@@SAPAUHashFunc@12@XZ
       5021 139C 0002EFAA ?getHeight@DepthBuffer@Ogre@@UBEIXZ
       5022 139D 0001A5FA ?getHeight@HardwarePixelBuffer@Ogre@@QBEIXZ
       5023 139E 0000D206 ?getHeight@Image@Ogre@@QBEIXZ
       5024 139F 000402CD ?getHeight@RenderTarget@Ogre@@UBEIXZ
       5025 13A0 000263FA ?getHeight@Texture@Ogre@@UBEIXZ
       5026 13A1 000246F4 ?getHeight@Viewport@Ogre@@QBEMXZ
       5027 13A2 0001683D ?getHits@VertexCacheProfiler@Ogre@@QAEIXZ
       5028 13A3 0001AF7D ?getID@BatchInstance@InstancedGeometry@Ogre@@QBEIXZ
       5029 13A4 0000EA34 ?getID@Region@StaticGeometry@Ogre@@QBEIXZ
       5030 13A5 00021A3F ?getID@Request@WorkQueue@Ogre@@QBE_KXZ
       5031 13A6 00025CCF ?getIdentifier@CompositionPass@Ogre@@QBEIXZ
       5032 13A7 000349B4 ?getIgnoreHidden@FileSystemArchive@Ogre@@SA_NXZ
       5033 13A8 00035F0D ?getIlluminationPassIterator@Technique@Ogre@@QAE?BV?$VectorIterator@V?$vector@PAUIlluminationPass@Ogre@@V?$STLAllocator@PAUIlluminationPass@Ogre@@V?$CategorisedAllocPolicy@$0A@@2@@2@@std@@@2@XZ
       5034 13A9 0003D352 ?getIlluminationStage@Pass@Ogre@@QBE?AW4IlluminationStage@2@XZ
       5035 13AA 00025B71 ?getImplementation@OptimisedUtil@Ogre@@SAPAV12@XZ
       5036 13AB 0001A02D ?getIncludesNormals@Pose@Ogre@@QBE_NXZ
       5037 13AC 0001F7F3 ?getIndex@DistanceLodStrategyBase@Ogre@@UBEGMABV?$vector@MV?$STLAllocator@MV?$CategorisedAllocPolicy@$0A@@Ogre@@@Ogre@@@std@@@Z
       5038 13AD 0002D1FF ?getIndex@DistanceLodStrategyBase@Ogre@@UBEGMABV?$vector@UMeshLodUsage@Ogre@@V?$STLAllocator@UMeshLodUsage@Ogre@@V?$CategorisedAllocPolicy@$0A@@2@@2@@std@@@Z
       5039 13AE 000052A4 ?getIndex@Pass@Ogre@@QBEGXZ
       5040 13AF 00019AF1 ?getIndex@PixelCountLodStrategyBase@Ogre@@UBEGMABV?$vector@MV?$STLAllocator@MV?$CategorisedAllocPolicy@$0A@@Ogre@@@Ogre@@@std@@@Z
       5041 13B0 00012B25 ?getIndex@PixelCountLodStrategyBase@Ogre@@UBEGMABV?$vector@UMeshLodUsage@Ogre@@V?$STLAllocator@UMeshLodUsage@Ogre@@V?$CategorisedAllocPolicy@$0A@@2@@2@@std@@@Z
       5042 13B1 00016BEE ?getIndex@VertexElement@Ogre@@QBEGXZ
       5043 13B2 0002DBF5 ?getIndexAscending@LodStrategy@Ogre@@KAGMABV?$vector@MV?$STLAllocator@MV?$CategorisedAllocPolicy@$0A@@Ogre@@@Ogre@@@std@@@Z
       5044 13B3 000268CD ?getIndexAscending@LodStrategy@Ogre@@KAGMABV?$vector@UMeshLodUsage@Ogre@@V?$STLAllocator@UMeshLodUsage@Ogre@@V?$CategorisedAllocPolicy@$0A@@2@@2@@std@@@Z
       5045 13B4 0000714E ?getIndexBufferUsage@Mesh@Ogre@@QBE?AW4Usage@HardwareBuffer@2@XZ
       5046 13B5 0003DE51 ?getIndexData@GeometryBucket@InstancedGeometry@Ogre@@QBEPBVIndexData@3@XZ
       5047 13B6 000320E7 ?getIndexData@GeometryBucket@StaticGeometry@Ogre@@QBEPBVIndexData@3@XZ
       5048 13B7 0001721F ?getIndexDataEndIndex@SubEntity@Ogre@@QBEIXZ
       5049 13B8 00002B8F ?getIndexDataStartIndex@SubEntity@Ogre@@QBEIXZ
       5050 13B9 000182E6 ?getIndexDescending@LodStrategy@Ogre@@KAGMABV?$vector@MV?$STLAllocator@MV?$CategorisedAllocPolicy@$0A@@Ogre@@@Ogre@@@std@@@Z
       5051 13BA 0001CC74 ?getIndexDescending@LodStrategy@Ogre@@KAGMABV?$vector@UMeshLodUsage@Ogre@@V?$STLAllocator@UMeshLodUsage@Ogre@@V?$CategorisedAllocPolicy@$0A@@2@@2@@std@@@Z
       5052 13BB 0001B310 ?getIndexOffset@PatchSurface@Ogre@@QBEIXZ
       5053 13BC 0000F1EB ?getIndexSize@HardwareIndexBuffer@Ogre@@QBEIXZ
       5054 13BD 0002856F ?getInheritOrientation@Node@Ogre@@UBE_NXZ
       5055 13BE 00011086 ?getInheritParentEntityOrientation@TagPoint@Ogre@@QBE_NXZ
       5056 13BF 0001E70E ?getInheritParentEntityScale@TagPoint@Ogre@@QBE_NXZ
       5057 13C0 0002E9BA ?getInheritScale@Node@Ogre@@UBE_NXZ
       5058 13C1 00021E45 ?getInitialColour@RibbonTrail@Ogre@@UBEABVColourValue@2@I@Z
       5059 13C2 0001CE13 ?getInitialOrientation@Node@Ogre@@UBEABVQuaternion@2@XZ
       5060 13C3 000267F1 ?getInitialPosition@Node@Ogre@@UBEABVVector3@2@XZ
       5061 13C4 0000FE7A ?getInitialScale@Node@Ogre@@UBEABVVector3@2@XZ
       5062 13C5 00002DAB ?getInitialWidth@RibbonTrail@Ogre@@UBEMI@Z
       5063 13C6 00015442 ?getInput@CompositionPass@Ogre@@QBEABUInputTex@12@I@Z
       5064 13C7 00032F88 ?getInputMode@CompositionTargetPass@Ogre@@QBE?AW4InputMode@12@XZ
       5065 13C8 0001B18F ?getInputName@ExternalTextureSource@Ogre@@QBEABV?$basic_string@DU?$char_traits@D@std@@V?$allocator@D@2@@std@@XZ
       5066 13C9 0003AAE9 ?getInstalledPlugins@Root@Ogre@@QBEABV?$vector@PAVPlugin@Ogre@@V?$STLAllocator@PAVPlugin@Ogre@@V?$CategorisedAllocPolicy@$0A@@2@@2@@std@@XZ
       5067 13CA 0003C970 ?getInstanceBatchIterator@InstanceManager@Ogre@@QBE?AV?$ConstVectorIterator@V?$vector@PAVInstanceBatch@Ogre@@V?$STLAllocator@PAVInstanceBatch@Ogre@@V?$CategorisedAllocPolicy@$0A@@2@@2@@std@@@2@ABV?$basic_string@DU?$char_traits@D@std@@V?$allocator@D@2@@std@@@Z
       5068 13CB 0002112A ?getInstanceBatchMapIterator@InstanceManager@Ogre@@QBE?AV?$ConstMapIterator@V?$map@V?$basic_string@DU?$char_traits@D@std@@V?$allocator@D@2@@std@@V?$vector@PAVInstanceBatch@Ogre@@V?$STLAllocator@PAVInstanceBatch@Ogre@@V?$CategorisedAllocPolicy@$0A@@2@@2@@2@U?$less@V?$basic_string@DU?$char_traits@D@std@@V?$allocator@D@2@@std@@@2@V?$STLAllocator@U?$pair@$$CBV?$basic_string@DU?$char_traits@D@std@@V?$allocator@D@2@@std@@V?$vector@PAVInstanceBatch@Ogre@@V?$STLAllocator@PAVInstanceBatch@Ogre@@V?$CategorisedAllocPolicy@$0A@@2@@2@@2@@std@@V?$CategorisedAllocPolicy@$0A@@Ogre@@@Ogre@@@std@@@2@XZ
       5069 13CC 0000DE6D ?getInstanceDataStepRate@HardwareVertexBuffer@Ogre@@QBEIXZ
       5070 13CD 00037F42 ?getInstanceManager@SceneManager@Ogre@@UBEPAVInstanceManager@2@ABV?$basic_string@DU?$char_traits@D@std@@V?$allocator@D@2@@std@@@Z
       5071 13CE 0002B4C2 ?getInstancedEntitiesInUse@InstanceBatch@Ogre@@QAEXAAV?$vector@PAVInstancedEntity@Ogre@@V?$STLAllocator@PAVInstancedEntity@Ogre@@V?$CategorisedAllocPolicy@$0A@@2@@2@@std@@AAV?$vector@VVector4@Ogre@@V?$STLAllocator@VVector4@Ogre@@V?$CategorisedAllocPolicy@$0A@@2@@2@@4@@Z
       5072 13CF 0000EF7A ?getInstancedGeometry@SceneManager@Ogre@@UBEPAVInstancedGeometry@2@ABV?$basic_string@DU?$char_traits@D@std@@V?$allocator@D@2@@std@@@Z
       5073 13D0 0000BAA5 ?getInstancedGeometryInstance@InstancedGeometry@Ogre@@MAEPAVBatchInstance@12@XZ
       5074 13D1 00009FE3 ?getInstancesMap@BatchInstance@InstancedGeometry@Ogre@@QAEAAV?$map@GPAVInstancedObject@InstancedGeometry@Ogre@@U?$less@G@std@@V?$STLAllocator@U?$pair@$$CBGPAVInstancedObject@InstancedGeometry@Ogre@@@std@@V?$CategorisedAllocPolicy@$0A@@Ogre@@@3@@std@@XZ
       5075 13D2 0000A51F ?getInstancingTechnique@InstanceManager@Ogre@@QBE?AW4InstancingTechnique@12@XZ
       5076 13D3 0003B2E1 ?getInt@ScriptTranslator@Ogre@@KA_NABV?$SharedPtr@VAbstractNode@Ogre@@@2@PAH@Z
       5077 13D4 000309BD ?getIntConstantList@GpuProgramParameters@Ogre@@QBEABV?$vector@HV?$STLAllocator@HV?$CategorisedAllocPolicy@$0A@@Ogre@@@Ogre@@@std@@XZ
       5078 13D5 000358FA ?getIntConstantList@GpuSharedParameters@Ogre@@QBEABV?$vector@HV?$STLAllocator@HV?$CategorisedAllocPolicy@$0A@@Ogre@@@Ogre@@@std@@XZ
       5079 13D6 00027CC3 ?getIntLogicalBufferStruct@GpuProgramParameters@Ogre@@QBEABV?$SharedPtr@UGpuLogicalBufferStruct@Ogre@@@2@XZ
       5080 13D7 00002D6F ?getIntLogicalIndexForPhysicalIndex@GpuProgramParameters@Ogre@@QAEII@Z
       5081 13D8 00029C85 ?getIntPointer@GpuProgramParameters@Ogre@@QAEPAHI@Z
       5082 13D9 00001041 ?getIntPointer@GpuProgramParameters@Ogre@@QBEPBHI@Z
       5083 13DA 0002D137 ?getIntPointer@GpuSharedParameters@Ogre@@QAEPAHI@Z
       5084 13DB 0002CC64 ?getIntPointer@GpuSharedParameters@Ogre@@QBEPBHI@Z
       5085 13DC 0002EEE2 ?getInterpolatedKeyFrame@NodeAnimationTrack@Ogre@@UBEXABVTimeIndex@2@PAVKeyFrame@2@@Z
       5086 13DD 00008BD4 ?getInterpolatedKeyFrame@NumericAnimationTrack@Ogre@@UBEXABVTimeIndex@2@PAVKeyFrame@2@@Z
       5087 13DE 00027F93 ?getInterpolatedKeyFrame@VertexAnimationTrack@Ogre@@UBEXABVTimeIndex@2@PAVKeyFrame@2@@Z
       5088 13DF 0003FB52 ?getInterpolationMode@Animation@Ogre@@QBE?AW4InterpolationMode@12@XZ
       5089 13E0 00037BD7 ?getInts@ScriptTranslator@Ogre@@KA_NV?$_List_const_iterator@V?$_List_val@U?$_List_simple_types@V?$SharedPtr@VAbstractNode@Ogre@@@Ogre@@@std@@@std@@@std@@0PAHH@Z
       5090 13E1 0000626C ?getInverseProjectionMatrix@AutoParamDataSource@Ogre@@UBE?AVMatrix4@2@XZ
       5091 13E2 00033811 ?getInverseTextureSize@AutoParamDataSource@Ogre@@UBE?AVVector4@2@I@Z
       5092 13E3 00034C2F ?getInverseTransposeProjectionMatrix@AutoParamDataSource@Ogre@@UBE?AVMatrix4@2@XZ
       5093 13E4 00006BE5 ?getInverseTransposeViewMatrix@AutoParamDataSource@Ogre@@UBE?AVMatrix4@2@XZ
       5094 13E5 0000C522 ?getInverseTransposeViewProjMatrix@AutoParamDataSource@Ogre@@UBE?AVMatrix4@2@XZ
       5095 13E6 000094EE ?getInverseTransposeWorldMatrix@AutoParamDataSource@Ogre@@UBEABVMatrix4@2@XZ
       5096 13E7 0002E091 ?getInverseTransposeWorldViewMatrix@AutoParamDataSource@Ogre@@UBEABVMatrix4@2@XZ
       5097 13E8 00035882 ?getInverseTransposeWorldViewProjMatrix@AutoParamDataSource@Ogre@@UBE?AVMatrix4@2@XZ
       5098 13E9 0000B1BD ?getInverseViewMatrix@AutoParamDataSource@Ogre@@UBEABVMatrix4@2@XZ
       5099 13EA 0000961A ?getInverseViewProjMatrix@AutoParamDataSource@Ogre@@UBE?AVMatrix4@2@XZ
       5100 13EB 0000939F ?getInverseViewportHeight@AutoParamDataSource@Ogre@@UBEMXZ
       5101 13EC 000153A2 ?getInverseViewportWidth@AutoParamDataSource@Ogre@@UBEMXZ
       5102 13ED 00025ED7 ?getInverseWorldMatrix@AutoParamDataSource@Ogre@@UBEABVMatrix4@2@XZ
       5103 13EE 0002D295 ?getInverseWorldViewMatrix@AutoParamDataSource@Ogre@@UBEABVMatrix4@2@XZ
       5104 13EF 0002A8E2 ?getInverseWorldViewProjMatrix@AutoParamDataSource@Ogre@@UBE?AVMatrix4@2@XZ
       5105 13F0 00021FE4 ?getInvertVertexWinding@RenderSystem@Ogre@@UBE_NXZ
       5106 13F1 0002C5DE ?getInvocationName@RenderQueueInvocation@Ogre@@UBEABV?$basic_string@DU?$char_traits@D@std@@V?$allocator@D@2@@std@@XZ
       5107 13F2 0000850D ?getIsAlpha@TextureUnitState@Ogre@@QBE_NXZ
       5108 13F3 00007F86 ?getIsInstanceData@HardwareVertexBuffer@Ogre@@QBE_NXZ
       5109 13F4 0000EFF2 ?getIteratePerLight@Pass@Ogre@@QBE_NXZ
       5110 13F5 00020581 ?getIterationDepthBias@Pass@Ogre@@QBEMXZ
       5111 13F6 00012C5B ?getIterationInterval@ParticleSystem@Ogre@@QBEMXZ
       5112 13F7 00035FD0 ?getIterator@LodStrategyManager@Ogre@@QAE?AV?$MapIterator@V?$map@V?$basic_string@DU?$char_traits@D@std@@V?$allocator@D@2@@std@@PAVLodStrategy@Ogre@@U?$less@V?$basic_string@DU?$char_traits@D@std@@V?$allocator@D@2@@std@@@2@V?$STLAllocator@U?$pair@$$CBV?$basic_string@DU?$char_traits@D@std@@V?$allocator@D@2@@std@@PAVLodStrategy@Ogre@@@std@@V?$CategorisedAllocPolicy@$0A@@Ogre@@@4@@std@@@2@XZ
       5113 13F8 000282E5 ?getIterator@RenderQueueGroup@Ogre@@QAE?AV?$MapIterator@V?$map@GPAVRenderPriorityGroup@Ogre@@U?$less@G@std@@V?$STLAllocator@U?$pair@$$CBGPAVRenderPriorityGroup@Ogre@@@std@@V?$CategorisedAllocPolicy@$0A@@Ogre@@@2@@std@@@2@XZ
       5114 13F9 000057B8 ?getIterator@RenderQueueGroup@Ogre@@QBE?AV?$ConstMapIterator@V?$map@GPAVRenderPriorityGroup@Ogre@@U?$less@G@std@@V?$STLAllocator@U?$pair@$$CBGPAVRenderPriorityGroup@Ogre@@@std@@V?$CategorisedAllocPolicy@$0A@@Ogre@@@2@@std@@@2@XZ
       5115 13FA 00002C2F ?getKeepDeclarationOrder@ManualObject@Ogre@@QBE_NXZ
       5116 13FB 00037FEC ?getKeepParticlesInLocalSpace@ParticleSystem@Ogre@@QBE_NXZ
       5117 13FC 0002DA6A ?getKeyFrame@AnimationTrack@Ogre@@UBEPAVKeyFrame@2@G@Z
       5118 13FD 0002A5FE ?getKeyFramesAtTime@AnimationTrack@Ogre@@UBEMABVTimeIndex@2@PAPAVKeyFrame@2@1PAG@Z
       5119 13FE 00018070 ?getKeyIndex@TimeIndex@Ogre@@QBEIXZ
       5120 13FF 00031B56 ?getKeywordType@RenderSystemCapabilitiesSerializer@Ogre@@IBE?AW4CapabilityKeywordType@12@ABV?$basic_string@DU?$char_traits@D@std@@V?$allocator@D@2@@std@@@Z
       5121 1400 0001608B ?getLODIterator@BatchInstance@InstancedGeometry@Ogre@@QAE?AV?$VectorIterator@V?$vector@PAVLODBucket@InstancedGeometry@Ogre@@V?$STLAllocator@PAVLODBucket@InstancedGeometry@Ogre@@V?$CategorisedAllocPolicy@$0A@@3@@3@@std@@@3@XZ
       5122 1401 0002DC45 ?getLODIterator@Region@StaticGeometry@Ogre@@QAE?AV?$VectorIterator@V?$vector@PAVLODBucket@StaticGeometry@Ogre@@V?$STLAllocator@PAVLODBucket@StaticGeometry@Ogre@@V?$CategorisedAllocPolicy@$0A@@3@@3@@std@@@3@XZ
       5123 1402 0002CF84 ?getLSProjViewDir@FocusedShadowCameraSetup@Ogre@@IBE?AVVector3@2@ABVMatrix4@2@ABVCamera@2@ABVPointListBody@12@@Z
       5124 1403 0002A30B ?getLanguage@GpuProgram@Ogre@@UBEABV?$basic_string@DU?$char_traits@D@std@@V?$allocator@D@2@@std@@XZ
       5125 1404 0003BECB ?getLanguage@UnifiedHighLevelGpuProgram@Ogre@@UBEABV?$basic_string@DU?$char_traits@D@std@@V?$allocator@D@2@@std@@XZ
       5126 1405 00011FCC ?getLastBoundIndex@VertexBufferBinding@Ogre@@UBEGXZ
       5127 1406 0002DDD0 ?getLastFPS@RenderTarget@Ogre@@UBEMXZ
       5128 1407 0001D2EB ?getLastIndex@MaterialBucket@InstancedGeometry@Ogre@@QAEHXZ
       5129 1408 0003B160 ?getLastQuerysPixelcount@HardwareOcclusionQuery@Ogre@@QBEIXZ
       5130 1409 000015FA ?getLastRenderQueue@CompositionPass@Ogre@@QBEEXZ
       5131 140A 00034B99 ?getLastResults@IntersectionSceneQuery@Ogre@@UBEAAUIntersectionSceneQueryResult@2@XZ
       5132 140B 0002FE0A ?getLastResults@RaySceneQuery@Ogre@@UAEAAV?$vector@URaySceneQueryResultEntry@Ogre@@V?$STLAllocator@URaySceneQueryResultEntry@Ogre@@V?$CategorisedAllocPolicy@$0A@@2@@2@@std@@XZ
       5133 140C 00022895 ?getLastResults@RegionSceneQuery@Ogre@@UBEAAUSceneQueryResult@2@XZ
       5134 140D 00029F46 ?getLeft@Viewport@Ogre@@QBEMXZ
       5135 140E 0001A401 ?getLength@Animation@Ogre@@QBEMXZ
       5136 140F 0000F439 ?getLength@AnimationState@Ogre@@QBEMXZ
       5137 1410 0001FC30 ?getLight@AutoParamDataSource@Ogre@@IBEABVLight@2@I@Z
       5138 1411 00029267 ?getLight@SceneManager@Ogre@@UBEPAVLight@2@ABV?$basic_string@DU?$char_traits@D@std@@V?$allocator@D@2@@std@@@Z
       5139 1412 00022D9A ?getLightAs4DVector@AutoParamDataSource@Ogre@@UBE?AVVector4@2@I@Z
       5140 1413 0002D312 ?getLightAttenuation@AutoParamDataSource@Ogre@@UBE?AVVector4@2@I@Z
       5141 1414 00005AC4 ?getLightCapBounds@MovableObject@Ogre@@UBEABVAxisAlignedBox@2@XZ
       5142 1415 00035364 ?getLightCapRenderable@ShadowRenderable@Ogre@@QAEPAV12@XZ
       5143 1416 0002C2EB ?getLightCastsShadows@AutoParamDataSource@Ogre@@UBEMI@Z
       5144 1417 0002B602 ?getLightClipPlanesEnabled@Pass@Ogre@@QBE_NXZ
       5145 1418 00003ED1 ?getLightClippingPlanes@SceneManager@Ogre@@UAEABV?$vector@VPlane@Ogre@@V?$STLAllocator@VPlane@Ogre@@V?$CategorisedAllocPolicy@$0A@@2@@2@@std@@PAVLight@2@@Z
       5146 1419 00036A70 ?getLightCount@AutoParamDataSource@Ogre@@UBEMXZ
       5147 141A 0000750E ?getLightCountPerIteration@Pass@Ogre@@QBEGXZ
       5148 141B 00017DEB ?getLightDiffuseColour@AutoParamDataSource@Ogre@@UBEABVColourValue@2@I@Z
       5149 141C 0003F7F6 ?getLightDiffuseColourWithPower@AutoParamDataSource@Ogre@@UBE?BVColourValue@2@I@Z
       5150 141D 000358BE ?getLightDirection@AutoParamDataSource@Ogre@@UBEABVVector3@2@I@Z
       5151 141E 0003942D ?getLightMask@MovableObject@Ogre@@UBEIXZ
       5152 141F 000392ED ?getLightMask@Pass@Ogre@@QBEIXZ
       5153 1420 00001087 ?getLightNumber@AutoParamDataSource@Ogre@@UBEMI@Z
       5154 1421 0001DD86 ?getLightPosition@AutoParamDataSource@Ogre@@UBEABVVector3@2@I@Z
       5155 1422 0001EDE4 ?getLightPowerScale@AutoParamDataSource@Ogre@@UBEMI@Z
       5156 1423 000285B5 ?getLightScissorRect@SceneManager@Ogre@@UAEABU?$TRect@M@2@PAVLight@2@PBVCamera@2@@Z
       5157 1424 00038163 ?getLightScissoringEnabled@Pass@Ogre@@QBE_NXZ
       5158 1425 0001FD48 ?getLightSpecularColour@AutoParamDataSource@Ogre@@UBEABVColourValue@2@I@Z
       5159 1426 00004AE3 ?getLightSpecularColourWithPower@AutoParamDataSource@Ogre@@UBE?BVColourValue@2@I@Z
       5160 1427 00039ADB ?getLightingEnabled@Pass@Ogre@@QBE_NXZ
       5161 1428 00035D0A ?getLights@BatchInstance@InstancedGeometry@Ogre@@QBEABV?$HashedVector@PAVLight@Ogre@@@3@XZ
       5162 1429 0000B1E5 ?getLights@BillboardChain@Ogre@@UBEABV?$HashedVector@PAVLight@Ogre@@@2@XZ
       5163 142A 00025149 ?getLights@BillboardSet@Ogre@@UBEABV?$HashedVector@PAVLight@Ogre@@@2@XZ
       5164 142B 0003BD5E ?getLights@Frustum@Ogre@@UBEABV?$HashedVector@PAVLight@Ogre@@@2@XZ
       5165 142C 000132AF ?getLights@GeometryBucket@InstancedGeometry@Ogre@@UBEABV?$HashedVector@PAVLight@Ogre@@@3@XZ
       5166 142D 000282D1 ?getLights@GeometryBucket@StaticGeometry@Ogre@@UBEABV?$HashedVector@PAVLight@Ogre@@@3@XZ
       5167 142E 0002397F ?getLights@InstanceBatch@Ogre@@UBEABV?$HashedVector@PAVLight@Ogre@@@2@XZ
       5168 142F 000222CD ?getLights@ManualObjectSection@ManualObject@Ogre@@UBEABV?$HashedVector@PAVLight@Ogre@@@3@XZ
       5169 1430 00027877 ?getLights@ShadowRenderable@Ogre@@UBEABV?$HashedVector@PAVLight@Ogre@@@2@XZ
       5170 1431 00009E2B ?getLights@SimpleRenderable@Ogre@@UBEABV?$HashedVector@PAVLight@Ogre@@@2@XZ
       5171 1432 00002D65 ?getLights@SubEntity@Ogre@@UBEABV?$HashedVector@PAVLight@Ogre@@@2@XZ
       5172 1433 00012715 ?getLights@TagPoint@Ogre@@QBEABV?$HashedVector@PAVLight@Ogre@@@2@XZ
       5173 1434 0001913C ?getLine@DataStream@Ogre@@UAE?AV?$basic_string@DU?$char_traits@D@std@@V?$allocator@D@2@@std@@_N@Z
       5174 1435 00007C75 ?getLine@Exception@Ogre@@UBEJXZ
       5175 1436 00021C8D ?getLinkedSkeletonAnimationSourceIterator@Skeleton@Ogre@@UBE?AV?$ConstVectorIterator@V?$vector@ULinkedSkeletonAnimationSource@Ogre@@V?$STLAllocator@ULinkedSkeletonAnimationSource@Ogre@@V?$CategorisedAllocPolicy@$0A@@2@@2@@std@@@2@XZ
       5176 1437 00033339 ?getLinkedSkeletonAnimationSourceIterator@SkeletonInstance@Ogre@@UBE?AV?$ConstVectorIterator@V?$vector@ULinkedSkeletonAnimationSource@Ogre@@V?$STLAllocator@ULinkedSkeletonAnimationSource@Ogre@@V?$CategorisedAllocPolicy@$0A@@2@@2@@std@@@2@XZ
       5177 1438 00002C3E ?getListener@MeshManager@Ogre@@QAEPAVMeshSerializerListener@2@XZ
       5178 1439 00032998 ?getListener@MeshSerializer@Ogre@@QAEPAVMeshSerializerListener@2@XZ
       5179 143A 000353E1 ?getListener@MovableObject@Ogre@@UBEPAVListener@12@XZ
       5180 143B 00033E38 ?getListener@Node@Ogre@@UBEPAVListener@12@XZ
       5181 143C 0003FDA5 ?getListener@ScriptCompiler@Ogre@@QAEPAVScriptCompilerListener@2@XZ
       5182 143D 00034F90 ?getListener@ScriptCompilerManager@Ogre@@QAEPAVScriptCompilerListener@2@XZ
       5183 143E 00028227 ?getLoadingListener@ResourceGroupManager@Ogre@@QAEPAVResourceLoadingListener@2@XZ
       5184 143F 00021CCE ?getLoadingOrder@ParticleSystemManager@Ogre@@UBEMXZ
       5185 1440 0001BBB2 ?getLoadingOrder@ResourceManager@Ogre@@UBEMXZ
       5186 1441 0000CBA8 ?getLoadingOrder@ScriptCompilerManager@Ogre@@UBEMXZ
       5187 1442 0003FE18 ?getLoadingState@Resource@Ogre@@UBE?AW4LoadingState@12@XZ
       5188 1443 0003C90C ?getLoadingState@UnifiedHighLevelGpuProgram@Ogre@@UBE?AW4LoadingState@Resource@2@XZ
       5189 1444 000229EE ?getLocalAxes@InstancedObject@InstancedGeometry@Ogre@@QBE?AVMatrix3@3@XZ
       5190 1445 00018976 ?getLocalAxes@Node@Ogre@@UBE?AVMatrix3@2@XZ
       5191 1446 00015947 ?getLod@LODBucket@InstancedGeometry@Ogre@@QBEGXZ
       5192 1447 00029CC1 ?getLod@LODBucket@StaticGeometry@Ogre@@QBEGXZ
       5193 1448 000111EE ?getLodBias@Camera@Ogre@@QBEMXZ
       5194 1449 0000475F ?getLodBias@CompositionTargetPass@Ogre@@QAEMXZ
       5195 144A 0001CA0D ?getLodCamera@Camera@Ogre@@UBEPBV12@XZ
       5196 144B 00015258 ?getLodCameraPosition@AutoParamDataSource@Ogre@@UBEABVVector4@2@XZ
       5197 144C 00022EF8 ?getLodCameraPositionObjectSpace@AutoParamDataSource@Ogre@@UBEABVVector4@2@XZ
       5198 144D 0000D369 ?getLodIndex@Material@Ogre@@QBEGM@Z
       5199 144E 00028178 ?getLodIndex@Mesh@Ogre@@QBEGM@Z
       5200 144F 00015B13 ?getLodIndex@Technique@Ogre@@QBEGXZ
       5201 1450 000275A2 ?getLodLevel@Mesh@Ogre@@QBEABUMeshLodUsage@2@G@Z
       5202 1451 0000B5D7 ?getLodStrategy@Material@Ogre@@QBEPBVLodStrategy@2@XZ
       5203 1452 00026A26 ?getLodStrategy@Mesh@Ogre@@QBEPBVLodStrategy@2@XZ
       5204 1453 0001C1D4 ?getLodValue@LODBucket@InstancedGeometry@Ogre@@QBEMXZ
       5205 1454 0001BE5A ?getLodValue@LODBucket@StaticGeometry@Ogre@@QBEMXZ
       5206 1455 0000B1F4 ?getLodValueIterator@Material@Ogre@@QBE?AV?$ConstVectorIterator@V?$vector@MV?$STLAllocator@MV?$CategorisedAllocPolicy@$0A@@Ogre@@@Ogre@@@std@@@2@XZ
       5207 1456 0001F9AB ?getLog@LogManager@Ogre@@QAEPAVLog@2@ABV?$basic_string@DU?$char_traits@D@std@@V?$allocator@D@2@@std@@@Z
       5208 1457 0000A925 ?getLogDetail@Log@Ogre@@QBE?AW4LoggingLevel@2@XZ
       5209 1458 0000C3B5 ?getLoop@AnimationState@Ogre@@QBE_NXZ
       5210 1459 00018007 ?getMRTTexLocalName@CompositorInstance@Ogre@@AAE?AV?$basic_string@DU?$char_traits@D@std@@V?$allocator@D@2@@std@@ABV34@I@Z
       5211 145A 00002270 ?getManager@HardwareCounterBuffer@Ogre@@QBEPAVHardwareBufferManagerBase@2@XZ
       5212 145B 0000674E ?getManager@HardwareIndexBuffer@Ogre@@QBEPAVHardwareBufferManagerBase@2@XZ
       5213 145C 0000E8A4 ?getManager@HardwareUniformBuffer@Ogre@@QBEPAVHardwareBufferManagerBase@2@XZ
       5214 145D 0001A546 ?getManager@HardwareVertexBuffer@Ogre@@QBEPAVHardwareBufferManagerBase@2@XZ
       5215 145E 0003180E ?getManualBonesDirty@Skeleton@Ogre@@UBE_NXZ
       5216 145F 0000CBD5 ?getManualCullingMode@Pass@Ogre@@QBE?AW4ManualCullingMode@2@XZ
       5217 1460 0003E9F0 ?getManualLodLevel@Entity@Ogre@@QBEPAV12@I@Z
       5218 1461 00011FE5 ?getManualNamedConstantsFile@GpuProgram@Ogre@@UBEABV?$basic_string@DU?$char_traits@D@std@@V?$allocator@D@2@@std@@XZ
       5219 1462 00018A3E ?getManualObject@SceneManager@Ogre@@UBEPAVManualObject@2@ABV?$basic_string@DU?$char_traits@D@std@@V?$allocator@D@2@@std@@@Z
       5220 1463 0000FEA2 ?getMaterial@BillboardChain@Ogre@@UBEABV?$SharedPtr@VMaterial@Ogre@@@2@XZ
       5221 1464 0002E3A7 ?getMaterial@BillboardSet@Ogre@@UBEABV?$SharedPtr@VMaterial@Ogre@@@2@XZ
       5222 1465 0002A19E ?getMaterial@CompositionPass@Ogre@@QBEABV?$SharedPtr@VMaterial@Ogre@@@2@XZ
       5223 1466 0000A993 ?getMaterial@Frustum@Ogre@@UBEABV?$SharedPtr@VMaterial@Ogre@@@2@XZ
       5224 1467 0001EC59 ?getMaterial@GeometryBucket@InstancedGeometry@Ogre@@UBEABV?$SharedPtr@VMaterial@Ogre@@@3@XZ
       5225 1468 0003BE8A ?getMaterial@GeometryBucket@StaticGeometry@Ogre@@UBEABV?$SharedPtr@VMaterial@Ogre@@@3@XZ
       5226 1469 0002D46B ?getMaterial@InstanceBatch@Ogre@@UBEABV?$SharedPtr@VMaterial@Ogre@@@2@XZ
       5227 146A 00036737 ?getMaterial@ManualObjectSection@ManualObject@Ogre@@UBEABV?$SharedPtr@VMaterial@Ogre@@@3@XZ
       5228 146B 0001354D ?getMaterial@MaterialBucket@InstancedGeometry@Ogre@@QBEABV?$SharedPtr@VMaterial@Ogre@@@3@XZ
       5229 146C 0001360B ?getMaterial@MaterialBucket@StaticGeometry@Ogre@@QBEABV?$SharedPtr@VMaterial@Ogre@@@3@XZ
       5230 146D 0003ED56 ?getMaterial@ShadowRenderable@Ogre@@UBEABV?$SharedPtr@VMaterial@Ogre@@@2@XZ
       5231 146E 0000B591 ?getMaterial@SimpleRenderable@Ogre@@UBEABV?$SharedPtr@VMaterial@Ogre@@@2@XZ
       5232 146F 00032515 ?getMaterial@SubEntity@Ogre@@UBEABV?$SharedPtr@VMaterial@Ogre@@@2@XZ
       5233 1470 0000FB32 ?getMaterialGroup@ManualObjectSection@ManualObject@Ogre@@QBEABV?$basic_string@DU?$char_traits@D@std@@V?$allocator@D@2@@std@@XZ
       5234 1471 00025897 ?getMaterialIterator@LODBucket@InstancedGeometry@Ogre@@QAE?AV?$MapIterator@V?$map@V?$basic_string@DU?$char_traits@D@std@@V?$allocator@D@2@@std@@PAVMaterialBucket@InstancedGeometry@Ogre@@U?$less@V?$basic_string@DU?$char_traits@D@std@@V?$allocator@D@2@@std@@@2@V?$STLAllocator@U?$pair@$$CBV?$basic_string@DU?$char_traits@D@std@@V?$allocator@D@2@@std@@PAVMaterialBucket@InstancedGeometry@Ogre@@@std@@V?$CategorisedAllocPolicy@$0A@@Ogre@@@5@@std@@@3@XZ
       5235 1472 00031D9F ?getMaterialIterator@LODBucket@StaticGeometry@Ogre@@QAE?AV?$MapIterator@V?$map@V?$basic_string@DU?$char_traits@D@std@@V?$allocator@D@2@@std@@PAVMaterialBucket@StaticGeometry@Ogre@@U?$less@V?$basic_string@DU?$char_traits@D@std@@V?$allocator@D@2@@std@@@2@V?$STLAllocator@U?$pair@$$CBV?$basic_string@DU?$char_traits@D@std@@V?$allocator@D@2@@std@@PAVMaterialBucket@StaticGeometry@Ogre@@@std@@V?$CategorisedAllocPolicy@$0A@@Ogre@@@5@@std@@@3@XZ
       5236 1473 00012373 ?getMaterialName@BillboardChain@Ogre@@UBEABV?$basic_string@DU?$char_traits@D@std@@V?$allocator@D@2@@std@@XZ
       5237 1474 0001044C ?getMaterialName@BillboardSet@Ogre@@UBEABV?$basic_string@DU?$char_traits@D@std@@V?$allocator@D@2@@std@@XZ
       5238 1475 00032FE2 ?getMaterialName@ManualObjectSection@ManualObject@Ogre@@QBEABV?$basic_string@DU?$char_traits@D@std@@V?$allocator@D@2@@std@@XZ
       5239 1476 0001F357 ?getMaterialName@MaterialBucket@InstancedGeometry@Ogre@@QBEABV?$basic_string@DU?$char_traits@D@std@@V?$allocator@D@2@@std@@XZ
       5240 1477 00010050 ?getMaterialName@MaterialBucket@StaticGeometry@Ogre@@QBEABV?$basic_string@DU?$char_traits@D@std@@V?$allocator@D@2@@std@@XZ
       5241 1478 0001E957 ?getMaterialName@ParticleSystem@Ogre@@UBEABV?$basic_string@DU?$char_traits@D@std@@V?$allocator@D@2@@std@@XZ
       5242 1479 00007B08 ?getMaterialName@SubEntity@Ogre@@QBEABV?$basic_string@DU?$char_traits@D@std@@V?$allocator@D@2@@std@@XZ
       5243 147A 00039F3B ?getMaterialName@SubMesh@Ogre@@QBEABV?$basic_string@DU?$char_traits@D@std@@V?$allocator@D@2@@std@@XZ
       5244 147B 0003C385 ?getMaterialScheme@CompositionPass@Ogre@@QBEABV?$basic_string@DU?$char_traits@D@std@@V?$allocator@D@2@@std@@XZ
       5245 147C 00008549 ?getMaterialScheme@CompositionTargetPass@Ogre@@QBEABV?$basic_string@DU?$char_traits@D@std@@V?$allocator@D@2@@std@@XZ
       5246 147D 0001EE7F ?getMaterialScheme@Viewport@Ogre@@QBEABV?$basic_string@DU?$char_traits@D@std@@V?$allocator@D@2@@std@@XZ
       5247 147E 0000E2BE ?getMatrix4@ScriptTranslator@Ogre@@KA_NV?$_List_const_iterator@V?$_List_val@U?$_List_simple_types@V?$SharedPtr@VAbstractNode@Ogre@@@Ogre@@@std@@@std@@@std@@0PAVMatrix4@2@@Z
       5248 147F 00033311 ?getMaxAllocationSize@StdAllocPolicy@Ogre@@SAIXZ
       5249 1480 0002F11C ?getMaxChainElements@BillboardChain@Ogre@@UBEIXZ
       5250 1481 000067B2 ?getMaxDuration@ParticleEmitter@Ogre@@UBEMXZ
       5251 1482 000052D6 ?getMaxLookupTableInstances@BaseInstanceBatchVTF@Ogre@@UBEIXZ
       5252 1483 00002E2D ?getMaxOrBestNumInstancesPerBatch@InstanceManager@Ogre@@QAEIABV?$basic_string@DU?$char_traits@D@std@@V?$allocator@D@2@@std@@IG@Z
       5253 1484 0002021B ?getMaxParticleVelocity@ParticleEmitter@Ogre@@UBEMXZ
       5254 1485 00023484 ?getMaxPointSize@RenderSystemCapabilities@Ogre@@QBEMXZ
       5255 1486 00039DB5 ?getMaxRepeatDelay@ParticleEmitter@Ogre@@UBEMXZ
       5256 1487 0003D41F ?getMaxResults@RaySceneQuery@Ogre@@UBEGXZ
       5257 1488 00018A43 ?getMaxScaleCoef@InstancedEntity@Ogre@@QBEMXZ
       5258 1489 000149C5 ?getMaxSimultaneousLights@Pass@Ogre@@QBEGXZ
       5259 148A 00027363 ?getMaxSource@VertexDeclaration@Ogre@@QBEGXZ
       5260 148B 00016013 ?getMaxSupportedAnisotropy@RenderSystemCapabilities@Ogre@@QAEMXZ
       5261 148C 000122DD ?getMaxTimeToLive@ParticleEmitter@Ogre@@UBEMXZ
       5262 148D 00007D9C ?getMaxVertexCount@RenderToVertexBuffer@Ogre@@QBEIXZ
       5263 148E 0001758A ?getMaximum@AxisAlignedBox@Ogre@@QAEAAVVector3@2@XZ
       5264 148F 00022683 ?getMaximum@AxisAlignedBox@Ogre@@QBEABVVector3@2@XZ
       5265 1490 00019763 ?getMemoryBudget@ResourceManager@Ogre@@UBEIXZ
       5266 1491 0003EA36 ?getMemorySize@PixelUtil@Ogre@@SAIIIIW4PixelFormat@2@@Z
       5267 1492 000023C9 ?getMemoryUsage@ResourceManager@Ogre@@UBEIXZ
       5268 1493 00022B88 ?getMesh@Entity@Ogre@@QBEABV?$SharedPtr@VMesh@Ogre@@@2@XZ
       5269 1494 000080BC ?getMeshManager@Root@Ogre@@QAEPAVMeshManager@2@XZ
       5270 1495 0003A990 ?getMessages@Response@WorkQueue@Ogre@@QBEABV?$basic_string@DU?$char_traits@D@std@@V?$allocator@D@2@@std@@XZ
       5271 1496 0000E4F3 ?getMetaData@SceneManagerEnumerator@Ogre@@QBEPBUSceneManagerMetaData@2@ABV?$basic_string@DU?$char_traits@D@std@@V?$allocator@D@2@@std@@@Z
       5272 1497 000038C8 ?getMetaData@SceneManagerFactory@Ogre@@UBEABUSceneManagerMetaData@2@XZ
       5273 1498 0002F9E1 ?getMetaDataIterator@SceneManagerEnumerator@Ogre@@QBE?AV?$ConstVectorIterator@V?$vector@PBUSceneManagerMetaData@Ogre@@V?$STLAllocator@PBUSceneManagerMetaData@Ogre@@V?$CategorisedAllocPolicy@$0A@@2@@2@@std@@@2@XZ
       5274 1499 0002B0FD ?getMetrics@RenderTarget@Ogre@@UAEXAAI00@Z
       5275 149A 0000EB92 ?getMetrics@RenderWindow@Ogre@@UBEXAAI00AAH1@Z
       5276 149B 0001DE67 ?getMicrocodeFromCache@GpuProgramManager@Ogre@@UBEABV?$SharedPtr@VMemoryDataStream@Ogre@@@2@ABV?$basic_string@DU?$char_traits@D@std@@V?$allocator@D@2@@std@@@Z
       5277 149C 000180DE ?getMicroseconds@Timer@Ogre@@QAEKXZ
       5278 149D 00024C26 ?getMicrosecondsCPU@Timer@Ogre@@QAEKXZ
       5279 149E 000229E9 ?getMilliseconds@Timer@Ogre@@QAEKXZ
       5280 149F 000078CE ?getMillisecondsCPU@Timer@Ogre@@QAEKXZ
       5281 14A0 0002C485 ?getMinDuration@ParticleEmitter@Ogre@@UBEMXZ
       5282 14A1 00025E96 ?getMinParticleVelocity@ParticleEmitter@Ogre@@UBEMXZ
       5283 14A2 0002B427 ?getMinRepeatDelay@ParticleEmitter@Ogre@@UBEMXZ
       5284 14A3 00027F84 ?getMinTimeToLive@ParticleEmitter@Ogre@@UBEMXZ
       5285 14A4 00031840 ?getMinimum@AxisAlignedBox@Ogre@@QAEAAVVector3@2@XZ
       5286 14A5 0001ADBB ?getMinimum@AxisAlignedBox@Ogre@@QBEABVVector3@2@XZ
       5287 14A6 00039F90 ?getMipmapsHardwareGenerated@Texture@Ogre@@UBE_NXZ
       5288 14A7 00009967 ?getMisses@VertexCacheProfiler@Ogre@@QAEIXZ
       5289 14A8 0003FD7D ?getModifiedTime@FileSystemArchive@Ogre@@UAE_JABV?$basic_string@DU?$char_traits@D@std@@V?$allocator@D@2@@std@@@Z
       5290 14A9 0003CEB6 ?getModifiedTime@ZipArchive@Ogre@@UAE_JABV?$basic_string@DU?$char_traits@D@std@@V?$allocator@D@2@@std@@@Z
       5291 14AA 00029E56 ?getMovableObject@SceneManager@Ogre@@UBEPAVMovableObject@2@ABV?$basic_string@DU?$char_traits@D@std@@V?$allocator@D@2@@std@@0@Z
       5292 14AB 000027ED ?getMovableObjectCollection@SceneManager@Ogre@@IAEPAUMovableObjectCollection@12@ABV?$basic_string@DU?$char_traits@D@std@@V?$allocator@D@2@@std@@@Z
       5293 14AC 00012201 ?getMovableObjectCollection@SceneManager@Ogre@@IBEPBUMovableObjectCollection@12@ABV?$basic_string@DU?$char_traits@D@std@@V?$allocator@D@2@@std@@@Z
       5294 14AD 000356CA ?getMovableObjectFactory@Root@Ogre@@QAEPAVMovableObjectFactory@2@ABV?$basic_string@DU?$char_traits@D@std@@V?$allocator@D@2@@std@@@Z
       5295 14AE 0001FE4C ?getMovableObjectFactoryIterator@Root@Ogre@@QBE?AV?$ConstMapIterator@V?$map@V?$basic_string@DU?$char_traits@D@std@@V?$allocator@D@2@@std@@PAVMovableObjectFactory@Ogre@@U?$less@V?$basic_string@DU?$char_traits@D@std@@V?$allocator@D@2@@std@@@2@V?$STLAllocator@U?$pair@$$CBV?$basic_string@DU?$char_traits@D@std@@V?$allocator@D@2@@std@@PAVMovableObjectFactory@Ogre@@@std@@V?$CategorisedAllocPolicy@$0A@@Ogre@@@4@@std@@@2@XZ
       5296 14AF 0000C0B3 ?getMovableObjectIterator@SceneManager@Ogre@@UAE?AV?$MapIterator@V?$map@V?$basic_string@DU?$char_traits@D@std@@V?$allocator@D@2@@std@@PAVMovableObject@Ogre@@U?$less@V?$basic_string@DU?$char_traits@D@std@@V?$allocator@D@2@@std@@@2@V?$STLAllocator@U?$pair@$$CBV?$basic_string@DU?$char_traits@D@std@@V?$allocator@D@2@@std@@PAVMovableObject@Ogre@@@std@@V?$CategorisedAllocPolicy@$0A@@Ogre@@@4@@std@@@2@ABV?$basic_string@DU?$char_traits@D@std@@V?$allocator@D@2@@std@@@Z
       5297 14B0 00025798 ?getMovableType@BatchInstance@InstancedGeometry@Ogre@@UBEABV?$basic_string@DU?$char_traits@D@std@@V?$allocator@D@2@@std@@XZ
       5298 14B1 0001D5AC ?getMovableType@BillboardChain@Ogre@@UBEABV?$basic_string@DU?$char_traits@D@std@@V?$allocator@D@2@@std@@XZ
       5299 14B2 000328CB ?getMovableType@BillboardSet@Ogre@@UBEABV?$basic_string@DU?$char_traits@D@std@@V?$allocator@D@2@@std@@XZ
       5300 14B3 0001A3AC ?getMovableType@Camera@Ogre@@UBEABV?$basic_string@DU?$char_traits@D@std@@V?$allocator@D@2@@std@@XZ
       5301 14B4 0002EBB3 ?getMovableType@Entity@Ogre@@UBEABV?$basic_string@DU?$char_traits@D@std@@V?$allocator@D@2@@std@@XZ
       5302 14B5 000197AE ?getMovableType@Frustum@Ogre@@UBEABV?$basic_string@DU?$char_traits@D@std@@V?$allocator@D@2@@std@@XZ
       5303 14B6 00033E2E ?getMovableType@InstanceBatch@Ogre@@UBEABV?$basic_string@DU?$char_traits@D@std@@V?$allocator@D@2@@std@@XZ
       5304 14B7 00028A65 ?getMovableType@InstancedEntity@Ogre@@UBEABV?$basic_string@DU?$char_traits@D@std@@V?$allocator@D@2@@std@@XZ
       5305 14B8 00016F4F ?getMovableType@Light@Ogre@@UBEABV?$basic_string@DU?$char_traits@D@std@@V?$allocator@D@2@@std@@XZ
       5306 14B9 00011F54 ?getMovableType@ManualObject@Ogre@@UBEABV?$basic_string@DU?$char_traits@D@std@@V?$allocator@D@2@@std@@XZ
       5307 14BA 0000E0AC ?getMovableType@MovablePlane@Ogre@@UBEABV?$basic_string@DU?$char_traits@D@std@@V?$allocator@D@2@@std@@XZ
       5308 14BB 0002D853 ?getMovableType@ParticleSystem@Ogre@@UBEABV?$basic_string@DU?$char_traits@D@std@@V?$allocator@D@2@@std@@XZ
       5309 14BC 000012FD ?getMovableType@Region@StaticGeometry@Ogre@@UBEABV?$basic_string@DU?$char_traits@D@std@@V?$allocator@D@2@@std@@XZ
       5310 14BD 000295E6 ?getMovableType@RibbonTrail@Ogre@@UBEABV?$basic_string@DU?$char_traits@D@std@@V?$allocator@D@2@@std@@XZ
       5311 14BE 0001FC26 ?getMovableType@SimpleRenderable@Ogre@@UBEABV?$basic_string@DU?$char_traits@D@std@@V?$allocator@D@2@@std@@XZ
       5312 14BF 0001DDD1 ?getMultiSetting@ConfigFile@Ogre@@QBE?AV?$vector@V?$basic_string@DU?$char_traits@D@std@@V?$allocator@D@2@@std@@V?$STLAllocator@V?$basic_string@DU?$char_traits@D@std@@V?$allocator@D@2@@std@@V?$CategorisedAllocPolicy@$0A@@Ogre@@@Ogre@@@std@@ABV?$basic_string@DU?$char_traits@D@std@@V?$allocator@D@2@@4@0@Z
       5313 14C0 0002C593 ?getMutableCapabilities@RenderSystem@Ogre@@QAEPAVRenderSystemCapabilities@2@XZ
       5314 14C1 0003C709 ?getName@Animation@Ogre@@QBEABV?$basic_string@DU?$char_traits@D@std@@V?$allocator@D@2@@std@@XZ
       5315 14C2 00016BFD ?getName@Archive@Ogre@@QBEABV?$basic_string@DU?$char_traits@D@std@@V?$allocator@D@2@@std@@XZ
       5316 14C3 0003F599 ?getName@DataStream@Ogre@@QAEABV?$basic_string@DU?$char_traits@D@std@@V?$allocator@D@2@@std@@XZ
       5317 14C4 0003A6AC ?getName@DefaultWorkQueueBase@Ogre@@QBEABV?$basic_string@DU?$char_traits@D@std@@V?$allocator@D@2@@std@@XZ
       5318 14C5 0000BEF1 ?getName@DynLib@Ogre@@QBEABV?$basic_string@DU?$char_traits@D@std@@V?$allocator@D@2@@std@@XZ
       5319 14C6 0000D03F ?getName@GpuSharedParameters@Ogre@@QAEABV?$basic_string@DU?$char_traits@D@std@@V?$allocator@D@2@@std@@XZ
       5320 14C7 0001FAD2 ?getName@GpuSharedParametersUsage@Ogre@@QBEABV?$basic_string@DU?$char_traits@D@std@@V?$allocator@D@2@@std@@XZ
       5321 14C8 00011964 ?getName@HardwareCounterBuffer@Ogre@@QBEABV?$basic_string@DU?$char_traits@D@std@@V?$allocator@D@2@@std@@XZ
       5322 14C9 000259EB ?getName@HardwareUniformBuffer@Ogre@@QBEABV?$basic_string@DU?$char_traits@D@std@@V?$allocator@D@2@@std@@XZ
       5323 14CA 000140BA ?getName@InstanceManager@Ogre@@QBEABV?$basic_string@DU?$char_traits@D@std@@V?$allocator@D@2@@std@@XZ
       5324 14CB 00003B3E ?getName@InstancedGeometry@Ogre@@QBEABV?$basic_string@DU?$char_traits@D@std@@V?$allocator@D@2@@std@@XZ
       5325 14CC 000373B7 ?getName@LodStrategy@Ogre@@QBEABV?$basic_string@DU?$char_traits@D@std@@V?$allocator@D@2@@std@@XZ
       5326 14CD 0003A12F ?getName@Log@Ogre@@QBEABV?$basic_string@DU?$char_traits@D@std@@V?$allocator@D@2@@std@@XZ
       5327 14CE 0002EE1A ?getName@MovableObject@Ogre@@UBEABV?$basic_string@DU?$char_traits@D@std@@V?$allocator@D@2@@std@@XZ
       5328 14CF 0000EBCE ?getName@Node@Ogre@@QBEABV?$basic_string@DU?$char_traits@D@std@@V?$allocator@D@2@@std@@XZ
